

Microchip Technology PIC LITE Macro Assembler V1.45 build -152302408 
                                                                                               Thu Apr 12 18:04:29 2018

Microchip Technology Omniscient Code Generator v1.45 (Free mode) build 201711160504
     1                           	processor	16F18855
     2                           	opt	pw 120
     3                           	opt	lm
     4                           	psect	stringtext1,global,class=STRCODE,delta=2
     5                           	psect	stringtext2,global,class=STRCODE,delta=2
     6                           	psect	cinit,global,class=CODE,merge=1,delta=2
     7                           	psect	bssBANK0,global,class=BANK0,space=1,delta=1
     8                           	psect	cstackCOMMON,global,class=COMMON,space=1,delta=1
     9                           	psect	cstackBANK0,global,class=BANK0,space=1,delta=1
    10                           	psect	maintext,global,class=CODE,merge=1,split=1,delta=2
    11                           	psect	text1,local,class=CODE,merge=1,delta=2
    12                           	psect	text2,local,class=CODE,merge=1,delta=2
    13                           	psect	text3,local,class=CODE,merge=1,delta=2
    14                           	psect	text4,local,class=CODE,merge=1,delta=2
    15                           	psect	text5,local,class=CODE,merge=1,delta=2
    16                           	psect	text6,local,class=CODE,merge=1,delta=2
    17                           	psect	text7,local,class=CODE,merge=1,delta=2
    18                           	psect	text8,local,class=CODE,merge=1,delta=2,group=2
    19                           	psect	text9,local,class=CODE,merge=1,delta=2
    20                           	psect	text10,local,class=CODE,merge=1,delta=2
    21                           	psect	text11,local,class=CODE,merge=1,delta=2
    22                           	dabs	1,0x7E,2
    23  0000                     
    24                           ; Version 1.45
    25                           ; Generated 16/11/2017 GMT
    26                           ; 
    27                           ; Copyright © 2017, Microchip Technology Inc. and its subsidiaries ("Microchip")
    28                           ; All rights reserved.
    29                           ; 
    30                           ; This software is developed by Microchip Technology Inc. and its subsidiaries ("Microch
      +                          ip").
    31                           ; 
    32                           ; Redistribution and use in source and binary forms, with or without modification, are
    33                           ; permitted provided that the following conditions are met:
    34                           ; 
    35                           ;     1. Redistributions of source code must retain the above copyright notice, this lis
      +                          t of
    36                           ;        conditions and the following disclaimer.
    37                           ; 
    38                           ;     2. Redistributions in binary form must reproduce the above copyright notice, this 
      +                          list
    39                           ;        of conditions and the following disclaimer in the documentation and/or other
    40                           ;        materials provided with the distribution.
    41                           ; 
    42                           ;     3. Microchip's name may not be used to endorse or promote products derived from th
      +                          is
    43                           ;        software without specific prior written permission.
    44                           ; 
    45                           ; THIS SOFTWARE IS PROVIDED BY MICROCHIP "AS IS" AND ANY EXPRESS OR IMPLIED WARRANTIES,
    46                           ; INCLUDING, BUT NOT LIMITED TO, THE IMPLIED WARRANTIES OF MERCHANTABILITY AND FITNESS F
      +                          OR
    47                           ; PURPOSE ARE DISCLAIMED.  IN NO EVENT SHALL MICROCHIP BE LIABLE FOR ANY DIRECT, INDIREC
      +                          T,
    48                           ; INCIDENTAL, SPECIAL, EXEMPLARY, OR CONSEQUENTIAL DAMAGES (INCLUDING BUT NOT LIMITED TO
    49                           ; PROCUREMENT OF SUBSTITUTE GOODS OR SERVICES; LOSS OF USE, DATA OR PROFITS; OR BUSINESS
    50                           ; INTERRUPTION) HOWSOEVER CAUSED AND ON ANY THEORY OF LIABILITY, WHETHER IN CONTRACT, ST
      +                          RICT
    51                           ; LIABILITY, OR TORT (INCLUDING NEGLIGENCE OR OTHERWISE) ARISING IN ANY WAY OUT OF THE U
      +                          SE OF
    52                           ; THIS SOFTWARE, EVEN IF ADVISED OF THE POSSIBILITY OF SUCH DAMAGE.
    53                           ; 
    54                           ; 
    55                           ; Code-generator required, PIC16F18855 Definitions
    56                           ; 
    57                           ; SFR Addresses
    58  0000                     	;# 
    59  0001                     	;# 
    60  0002                     	;# 
    61  0003                     	;# 
    62  0004                     	;# 
    63  0005                     	;# 
    64  0006                     	;# 
    65  0007                     	;# 
    66  0008                     	;# 
    67  0009                     	;# 
    68  000A                     	;# 
    69  000B                     	;# 
    70  000C                     	;# 
    71  000D                     	;# 
    72  000E                     	;# 
    73  0010                     	;# 
    74  0011                     	;# 
    75  0012                     	;# 
    76  0013                     	;# 
    77  0016                     	;# 
    78  0017                     	;# 
    79  0018                     	;# 
    80  001C                     	;# 
    81  001C                     	;# 
    82  001D                     	;# 
    83  001D                     	;# 
    84  001E                     	;# 
    85  001F                     	;# 
    86  008C                     	;# 
    87  008C                     	;# 
    88  008D                     	;# 
    89  008E                     	;# 
    90  008E                     	;# 
    91  008F                     	;# 
    92  0090                     	;# 
    93  0090                     	;# 
    94  0091                     	;# 
    95  0093                     	;# 
    96  0094                     	;# 
    97  0095                     	;# 
    98  0096                     	;# 
    99  0097                     	;# 
   100  0098                     	;# 
   101  0099                     	;# 
   102  009A                     	;# 
   103  009B                     	;# 
   104  009C                     	;# 
   105  009D                     	;# 
   106  009E                     	;# 
   107  010C                     	;# 
   108  010D                     	;# 
   109  010E                     	;# 
   110  010E                     	;# 
   111  010F                     	;# 
   112  0110                     	;# 
   113  0110                     	;# 
   114  0111                     	;# 
   115  0112                     	;# 
   116  0112                     	;# 
   117  0113                     	;# 
   118  0114                     	;# 
   119  0114                     	;# 
   120  0115                     	;# 
   121  0116                     	;# 
   122  0116                     	;# 
   123  0117                     	;# 
   124  0119                     	;# 
   125  0119                     	;# 
   126  0119                     	;# 
   127  011A                     	;# 
   128  011A                     	;# 
   129  011A                     	;# 
   130  011B                     	;# 
   131  011B                     	;# 
   132  011B                     	;# 
   133  011B                     	;# 
   134  011B                     	;# 
   135  011C                     	;# 
   136  011C                     	;# 
   137  011C                     	;# 
   138  011D                     	;# 
   139  011D                     	;# 
   140  011D                     	;# 
   141  011E                     	;# 
   142  011E                     	;# 
   143  011E                     	;# 
   144  011F                     	;# 
   145  011F                     	;# 
   146  011F                     	;# 
   147  011F                     	;# 
   148  011F                     	;# 
   149  018C                     	;# 
   150  018D                     	;# 
   151  018E                     	;# 
   152  018F                     	;# 
   153  0190                     	;# 
   154  0191                     	;# 
   155  0192                     	;# 
   156  0196                     	;# 
   157  0197                     	;# 
   158  0198                     	;# 
   159  0199                     	;# 
   160  019A                     	;# 
   161  019B                     	;# 
   162  019C                     	;# 
   163  020C                     	;# 
   164  020C                     	;# 
   165  020D                     	;# 
   166  020E                     	;# 
   167  020F                     	;# 
   168  020F                     	;# 
   169  0210                     	;# 
   170  0210                     	;# 
   171  0211                     	;# 
   172  0211                     	;# 
   173  0212                     	;# 
   174  0212                     	;# 
   175  0213                     	;# 
   176  0214                     	;# 
   177  0215                     	;# 
   178  0215                     	;# 
   179  0216                     	;# 
   180  0216                     	;# 
   181  0217                     	;# 
   182  0217                     	;# 
   183  0218                     	;# 
   184  0218                     	;# 
   185  0219                     	;# 
   186  021A                     	;# 
   187  021B                     	;# 
   188  021B                     	;# 
   189  021C                     	;# 
   190  021C                     	;# 
   191  021D                     	;# 
   192  021D                     	;# 
   193  021E                     	;# 
   194  021F                     	;# 
   195  028C                     	;# 
   196  028C                     	;# 
   197  028D                     	;# 
   198  028D                     	;# 
   199  028E                     	;# 
   200  028F                     	;# 
   201  0290                     	;# 
   202  0290                     	;# 
   203  0291                     	;# 
   204  0292                     	;# 
   205  0292                     	;# 
   206  0293                     	;# 
   207  0293                     	;# 
   208  0294                     	;# 
   209  0295                     	;# 
   210  0296                     	;# 
   211  0296                     	;# 
   212  0297                     	;# 
   213  0298                     	;# 
   214  0298                     	;# 
   215  0299                     	;# 
   216  0299                     	;# 
   217  029A                     	;# 
   218  029B                     	;# 
   219  029C                     	;# 
   220  029C                     	;# 
   221  029D                     	;# 
   222  030C                     	;# 
   223  030C                     	;# 
   224  030D                     	;# 
   225  030E                     	;# 
   226  030F                     	;# 
   227  0310                     	;# 
   228  0310                     	;# 
   229  0311                     	;# 
   230  0312                     	;# 
   231  0313                     	;# 
   232  0314                     	;# 
   233  0314                     	;# 
   234  0315                     	;# 
   235  0316                     	;# 
   236  0317                     	;# 
   237  0318                     	;# 
   238  0318                     	;# 
   239  0319                     	;# 
   240  031A                     	;# 
   241  031B                     	;# 
   242  031C                     	;# 
   243  031C                     	;# 
   244  031D                     	;# 
   245  031E                     	;# 
   246  031F                     	;# 
   247  038C                     	;# 
   248  038D                     	;# 
   249  038E                     	;# 
   250  0390                     	;# 
   251  0391                     	;# 
   252  0392                     	;# 
   253  040C                     	;# 
   254  040D                     	;# 
   255  040E                     	;# 
   256  040F                     	;# 
   257  0410                     	;# 
   258  0411                     	;# 
   259  0416                     	;# 
   260  0416                     	;# 
   261  0417                     	;# 
   262  0418                     	;# 
   263  0418                     	;# 
   264  0419                     	;# 
   265  041A                     	;# 
   266  041A                     	;# 
   267  041B                     	;# 
   268  041C                     	;# 
   269  041C                     	;# 
   270  041D                     	;# 
   271  041E                     	;# 
   272  041F                     	;# 
   273  048C                     	;# 
   274  048C                     	;# 
   275  048D                     	;# 
   276  048E                     	;# 
   277  048F                     	;# 
   278  048F                     	;# 
   279  0490                     	;# 
   280  0491                     	;# 
   281  0492                     	;# 
   282  0492                     	;# 
   283  0493                     	;# 
   284  0494                     	;# 
   285  0495                     	;# 
   286  0495                     	;# 
   287  0496                     	;# 
   288  0497                     	;# 
   289  0498                     	;# 
   290  0499                     	;# 
   291  049A                     	;# 
   292  049B                     	;# 
   293  049C                     	;# 
   294  049D                     	;# 
   295  050C                     	;# 
   296  050C                     	;# 
   297  050D                     	;# 
   298  050E                     	;# 
   299  050F                     	;# 
   300  050F                     	;# 
   301  0510                     	;# 
   302  0511                     	;# 
   303  0512                     	;# 
   304  0512                     	;# 
   305  0513                     	;# 
   306  0514                     	;# 
   307  0515                     	;# 
   308  0515                     	;# 
   309  0516                     	;# 
   310  0517                     	;# 
   311  0518                     	;# 
   312  0519                     	;# 
   313  051A                     	;# 
   314  051B                     	;# 
   315  051C                     	;# 
   316  051D                     	;# 
   317  058C                     	;# 
   318  058C                     	;# 
   319  058D                     	;# 
   320  058E                     	;# 
   321  058F                     	;# 
   322  058F                     	;# 
   323  0590                     	;# 
   324  0591                     	;# 
   325  0592                     	;# 
   326  0593                     	;# 
   327  060C                     	;# 
   328  060D                     	;# 
   329  060E                     	;# 
   330  060F                     	;# 
   331  0610                     	;# 
   332  0611                     	;# 
   333  0612                     	;# 
   334  0613                     	;# 
   335  0614                     	;# 
   336  0616                     	;# 
   337  0617                     	;# 
   338  0618                     	;# 
   339  0619                     	;# 
   340  061A                     	;# 
   341  061B                     	;# 
   342  061C                     	;# 
   343  061D                     	;# 
   344  061E                     	;# 
   345  068C                     	;# 
   346  068D                     	;# 
   347  068E                     	;# 
   348  068F                     	;# 
   349  0690                     	;# 
   350  0691                     	;# 
   351  0692                     	;# 
   352  0693                     	;# 
   353  0694                     	;# 
   354  070C                     	;# 
   355  070D                     	;# 
   356  070E                     	;# 
   357  070F                     	;# 
   358  0710                     	;# 
   359  0711                     	;# 
   360  0712                     	;# 
   361  0713                     	;# 
   362  0714                     	;# 
   363  0716                     	;# 
   364  0717                     	;# 
   365  0718                     	;# 
   366  0719                     	;# 
   367  071A                     	;# 
   368  071B                     	;# 
   369  071C                     	;# 
   370  071D                     	;# 
   371  071E                     	;# 
   372  0796                     	;# 
   373  0797                     	;# 
   374  0798                     	;# 
   375  0799                     	;# 
   376  079A                     	;# 
   377  079B                     	;# 
   378  080C                     	;# 
   379  080D                     	;# 
   380  080E                     	;# 
   381  080F                     	;# 
   382  0810                     	;# 
   383  0811                     	;# 
   384  0812                     	;# 
   385  0813                     	;# 
   386  0814                     	;# 
   387  081A                     	;# 
   388  081B                     	;# 
   389  081C                     	;# 
   390  081D                     	;# 
   391  081E                     	;# 
   392  081F                     	;# 
   393  088C                     	;# 
   394  088D                     	;# 
   395  088E                     	;# 
   396  088F                     	;# 
   397  0890                     	;# 
   398  0891                     	;# 
   399  0892                     	;# 
   400  0893                     	;# 
   401  0895                     	;# 
   402  0896                     	;# 
   403  0897                     	;# 
   404  0898                     	;# 
   405  0899                     	;# 
   406  089A                     	;# 
   407  089B                     	;# 
   408  090C                     	;# 
   409  090E                     	;# 
   410  090F                     	;# 
   411  091F                     	;# 
   412  091F                     	;# 
   413  098F                     	;# 
   414  098F                     	;# 
   415  0990                     	;# 
   416  0991                     	;# 
   417  0992                     	;# 
   418  0993                     	;# 
   419  0994                     	;# 
   420  0995                     	;# 
   421  0996                     	;# 
   422  0997                     	;# 
   423  0E0F                     	;# 
   424  0E10                     	;# 
   425  0E11                     	;# 
   426  0E12                     	;# 
   427  0E13                     	;# 
   428  0E14                     	;# 
   429  0E15                     	;# 
   430  0E16                     	;# 
   431  0E17                     	;# 
   432  0E18                     	;# 
   433  0E19                     	;# 
   434  0E1A                     	;# 
   435  0E1B                     	;# 
   436  0E1C                     	;# 
   437  0E1D                     	;# 
   438  0E1E                     	;# 
   439  0E1F                     	;# 
   440  0E20                     	;# 
   441  0E21                     	;# 
   442  0E22                     	;# 
   443  0E23                     	;# 
   444  0E24                     	;# 
   445  0E25                     	;# 
   446  0E26                     	;# 
   447  0E27                     	;# 
   448  0E28                     	;# 
   449  0E29                     	;# 
   450  0E2A                     	;# 
   451  0E2B                     	;# 
   452  0E2C                     	;# 
   453  0E2D                     	;# 
   454  0E2E                     	;# 
   455  0E2F                     	;# 
   456  0E30                     	;# 
   457  0E31                     	;# 
   458  0E32                     	;# 
   459  0E33                     	;# 
   460  0E34                     	;# 
   461  0E35                     	;# 
   462  0E36                     	;# 
   463  0E37                     	;# 
   464  0E8F                     	;# 
   465  0E90                     	;# 
   466  0E91                     	;# 
   467  0E92                     	;# 
   468  0E93                     	;# 
   469  0E94                     	;# 
   470  0E95                     	;# 
   471  0E96                     	;# 
   472  0E97                     	;# 
   473  0E9C                     	;# 
   474  0E9D                     	;# 
   475  0E9E                     	;# 
   476  0EA1                     	;# 
   477  0EA2                     	;# 
   478  0EA3                     	;# 
   479  0EA4                     	;# 
   480  0EA5                     	;# 
   481  0EA9                     	;# 
   482  0EAA                     	;# 
   483  0EAB                     	;# 
   484  0EAC                     	;# 
   485  0EB1                     	;# 
   486  0EB2                     	;# 
   487  0EB3                     	;# 
   488  0EB8                     	;# 
   489  0EB9                     	;# 
   490  0EBA                     	;# 
   491  0EBB                     	;# 
   492  0EBC                     	;# 
   493  0EBD                     	;# 
   494  0EBE                     	;# 
   495  0EC3                     	;# 
   496  0EC5                     	;# 
   497  0EC6                     	;# 
   498  0EC7                     	;# 
   499  0EC8                     	;# 
   500  0EC9                     	;# 
   501  0ECA                     	;# 
   502  0ECB                     	;# 
   503  0ECC                     	;# 
   504  0F10                     	;# 
   505  0F11                     	;# 
   506  0F12                     	;# 
   507  0F13                     	;# 
   508  0F14                     	;# 
   509  0F15                     	;# 
   510  0F16                     	;# 
   511  0F17                     	;# 
   512  0F18                     	;# 
   513  0F19                     	;# 
   514  0F1A                     	;# 
   515  0F1B                     	;# 
   516  0F1C                     	;# 
   517  0F1D                     	;# 
   518  0F1E                     	;# 
   519  0F1F                     	;# 
   520  0F20                     	;# 
   521  0F21                     	;# 
   522  0F22                     	;# 
   523  0F23                     	;# 
   524  0F24                     	;# 
   525  0F25                     	;# 
   526  0F26                     	;# 
   527  0F27                     	;# 
   528  0F38                     	;# 
   529  0F39                     	;# 
   530  0F3A                     	;# 
   531  0F3B                     	;# 
   532  0F3C                     	;# 
   533  0F3D                     	;# 
   534  0F3E                     	;# 
   535  0F3F                     	;# 
   536  0F40                     	;# 
   537  0F41                     	;# 
   538  0F43                     	;# 
   539  0F44                     	;# 
   540  0F45                     	;# 
   541  0F46                     	;# 
   542  0F47                     	;# 
   543  0F48                     	;# 
   544  0F49                     	;# 
   545  0F4A                     	;# 
   546  0F4B                     	;# 
   547  0F4C                     	;# 
   548  0F4E                     	;# 
   549  0F4F                     	;# 
   550  0F50                     	;# 
   551  0F51                     	;# 
   552  0F52                     	;# 
   553  0F53                     	;# 
   554  0F54                     	;# 
   555  0F55                     	;# 
   556  0F56                     	;# 
   557  0F57                     	;# 
   558  0F65                     	;# 
   559  0F68                     	;# 
   560  0F69                     	;# 
   561  0F6A                     	;# 
   562  0F6B                     	;# 
   563  0FE4                     	;# 
   564  0FE5                     	;# 
   565  0FE6                     	;# 
   566  0FE7                     	;# 
   567  0FE8                     	;# 
   568  0FE9                     	;# 
   569  0FEA                     	;# 
   570  0FEB                     	;# 
   571  0FED                     	;# 
   572  0FEE                     	;# 
   573  0FEF                     	;# 
   574  0000                     	;# 
   575  0001                     	;# 
   576  0002                     	;# 
   577  0003                     	;# 
   578  0004                     	;# 
   579  0005                     	;# 
   580  0006                     	;# 
   581  0007                     	;# 
   582  0008                     	;# 
   583  0009                     	;# 
   584  000A                     	;# 
   585  000B                     	;# 
   586  000C                     	;# 
   587  000D                     	;# 
   588  000E                     	;# 
   589  0010                     	;# 
   590  0011                     	;# 
   591  0012                     	;# 
   592  0013                     	;# 
   593  0016                     	;# 
   594  0017                     	;# 
   595  0018                     	;# 
   596  001C                     	;# 
   597  001C                     	;# 
   598  001D                     	;# 
   599  001D                     	;# 
   600  001E                     	;# 
   601  001F                     	;# 
   602  008C                     	;# 
   603  008C                     	;# 
   604  008D                     	;# 
   605  008E                     	;# 
   606  008E                     	;# 
   607  008F                     	;# 
   608  0090                     	;# 
   609  0090                     	;# 
   610  0091                     	;# 
   611  0093                     	;# 
   612  0094                     	;# 
   613  0095                     	;# 
   614  0096                     	;# 
   615  0097                     	;# 
   616  0098                     	;# 
   617  0099                     	;# 
   618  009A                     	;# 
   619  009B                     	;# 
   620  009C                     	;# 
   621  009D                     	;# 
   622  009E                     	;# 
   623  010C                     	;# 
   624  010D                     	;# 
   625  010E                     	;# 
   626  010E                     	;# 
   627  010F                     	;# 
   628  0110                     	;# 
   629  0110                     	;# 
   630  0111                     	;# 
   631  0112                     	;# 
   632  0112                     	;# 
   633  0113                     	;# 
   634  0114                     	;# 
   635  0114                     	;# 
   636  0115                     	;# 
   637  0116                     	;# 
   638  0116                     	;# 
   639  0117                     	;# 
   640  0119                     	;# 
   641  0119                     	;# 
   642  0119                     	;# 
   643  011A                     	;# 
   644  011A                     	;# 
   645  011A                     	;# 
   646  011B                     	;# 
   647  011B                     	;# 
   648  011B                     	;# 
   649  011B                     	;# 
   650  011B                     	;# 
   651  011C                     	;# 
   652  011C                     	;# 
   653  011C                     	;# 
   654  011D                     	;# 
   655  011D                     	;# 
   656  011D                     	;# 
   657  011E                     	;# 
   658  011E                     	;# 
   659  011E                     	;# 
   660  011F                     	;# 
   661  011F                     	;# 
   662  011F                     	;# 
   663  011F                     	;# 
   664  011F                     	;# 
   665  018C                     	;# 
   666  018D                     	;# 
   667  018E                     	;# 
   668  018F                     	;# 
   669  0190                     	;# 
   670  0191                     	;# 
   671  0192                     	;# 
   672  0196                     	;# 
   673  0197                     	;# 
   674  0198                     	;# 
   675  0199                     	;# 
   676  019A                     	;# 
   677  019B                     	;# 
   678  019C                     	;# 
   679  020C                     	;# 
   680  020C                     	;# 
   681  020D                     	;# 
   682  020E                     	;# 
   683  020F                     	;# 
   684  020F                     	;# 
   685  0210                     	;# 
   686  0210                     	;# 
   687  0211                     	;# 
   688  0211                     	;# 
   689  0212                     	;# 
   690  0212                     	;# 
   691  0213                     	;# 
   692  0214                     	;# 
   693  0215                     	;# 
   694  0215                     	;# 
   695  0216                     	;# 
   696  0216                     	;# 
   697  0217                     	;# 
   698  0217                     	;# 
   699  0218                     	;# 
   700  0218                     	;# 
   701  0219                     	;# 
   702  021A                     	;# 
   703  021B                     	;# 
   704  021B                     	;# 
   705  021C                     	;# 
   706  021C                     	;# 
   707  021D                     	;# 
   708  021D                     	;# 
   709  021E                     	;# 
   710  021F                     	;# 
   711  028C                     	;# 
   712  028C                     	;# 
   713  028D                     	;# 
   714  028D                     	;# 
   715  028E                     	;# 
   716  028F                     	;# 
   717  0290                     	;# 
   718  0290                     	;# 
   719  0291                     	;# 
   720  0292                     	;# 
   721  0292                     	;# 
   722  0293                     	;# 
   723  0293                     	;# 
   724  0294                     	;# 
   725  0295                     	;# 
   726  0296                     	;# 
   727  0296                     	;# 
   728  0297                     	;# 
   729  0298                     	;# 
   730  0298                     	;# 
   731  0299                     	;# 
   732  0299                     	;# 
   733  029A                     	;# 
   734  029B                     	;# 
   735  029C                     	;# 
   736  029C                     	;# 
   737  029D                     	;# 
   738  030C                     	;# 
   739  030C                     	;# 
   740  030D                     	;# 
   741  030E                     	;# 
   742  030F                     	;# 
   743  0310                     	;# 
   744  0310                     	;# 
   745  0311                     	;# 
   746  0312                     	;# 
   747  0313                     	;# 
   748  0314                     	;# 
   749  0314                     	;# 
   750  0315                     	;# 
   751  0316                     	;# 
   752  0317                     	;# 
   753  0318                     	;# 
   754  0318                     	;# 
   755  0319                     	;# 
   756  031A                     	;# 
   757  031B                     	;# 
   758  031C                     	;# 
   759  031C                     	;# 
   760  031D                     	;# 
   761  031E                     	;# 
   762  031F                     	;# 
   763  038C                     	;# 
   764  038D                     	;# 
   765  038E                     	;# 
   766  0390                     	;# 
   767  0391                     	;# 
   768  0392                     	;# 
   769  040C                     	;# 
   770  040D                     	;# 
   771  040E                     	;# 
   772  040F                     	;# 
   773  0410                     	;# 
   774  0411                     	;# 
   775  0416                     	;# 
   776  0416                     	;# 
   777  0417                     	;# 
   778  0418                     	;# 
   779  0418                     	;# 
   780  0419                     	;# 
   781  041A                     	;# 
   782  041A                     	;# 
   783  041B                     	;# 
   784  041C                     	;# 
   785  041C                     	;# 
   786  041D                     	;# 
   787  041E                     	;# 
   788  041F                     	;# 
   789  048C                     	;# 
   790  048C                     	;# 
   791  048D                     	;# 
   792  048E                     	;# 
   793  048F                     	;# 
   794  048F                     	;# 
   795  0490                     	;# 
   796  0491                     	;# 
   797  0492                     	;# 
   798  0492                     	;# 
   799  0493                     	;# 
   800  0494                     	;# 
   801  0495                     	;# 
   802  0495                     	;# 
   803  0496                     	;# 
   804  0497                     	;# 
   805  0498                     	;# 
   806  0499                     	;# 
   807  049A                     	;# 
   808  049B                     	;# 
   809  049C                     	;# 
   810  049D                     	;# 
   811  050C                     	;# 
   812  050C                     	;# 
   813  050D                     	;# 
   814  050E                     	;# 
   815  050F                     	;# 
   816  050F                     	;# 
   817  0510                     	;# 
   818  0511                     	;# 
   819  0512                     	;# 
   820  0512                     	;# 
   821  0513                     	;# 
   822  0514                     	;# 
   823  0515                     	;# 
   824  0515                     	;# 
   825  0516                     	;# 
   826  0517                     	;# 
   827  0518                     	;# 
   828  0519                     	;# 
   829  051A                     	;# 
   830  051B                     	;# 
   831  051C                     	;# 
   832  051D                     	;# 
   833  058C                     	;# 
   834  058C                     	;# 
   835  058D                     	;# 
   836  058E                     	;# 
   837  058F                     	;# 
   838  058F                     	;# 
   839  0590                     	;# 
   840  0591                     	;# 
   841  0592                     	;# 
   842  0593                     	;# 
   843  060C                     	;# 
   844  060D                     	;# 
   845  060E                     	;# 
   846  060F                     	;# 
   847  0610                     	;# 
   848  0611                     	;# 
   849  0612                     	;# 
   850  0613                     	;# 
   851  0614                     	;# 
   852  0616                     	;# 
   853  0617                     	;# 
   854  0618                     	;# 
   855  0619                     	;# 
   856  061A                     	;# 
   857  061B                     	;# 
   858  061C                     	;# 
   859  061D                     	;# 
   860  061E                     	;# 
   861  068C                     	;# 
   862  068D                     	;# 
   863  068E                     	;# 
   864  068F                     	;# 
   865  0690                     	;# 
   866  0691                     	;# 
   867  0692                     	;# 
   868  0693                     	;# 
   869  0694                     	;# 
   870  070C                     	;# 
   871  070D                     	;# 
   872  070E                     	;# 
   873  070F                     	;# 
   874  0710                     	;# 
   875  0711                     	;# 
   876  0712                     	;# 
   877  0713                     	;# 
   878  0714                     	;# 
   879  0716                     	;# 
   880  0717                     	;# 
   881  0718                     	;# 
   882  0719                     	;# 
   883  071A                     	;# 
   884  071B                     	;# 
   885  071C                     	;# 
   886  071D                     	;# 
   887  071E                     	;# 
   888  0796                     	;# 
   889  0797                     	;# 
   890  0798                     	;# 
   891  0799                     	;# 
   892  079A                     	;# 
   893  079B                     	;# 
   894  080C                     	;# 
   895  080D                     	;# 
   896  080E                     	;# 
   897  080F                     	;# 
   898  0810                     	;# 
   899  0811                     	;# 
   900  0812                     	;# 
   901  0813                     	;# 
   902  0814                     	;# 
   903  081A                     	;# 
   904  081B                     	;# 
   905  081C                     	;# 
   906  081D                     	;# 
   907  081E                     	;# 
   908  081F                     	;# 
   909  088C                     	;# 
   910  088D                     	;# 
   911  088E                     	;# 
   912  088F                     	;# 
   913  0890                     	;# 
   914  0891                     	;# 
   915  0892                     	;# 
   916  0893                     	;# 
   917  0895                     	;# 
   918  0896                     	;# 
   919  0897                     	;# 
   920  0898                     	;# 
   921  0899                     	;# 
   922  089A                     	;# 
   923  089B                     	;# 
   924  090C                     	;# 
   925  090E                     	;# 
   926  090F                     	;# 
   927  091F                     	;# 
   928  091F                     	;# 
   929  098F                     	;# 
   930  098F                     	;# 
   931  0990                     	;# 
   932  0991                     	;# 
   933  0992                     	;# 
   934  0993                     	;# 
   935  0994                     	;# 
   936  0995                     	;# 
   937  0996                     	;# 
   938  0997                     	;# 
   939  0E0F                     	;# 
   940  0E10                     	;# 
   941  0E11                     	;# 
   942  0E12                     	;# 
   943  0E13                     	;# 
   944  0E14                     	;# 
   945  0E15                     	;# 
   946  0E16                     	;# 
   947  0E17                     	;# 
   948  0E18                     	;# 
   949  0E19                     	;# 
   950  0E1A                     	;# 
   951  0E1B                     	;# 
   952  0E1C                     	;# 
   953  0E1D                     	;# 
   954  0E1E                     	;# 
   955  0E1F                     	;# 
   956  0E20                     	;# 
   957  0E21                     	;# 
   958  0E22                     	;# 
   959  0E23                     	;# 
   960  0E24                     	;# 
   961  0E25                     	;# 
   962  0E26                     	;# 
   963  0E27                     	;# 
   964  0E28                     	;# 
   965  0E29                     	;# 
   966  0E2A                     	;# 
   967  0E2B                     	;# 
   968  0E2C                     	;# 
   969  0E2D                     	;# 
   970  0E2E                     	;# 
   971  0E2F                     	;# 
   972  0E30                     	;# 
   973  0E31                     	;# 
   974  0E32                     	;# 
   975  0E33                     	;# 
   976  0E34                     	;# 
   977  0E35                     	;# 
   978  0E36                     	;# 
   979  0E37                     	;# 
   980  0E8F                     	;# 
   981  0E90                     	;# 
   982  0E91                     	;# 
   983  0E92                     	;# 
   984  0E93                     	;# 
   985  0E94                     	;# 
   986  0E95                     	;# 
   987  0E96                     	;# 
   988  0E97                     	;# 
   989  0E9C                     	;# 
   990  0E9D                     	;# 
   991  0E9E                     	;# 
   992  0EA1                     	;# 
   993  0EA2                     	;# 
   994  0EA3                     	;# 
   995  0EA4                     	;# 
   996  0EA5                     	;# 
   997  0EA9                     	;# 
   998  0EAA                     	;# 
   999  0EAB                     	;# 
  1000  0EAC                     	;# 
  1001  0EB1                     	;# 
  1002  0EB2                     	;# 
  1003  0EB3                     	;# 
  1004  0EB8                     	;# 
  1005  0EB9                     	;# 
  1006  0EBA                     	;# 
  1007  0EBB                     	;# 
  1008  0EBC                     	;# 
  1009  0EBD                     	;# 
  1010  0EBE                     	;# 
  1011  0EC3                     	;# 
  1012  0EC5                     	;# 
  1013  0EC6                     	;# 
  1014  0EC7                     	;# 
  1015  0EC8                     	;# 
  1016  0EC9                     	;# 
  1017  0ECA                     	;# 
  1018  0ECB                     	;# 
  1019  0ECC                     	;# 
  1020  0F10                     	;# 
  1021  0F11                     	;# 
  1022  0F12                     	;# 
  1023  0F13                     	;# 
  1024  0F14                     	;# 
  1025  0F15                     	;# 
  1026  0F16                     	;# 
  1027  0F17                     	;# 
  1028  0F18                     	;# 
  1029  0F19                     	;# 
  1030  0F1A                     	;# 
  1031  0F1B                     	;# 
  1032  0F1C                     	;# 
  1033  0F1D                     	;# 
  1034  0F1E                     	;# 
  1035  0F1F                     	;# 
  1036  0F20                     	;# 
  1037  0F21                     	;# 
  1038  0F22                     	;# 
  1039  0F23                     	;# 
  1040  0F24                     	;# 
  1041  0F25                     	;# 
  1042  0F26                     	;# 
  1043  0F27                     	;# 
  1044  0F38                     	;# 
  1045  0F39                     	;# 
  1046  0F3A                     	;# 
  1047  0F3B                     	;# 
  1048  0F3C                     	;# 
  1049  0F3D                     	;# 
  1050  0F3E                     	;# 
  1051  0F3F                     	;# 
  1052  0F40                     	;# 
  1053  0F41                     	;# 
  1054  0F43                     	;# 
  1055  0F44                     	;# 
  1056  0F45                     	;# 
  1057  0F46                     	;# 
  1058  0F47                     	;# 
  1059  0F48                     	;# 
  1060  0F49                     	;# 
  1061  0F4A                     	;# 
  1062  0F4B                     	;# 
  1063  0F4C                     	;# 
  1064  0F4E                     	;# 
  1065  0F4F                     	;# 
  1066  0F50                     	;# 
  1067  0F51                     	;# 
  1068  0F52                     	;# 
  1069  0F53                     	;# 
  1070  0F54                     	;# 
  1071  0F55                     	;# 
  1072  0F56                     	;# 
  1073  0F57                     	;# 
  1074  0F65                     	;# 
  1075  0F68                     	;# 
  1076  0F69                     	;# 
  1077  0F6A                     	;# 
  1078  0F6B                     	;# 
  1079  0FE4                     	;# 
  1080  0FE5                     	;# 
  1081  0FE6                     	;# 
  1082  0FE7                     	;# 
  1083  0FE8                     	;# 
  1084  0FE9                     	;# 
  1085  0FEA                     	;# 
  1086  0FEB                     	;# 
  1087  0FED                     	;# 
  1088  0FEE                     	;# 
  1089  0FEF                     	;# 
  1090  0000                     	;# 
  1091  0001                     	;# 
  1092  0002                     	;# 
  1093  0003                     	;# 
  1094  0004                     	;# 
  1095  0005                     	;# 
  1096  0006                     	;# 
  1097  0007                     	;# 
  1098  0008                     	;# 
  1099  0009                     	;# 
  1100  000A                     	;# 
  1101  000B                     	;# 
  1102  000C                     	;# 
  1103  000D                     	;# 
  1104  000E                     	;# 
  1105  0010                     	;# 
  1106  0011                     	;# 
  1107  0012                     	;# 
  1108  0013                     	;# 
  1109  0016                     	;# 
  1110  0017                     	;# 
  1111  0018                     	;# 
  1112  001C                     	;# 
  1113  001C                     	;# 
  1114  001D                     	;# 
  1115  001D                     	;# 
  1116  001E                     	;# 
  1117  001F                     	;# 
  1118  008C                     	;# 
  1119  008C                     	;# 
  1120  008D                     	;# 
  1121  008E                     	;# 
  1122  008E                     	;# 
  1123  008F                     	;# 
  1124  0090                     	;# 
  1125  0090                     	;# 
  1126  0091                     	;# 
  1127  0093                     	;# 
  1128  0094                     	;# 
  1129  0095                     	;# 
  1130  0096                     	;# 
  1131  0097                     	;# 
  1132  0098                     	;# 
  1133  0099                     	;# 
  1134  009A                     	;# 
  1135  009B                     	;# 
  1136  009C                     	;# 
  1137  009D                     	;# 
  1138  009E                     	;# 
  1139  010C                     	;# 
  1140  010D                     	;# 
  1141  010E                     	;# 
  1142  010E                     	;# 
  1143  010F                     	;# 
  1144  0110                     	;# 
  1145  0110                     	;# 
  1146  0111                     	;# 
  1147  0112                     	;# 
  1148  0112                     	;# 
  1149  0113                     	;# 
  1150  0114                     	;# 
  1151  0114                     	;# 
  1152  0115                     	;# 
  1153  0116                     	;# 
  1154  0116                     	;# 
  1155  0117                     	;# 
  1156  0119                     	;# 
  1157  0119                     	;# 
  1158  0119                     	;# 
  1159  011A                     	;# 
  1160  011A                     	;# 
  1161  011A                     	;# 
  1162  011B                     	;# 
  1163  011B                     	;# 
  1164  011B                     	;# 
  1165  011B                     	;# 
  1166  011B                     	;# 
  1167  011C                     	;# 
  1168  011C                     	;# 
  1169  011C                     	;# 
  1170  011D                     	;# 
  1171  011D                     	;# 
  1172  011D                     	;# 
  1173  011E                     	;# 
  1174  011E                     	;# 
  1175  011E                     	;# 
  1176  011F                     	;# 
  1177  011F                     	;# 
  1178  011F                     	;# 
  1179  011F                     	;# 
  1180  011F                     	;# 
  1181  018C                     	;# 
  1182  018D                     	;# 
  1183  018E                     	;# 
  1184  018F                     	;# 
  1185  0190                     	;# 
  1186  0191                     	;# 
  1187  0192                     	;# 
  1188  0196                     	;# 
  1189  0197                     	;# 
  1190  0198                     	;# 
  1191  0199                     	;# 
  1192  019A                     	;# 
  1193  019B                     	;# 
  1194  019C                     	;# 
  1195  020C                     	;# 
  1196  020C                     	;# 
  1197  020D                     	;# 
  1198  020E                     	;# 
  1199  020F                     	;# 
  1200  020F                     	;# 
  1201  0210                     	;# 
  1202  0210                     	;# 
  1203  0211                     	;# 
  1204  0211                     	;# 
  1205  0212                     	;# 
  1206  0212                     	;# 
  1207  0213                     	;# 
  1208  0214                     	;# 
  1209  0215                     	;# 
  1210  0215                     	;# 
  1211  0216                     	;# 
  1212  0216                     	;# 
  1213  0217                     	;# 
  1214  0217                     	;# 
  1215  0218                     	;# 
  1216  0218                     	;# 
  1217  0219                     	;# 
  1218  021A                     	;# 
  1219  021B                     	;# 
  1220  021B                     	;# 
  1221  021C                     	;# 
  1222  021C                     	;# 
  1223  021D                     	;# 
  1224  021D                     	;# 
  1225  021E                     	;# 
  1226  021F                     	;# 
  1227  028C                     	;# 
  1228  028C                     	;# 
  1229  028D                     	;# 
  1230  028D                     	;# 
  1231  028E                     	;# 
  1232  028F                     	;# 
  1233  0290                     	;# 
  1234  0290                     	;# 
  1235  0291                     	;# 
  1236  0292                     	;# 
  1237  0292                     	;# 
  1238  0293                     	;# 
  1239  0293                     	;# 
  1240  0294                     	;# 
  1241  0295                     	;# 
  1242  0296                     	;# 
  1243  0296                     	;# 
  1244  0297                     	;# 
  1245  0298                     	;# 
  1246  0298                     	;# 
  1247  0299                     	;# 
  1248  0299                     	;# 
  1249  029A                     	;# 
  1250  029B                     	;# 
  1251  029C                     	;# 
  1252  029C                     	;# 
  1253  029D                     	;# 
  1254  030C                     	;# 
  1255  030C                     	;# 
  1256  030D                     	;# 
  1257  030E                     	;# 
  1258  030F                     	;# 
  1259  0310                     	;# 
  1260  0310                     	;# 
  1261  0311                     	;# 
  1262  0312                     	;# 
  1263  0313                     	;# 
  1264  0314                     	;# 
  1265  0314                     	;# 
  1266  0315                     	;# 
  1267  0316                     	;# 
  1268  0317                     	;# 
  1269  0318                     	;# 
  1270  0318                     	;# 
  1271  0319                     	;# 
  1272  031A                     	;# 
  1273  031B                     	;# 
  1274  031C                     	;# 
  1275  031C                     	;# 
  1276  031D                     	;# 
  1277  031E                     	;# 
  1278  031F                     	;# 
  1279  038C                     	;# 
  1280  038D                     	;# 
  1281  038E                     	;# 
  1282  0390                     	;# 
  1283  0391                     	;# 
  1284  0392                     	;# 
  1285  040C                     	;# 
  1286  040D                     	;# 
  1287  040E                     	;# 
  1288  040F                     	;# 
  1289  0410                     	;# 
  1290  0411                     	;# 
  1291  0416                     	;# 
  1292  0416                     	;# 
  1293  0417                     	;# 
  1294  0418                     	;# 
  1295  0418                     	;# 
  1296  0419                     	;# 
  1297  041A                     	;# 
  1298  041A                     	;# 
  1299  041B                     	;# 
  1300  041C                     	;# 
  1301  041C                     	;# 
  1302  041D                     	;# 
  1303  041E                     	;# 
  1304  041F                     	;# 
  1305  048C                     	;# 
  1306  048C                     	;# 
  1307  048D                     	;# 
  1308  048E                     	;# 
  1309  048F                     	;# 
  1310  048F                     	;# 
  1311  0490                     	;# 
  1312  0491                     	;# 
  1313  0492                     	;# 
  1314  0492                     	;# 
  1315  0493                     	;# 
  1316  0494                     	;# 
  1317  0495                     	;# 
  1318  0495                     	;# 
  1319  0496                     	;# 
  1320  0497                     	;# 
  1321  0498                     	;# 
  1322  0499                     	;# 
  1323  049A                     	;# 
  1324  049B                     	;# 
  1325  049C                     	;# 
  1326  049D                     	;# 
  1327  050C                     	;# 
  1328  050C                     	;# 
  1329  050D                     	;# 
  1330  050E                     	;# 
  1331  050F                     	;# 
  1332  050F                     	;# 
  1333  0510                     	;# 
  1334  0511                     	;# 
  1335  0512                     	;# 
  1336  0512                     	;# 
  1337  0513                     	;# 
  1338  0514                     	;# 
  1339  0515                     	;# 
  1340  0515                     	;# 
  1341  0516                     	;# 
  1342  0517                     	;# 
  1343  0518                     	;# 
  1344  0519                     	;# 
  1345  051A                     	;# 
  1346  051B                     	;# 
  1347  051C                     	;# 
  1348  051D                     	;# 
  1349  058C                     	;# 
  1350  058C                     	;# 
  1351  058D                     	;# 
  1352  058E                     	;# 
  1353  058F                     	;# 
  1354  058F                     	;# 
  1355  0590                     	;# 
  1356  0591                     	;# 
  1357  0592                     	;# 
  1358  0593                     	;# 
  1359  060C                     	;# 
  1360  060D                     	;# 
  1361  060E                     	;# 
  1362  060F                     	;# 
  1363  0610                     	;# 
  1364  0611                     	;# 
  1365  0612                     	;# 
  1366  0613                     	;# 
  1367  0614                     	;# 
  1368  0616                     	;# 
  1369  0617                     	;# 
  1370  0618                     	;# 
  1371  0619                     	;# 
  1372  061A                     	;# 
  1373  061B                     	;# 
  1374  061C                     	;# 
  1375  061D                     	;# 
  1376  061E                     	;# 
  1377  068C                     	;# 
  1378  068D                     	;# 
  1379  068E                     	;# 
  1380  068F                     	;# 
  1381  0690                     	;# 
  1382  0691                     	;# 
  1383  0692                     	;# 
  1384  0693                     	;# 
  1385  0694                     	;# 
  1386  070C                     	;# 
  1387  070D                     	;# 
  1388  070E                     	;# 
  1389  070F                     	;# 
  1390  0710                     	;# 
  1391  0711                     	;# 
  1392  0712                     	;# 
  1393  0713                     	;# 
  1394  0714                     	;# 
  1395  0716                     	;# 
  1396  0717                     	;# 
  1397  0718                     	;# 
  1398  0719                     	;# 
  1399  071A                     	;# 
  1400  071B                     	;# 
  1401  071C                     	;# 
  1402  071D                     	;# 
  1403  071E                     	;# 
  1404  0796                     	;# 
  1405  0797                     	;# 
  1406  0798                     	;# 
  1407  0799                     	;# 
  1408  079A                     	;# 
  1409  079B                     	;# 
  1410  080C                     	;# 
  1411  080D                     	;# 
  1412  080E                     	;# 
  1413  080F                     	;# 
  1414  0810                     	;# 
  1415  0811                     	;# 
  1416  0812                     	;# 
  1417  0813                     	;# 
  1418  0814                     	;# 
  1419  081A                     	;# 
  1420  081B                     	;# 
  1421  081C                     	;# 
  1422  081D                     	;# 
  1423  081E                     	;# 
  1424  081F                     	;# 
  1425  088C                     	;# 
  1426  088D                     	;# 
  1427  088E                     	;# 
  1428  088F                     	;# 
  1429  0890                     	;# 
  1430  0891                     	;# 
  1431  0892                     	;# 
  1432  0893                     	;# 
  1433  0895                     	;# 
  1434  0896                     	;# 
  1435  0897                     	;# 
  1436  0898                     	;# 
  1437  0899                     	;# 
  1438  089A                     	;# 
  1439  089B                     	;# 
  1440  090C                     	;# 
  1441  090E                     	;# 
  1442  090F                     	;# 
  1443  091F                     	;# 
  1444  091F                     	;# 
  1445  098F                     	;# 
  1446  098F                     	;# 
  1447  0990                     	;# 
  1448  0991                     	;# 
  1449  0992                     	;# 
  1450  0993                     	;# 
  1451  0994                     	;# 
  1452  0995                     	;# 
  1453  0996                     	;# 
  1454  0997                     	;# 
  1455  0E0F                     	;# 
  1456  0E10                     	;# 
  1457  0E11                     	;# 
  1458  0E12                     	;# 
  1459  0E13                     	;# 
  1460  0E14                     	;# 
  1461  0E15                     	;# 
  1462  0E16                     	;# 
  1463  0E17                     	;# 
  1464  0E18                     	;# 
  1465  0E19                     	;# 
  1466  0E1A                     	;# 
  1467  0E1B                     	;# 
  1468  0E1C                     	;# 
  1469  0E1D                     	;# 
  1470  0E1E                     	;# 
  1471  0E1F                     	;# 
  1472  0E20                     	;# 
  1473  0E21                     	;# 
  1474  0E22                     	;# 
  1475  0E23                     	;# 
  1476  0E24                     	;# 
  1477  0E25                     	;# 
  1478  0E26                     	;# 
  1479  0E27                     	;# 
  1480  0E28                     	;# 
  1481  0E29                     	;# 
  1482  0E2A                     	;# 
  1483  0E2B                     	;# 
  1484  0E2C                     	;# 
  1485  0E2D                     	;# 
  1486  0E2E                     	;# 
  1487  0E2F                     	;# 
  1488  0E30                     	;# 
  1489  0E31                     	;# 
  1490  0E32                     	;# 
  1491  0E33                     	;# 
  1492  0E34                     	;# 
  1493  0E35                     	;# 
  1494  0E36                     	;# 
  1495  0E37                     	;# 
  1496  0E8F                     	;# 
  1497  0E90                     	;# 
  1498  0E91                     	;# 
  1499  0E92                     	;# 
  1500  0E93                     	;# 
  1501  0E94                     	;# 
  1502  0E95                     	;# 
  1503  0E96                     	;# 
  1504  0E97                     	;# 
  1505  0E9C                     	;# 
  1506  0E9D                     	;# 
  1507  0E9E                     	;# 
  1508  0EA1                     	;# 
  1509  0EA2                     	;# 
  1510  0EA3                     	;# 
  1511  0EA4                     	;# 
  1512  0EA5                     	;# 
  1513  0EA9                     	;# 
  1514  0EAA                     	;# 
  1515  0EAB                     	;# 
  1516  0EAC                     	;# 
  1517  0EB1                     	;# 
  1518  0EB2                     	;# 
  1519  0EB3                     	;# 
  1520  0EB8                     	;# 
  1521  0EB9                     	;# 
  1522  0EBA                     	;# 
  1523  0EBB                     	;# 
  1524  0EBC                     	;# 
  1525  0EBD                     	;# 
  1526  0EBE                     	;# 
  1527  0EC3                     	;# 
  1528  0EC5                     	;# 
  1529  0EC6                     	;# 
  1530  0EC7                     	;# 
  1531  0EC8                     	;# 
  1532  0EC9                     	;# 
  1533  0ECA                     	;# 
  1534  0ECB                     	;# 
  1535  0ECC                     	;# 
  1536  0F10                     	;# 
  1537  0F11                     	;# 
  1538  0F12                     	;# 
  1539  0F13                     	;# 
  1540  0F14                     	;# 
  1541  0F15                     	;# 
  1542  0F16                     	;# 
  1543  0F17                     	;# 
  1544  0F18                     	;# 
  1545  0F19                     	;# 
  1546  0F1A                     	;# 
  1547  0F1B                     	;# 
  1548  0F1C                     	;# 
  1549  0F1D                     	;# 
  1550  0F1E                     	;# 
  1551  0F1F                     	;# 
  1552  0F20                     	;# 
  1553  0F21                     	;# 
  1554  0F22                     	;# 
  1555  0F23                     	;# 
  1556  0F24                     	;# 
  1557  0F25                     	;# 
  1558  0F26                     	;# 
  1559  0F27                     	;# 
  1560  0F38                     	;# 
  1561  0F39                     	;# 
  1562  0F3A                     	;# 
  1563  0F3B                     	;# 
  1564  0F3C                     	;# 
  1565  0F3D                     	;# 
  1566  0F3E                     	;# 
  1567  0F3F                     	;# 
  1568  0F40                     	;# 
  1569  0F41                     	;# 
  1570  0F43                     	;# 
  1571  0F44                     	;# 
  1572  0F45                     	;# 
  1573  0F46                     	;# 
  1574  0F47                     	;# 
  1575  0F48                     	;# 
  1576  0F49                     	;# 
  1577  0F4A                     	;# 
  1578  0F4B                     	;# 
  1579  0F4C                     	;# 
  1580  0F4E                     	;# 
  1581  0F4F                     	;# 
  1582  0F50                     	;# 
  1583  0F51                     	;# 
  1584  0F52                     	;# 
  1585  0F53                     	;# 
  1586  0F54                     	;# 
  1587  0F55                     	;# 
  1588  0F56                     	;# 
  1589  0F57                     	;# 
  1590  0F65                     	;# 
  1591  0F68                     	;# 
  1592  0F69                     	;# 
  1593  0F6A                     	;# 
  1594  0F6B                     	;# 
  1595  0FE4                     	;# 
  1596  0FE5                     	;# 
  1597  0FE6                     	;# 
  1598  0FE7                     	;# 
  1599  0FE8                     	;# 
  1600  0FE9                     	;# 
  1601  0FEA                     	;# 
  1602  0FEB                     	;# 
  1603  0FED                     	;# 
  1604  0FEE                     	;# 
  1605  0FEF                     	;# 
  1606  0000                     	;# 
  1607  0001                     	;# 
  1608  0002                     	;# 
  1609  0003                     	;# 
  1610  0004                     	;# 
  1611  0005                     	;# 
  1612  0006                     	;# 
  1613  0007                     	;# 
  1614  0008                     	;# 
  1615  0009                     	;# 
  1616  000A                     	;# 
  1617  000B                     	;# 
  1618  000C                     	;# 
  1619  000D                     	;# 
  1620  000E                     	;# 
  1621  0010                     	;# 
  1622  0011                     	;# 
  1623  0012                     	;# 
  1624  0013                     	;# 
  1625  0016                     	;# 
  1626  0017                     	;# 
  1627  0018                     	;# 
  1628  001C                     	;# 
  1629  001C                     	;# 
  1630  001D                     	;# 
  1631  001D                     	;# 
  1632  001E                     	;# 
  1633  001F                     	;# 
  1634  008C                     	;# 
  1635  008C                     	;# 
  1636  008D                     	;# 
  1637  008E                     	;# 
  1638  008E                     	;# 
  1639  008F                     	;# 
  1640  0090                     	;# 
  1641  0090                     	;# 
  1642  0091                     	;# 
  1643  0093                     	;# 
  1644  0094                     	;# 
  1645  0095                     	;# 
  1646  0096                     	;# 
  1647  0097                     	;# 
  1648  0098                     	;# 
  1649  0099                     	;# 
  1650  009A                     	;# 
  1651  009B                     	;# 
  1652  009C                     	;# 
  1653  009D                     	;# 
  1654  009E                     	;# 
  1655  010C                     	;# 
  1656  010D                     	;# 
  1657  010E                     	;# 
  1658  010E                     	;# 
  1659  010F                     	;# 
  1660  0110                     	;# 
  1661  0110                     	;# 
  1662  0111                     	;# 
  1663  0112                     	;# 
  1664  0112                     	;# 
  1665  0113                     	;# 
  1666  0114                     	;# 
  1667  0114                     	;# 
  1668  0115                     	;# 
  1669  0116                     	;# 
  1670  0116                     	;# 
  1671  0117                     	;# 
  1672  0119                     	;# 
  1673  0119                     	;# 
  1674  0119                     	;# 
  1675  011A                     	;# 
  1676  011A                     	;# 
  1677  011A                     	;# 
  1678  011B                     	;# 
  1679  011B                     	;# 
  1680  011B                     	;# 
  1681  011B                     	;# 
  1682  011B                     	;# 
  1683  011C                     	;# 
  1684  011C                     	;# 
  1685  011C                     	;# 
  1686  011D                     	;# 
  1687  011D                     	;# 
  1688  011D                     	;# 
  1689  011E                     	;# 
  1690  011E                     	;# 
  1691  011E                     	;# 
  1692  011F                     	;# 
  1693  011F                     	;# 
  1694  011F                     	;# 
  1695  011F                     	;# 
  1696  011F                     	;# 
  1697  018C                     	;# 
  1698  018D                     	;# 
  1699  018E                     	;# 
  1700  018F                     	;# 
  1701  0190                     	;# 
  1702  0191                     	;# 
  1703  0192                     	;# 
  1704  0196                     	;# 
  1705  0197                     	;# 
  1706  0198                     	;# 
  1707  0199                     	;# 
  1708  019A                     	;# 
  1709  019B                     	;# 
  1710  019C                     	;# 
  1711  020C                     	;# 
  1712  020C                     	;# 
  1713  020D                     	;# 
  1714  020E                     	;# 
  1715  020F                     	;# 
  1716  020F                     	;# 
  1717  0210                     	;# 
  1718  0210                     	;# 
  1719  0211                     	;# 
  1720  0211                     	;# 
  1721  0212                     	;# 
  1722  0212                     	;# 
  1723  0213                     	;# 
  1724  0214                     	;# 
  1725  0215                     	;# 
  1726  0215                     	;# 
  1727  0216                     	;# 
  1728  0216                     	;# 
  1729  0217                     	;# 
  1730  0217                     	;# 
  1731  0218                     	;# 
  1732  0218                     	;# 
  1733  0219                     	;# 
  1734  021A                     	;# 
  1735  021B                     	;# 
  1736  021B                     	;# 
  1737  021C                     	;# 
  1738  021C                     	;# 
  1739  021D                     	;# 
  1740  021D                     	;# 
  1741  021E                     	;# 
  1742  021F                     	;# 
  1743  028C                     	;# 
  1744  028C                     	;# 
  1745  028D                     	;# 
  1746  028D                     	;# 
  1747  028E                     	;# 
  1748  028F                     	;# 
  1749  0290                     	;# 
  1750  0290                     	;# 
  1751  0291                     	;# 
  1752  0292                     	;# 
  1753  0292                     	;# 
  1754  0293                     	;# 
  1755  0293                     	;# 
  1756  0294                     	;# 
  1757  0295                     	;# 
  1758  0296                     	;# 
  1759  0296                     	;# 
  1760  0297                     	;# 
  1761  0298                     	;# 
  1762  0298                     	;# 
  1763  0299                     	;# 
  1764  0299                     	;# 
  1765  029A                     	;# 
  1766  029B                     	;# 
  1767  029C                     	;# 
  1768  029C                     	;# 
  1769  029D                     	;# 
  1770  030C                     	;# 
  1771  030C                     	;# 
  1772  030D                     	;# 
  1773  030E                     	;# 
  1774  030F                     	;# 
  1775  0310                     	;# 
  1776  0310                     	;# 
  1777  0311                     	;# 
  1778  0312                     	;# 
  1779  0313                     	;# 
  1780  0314                     	;# 
  1781  0314                     	;# 
  1782  0315                     	;# 
  1783  0316                     	;# 
  1784  0317                     	;# 
  1785  0318                     	;# 
  1786  0318                     	;# 
  1787  0319                     	;# 
  1788  031A                     	;# 
  1789  031B                     	;# 
  1790  031C                     	;# 
  1791  031C                     	;# 
  1792  031D                     	;# 
  1793  031E                     	;# 
  1794  031F                     	;# 
  1795  038C                     	;# 
  1796  038D                     	;# 
  1797  038E                     	;# 
  1798  0390                     	;# 
  1799  0391                     	;# 
  1800  0392                     	;# 
  1801  040C                     	;# 
  1802  040D                     	;# 
  1803  040E                     	;# 
  1804  040F                     	;# 
  1805  0410                     	;# 
  1806  0411                     	;# 
  1807  0416                     	;# 
  1808  0416                     	;# 
  1809  0417                     	;# 
  1810  0418                     	;# 
  1811  0418                     	;# 
  1812  0419                     	;# 
  1813  041A                     	;# 
  1814  041A                     	;# 
  1815  041B                     	;# 
  1816  041C                     	;# 
  1817  041C                     	;# 
  1818  041D                     	;# 
  1819  041E                     	;# 
  1820  041F                     	;# 
  1821  048C                     	;# 
  1822  048C                     	;# 
  1823  048D                     	;# 
  1824  048E                     	;# 
  1825  048F                     	;# 
  1826  048F                     	;# 
  1827  0490                     	;# 
  1828  0491                     	;# 
  1829  0492                     	;# 
  1830  0492                     	;# 
  1831  0493                     	;# 
  1832  0494                     	;# 
  1833  0495                     	;# 
  1834  0495                     	;# 
  1835  0496                     	;# 
  1836  0497                     	;# 
  1837  0498                     	;# 
  1838  0499                     	;# 
  1839  049A                     	;# 
  1840  049B                     	;# 
  1841  049C                     	;# 
  1842  049D                     	;# 
  1843  050C                     	;# 
  1844  050C                     	;# 
  1845  050D                     	;# 
  1846  050E                     	;# 
  1847  050F                     	;# 
  1848  050F                     	;# 
  1849  0510                     	;# 
  1850  0511                     	;# 
  1851  0512                     	;# 
  1852  0512                     	;# 
  1853  0513                     	;# 
  1854  0514                     	;# 
  1855  0515                     	;# 
  1856  0515                     	;# 
  1857  0516                     	;# 
  1858  0517                     	;# 
  1859  0518                     	;# 
  1860  0519                     	;# 
  1861  051A                     	;# 
  1862  051B                     	;# 
  1863  051C                     	;# 
  1864  051D                     	;# 
  1865  058C                     	;# 
  1866  058C                     	;# 
  1867  058D                     	;# 
  1868  058E                     	;# 
  1869  058F                     	;# 
  1870  058F                     	;# 
  1871  0590                     	;# 
  1872  0591                     	;# 
  1873  0592                     	;# 
  1874  0593                     	;# 
  1875  060C                     	;# 
  1876  060D                     	;# 
  1877  060E                     	;# 
  1878  060F                     	;# 
  1879  0610                     	;# 
  1880  0611                     	;# 
  1881  0612                     	;# 
  1882  0613                     	;# 
  1883  0614                     	;# 
  1884  0616                     	;# 
  1885  0617                     	;# 
  1886  0618                     	;# 
  1887  0619                     	;# 
  1888  061A                     	;# 
  1889  061B                     	;# 
  1890  061C                     	;# 
  1891  061D                     	;# 
  1892  061E                     	;# 
  1893  068C                     	;# 
  1894  068D                     	;# 
  1895  068E                     	;# 
  1896  068F                     	;# 
  1897  0690                     	;# 
  1898  0691                     	;# 
  1899  0692                     	;# 
  1900  0693                     	;# 
  1901  0694                     	;# 
  1902  070C                     	;# 
  1903  070D                     	;# 
  1904  070E                     	;# 
  1905  070F                     	;# 
  1906  0710                     	;# 
  1907  0711                     	;# 
  1908  0712                     	;# 
  1909  0713                     	;# 
  1910  0714                     	;# 
  1911  0716                     	;# 
  1912  0717                     	;# 
  1913  0718                     	;# 
  1914  0719                     	;# 
  1915  071A                     	;# 
  1916  071B                     	;# 
  1917  071C                     	;# 
  1918  071D                     	;# 
  1919  071E                     	;# 
  1920  0796                     	;# 
  1921  0797                     	;# 
  1922  0798                     	;# 
  1923  0799                     	;# 
  1924  079A                     	;# 
  1925  079B                     	;# 
  1926  080C                     	;# 
  1927  080D                     	;# 
  1928  080E                     	;# 
  1929  080F                     	;# 
  1930  0810                     	;# 
  1931  0811                     	;# 
  1932  0812                     	;# 
  1933  0813                     	;# 
  1934  0814                     	;# 
  1935  081A                     	;# 
  1936  081B                     	;# 
  1937  081C                     	;# 
  1938  081D                     	;# 
  1939  081E                     	;# 
  1940  081F                     	;# 
  1941  088C                     	;# 
  1942  088D                     	;# 
  1943  088E                     	;# 
  1944  088F                     	;# 
  1945  0890                     	;# 
  1946  0891                     	;# 
  1947  0892                     	;# 
  1948  0893                     	;# 
  1949  0895                     	;# 
  1950  0896                     	;# 
  1951  0897                     	;# 
  1952  0898                     	;# 
  1953  0899                     	;# 
  1954  089A                     	;# 
  1955  089B                     	;# 
  1956  090C                     	;# 
  1957  090E                     	;# 
  1958  090F                     	;# 
  1959  091F                     	;# 
  1960  091F                     	;# 
  1961  098F                     	;# 
  1962  098F                     	;# 
  1963  0990                     	;# 
  1964  0991                     	;# 
  1965  0992                     	;# 
  1966  0993                     	;# 
  1967  0994                     	;# 
  1968  0995                     	;# 
  1969  0996                     	;# 
  1970  0997                     	;# 
  1971  0E0F                     	;# 
  1972  0E10                     	;# 
  1973  0E11                     	;# 
  1974  0E12                     	;# 
  1975  0E13                     	;# 
  1976  0E14                     	;# 
  1977  0E15                     	;# 
  1978  0E16                     	;# 
  1979  0E17                     	;# 
  1980  0E18                     	;# 
  1981  0E19                     	;# 
  1982  0E1A                     	;# 
  1983  0E1B                     	;# 
  1984  0E1C                     	;# 
  1985  0E1D                     	;# 
  1986  0E1E                     	;# 
  1987  0E1F                     	;# 
  1988  0E20                     	;# 
  1989  0E21                     	;# 
  1990  0E22                     	;# 
  1991  0E23                     	;# 
  1992  0E24                     	;# 
  1993  0E25                     	;# 
  1994  0E26                     	;# 
  1995  0E27                     	;# 
  1996  0E28                     	;# 
  1997  0E29                     	;# 
  1998  0E2A                     	;# 
  1999  0E2B                     	;# 
  2000  0E2C                     	;# 
  2001  0E2D                     	;# 
  2002  0E2E                     	;# 
  2003  0E2F                     	;# 
  2004  0E30                     	;# 
  2005  0E31                     	;# 
  2006  0E32                     	;# 
  2007  0E33                     	;# 
  2008  0E34                     	;# 
  2009  0E35                     	;# 
  2010  0E36                     	;# 
  2011  0E37                     	;# 
  2012  0E8F                     	;# 
  2013  0E90                     	;# 
  2014  0E91                     	;# 
  2015  0E92                     	;# 
  2016  0E93                     	;# 
  2017  0E94                     	;# 
  2018  0E95                     	;# 
  2019  0E96                     	;# 
  2020  0E97                     	;# 
  2021  0E9C                     	;# 
  2022  0E9D                     	;# 
  2023  0E9E                     	;# 
  2024  0EA1                     	;# 
  2025  0EA2                     	;# 
  2026  0EA3                     	;# 
  2027  0EA4                     	;# 
  2028  0EA5                     	;# 
  2029  0EA9                     	;# 
  2030  0EAA                     	;# 
  2031  0EAB                     	;# 
  2032  0EAC                     	;# 
  2033  0EB1                     	;# 
  2034  0EB2                     	;# 
  2035  0EB3                     	;# 
  2036  0EB8                     	;# 
  2037  0EB9                     	;# 
  2038  0EBA                     	;# 
  2039  0EBB                     	;# 
  2040  0EBC                     	;# 
  2041  0EBD                     	;# 
  2042  0EBE                     	;# 
  2043  0EC3                     	;# 
  2044  0EC5                     	;# 
  2045  0EC6                     	;# 
  2046  0EC7                     	;# 
  2047  0EC8                     	;# 
  2048  0EC9                     	;# 
  2049  0ECA                     	;# 
  2050  0ECB                     	;# 
  2051  0ECC                     	;# 
  2052  0F10                     	;# 
  2053  0F11                     	;# 
  2054  0F12                     	;# 
  2055  0F13                     	;# 
  2056  0F14                     	;# 
  2057  0F15                     	;# 
  2058  0F16                     	;# 
  2059  0F17                     	;# 
  2060  0F18                     	;# 
  2061  0F19                     	;# 
  2062  0F1A                     	;# 
  2063  0F1B                     	;# 
  2064  0F1C                     	;# 
  2065  0F1D                     	;# 
  2066  0F1E                     	;# 
  2067  0F1F                     	;# 
  2068  0F20                     	;# 
  2069  0F21                     	;# 
  2070  0F22                     	;# 
  2071  0F23                     	;# 
  2072  0F24                     	;# 
  2073  0F25                     	;# 
  2074  0F26                     	;# 
  2075  0F27                     	;# 
  2076  0F38                     	;# 
  2077  0F39                     	;# 
  2078  0F3A                     	;# 
  2079  0F3B                     	;# 
  2080  0F3C                     	;# 
  2081  0F3D                     	;# 
  2082  0F3E                     	;# 
  2083  0F3F                     	;# 
  2084  0F40                     	;# 
  2085  0F41                     	;# 
  2086  0F43                     	;# 
  2087  0F44                     	;# 
  2088  0F45                     	;# 
  2089  0F46                     	;# 
  2090  0F47                     	;# 
  2091  0F48                     	;# 
  2092  0F49                     	;# 
  2093  0F4A                     	;# 
  2094  0F4B                     	;# 
  2095  0F4C                     	;# 
  2096  0F4E                     	;# 
  2097  0F4F                     	;# 
  2098  0F50                     	;# 
  2099  0F51                     	;# 
  2100  0F52                     	;# 
  2101  0F53                     	;# 
  2102  0F54                     	;# 
  2103  0F55                     	;# 
  2104  0F56                     	;# 
  2105  0F57                     	;# 
  2106  0F65                     	;# 
  2107  0F68                     	;# 
  2108  0F69                     	;# 
  2109  0F6A                     	;# 
  2110  0F6B                     	;# 
  2111  0FE4                     	;# 
  2112  0FE5                     	;# 
  2113  0FE6                     	;# 
  2114  0FE7                     	;# 
  2115  0FE8                     	;# 
  2116  0FE9                     	;# 
  2117  0FEA                     	;# 
  2118  0FEB                     	;# 
  2119  0FED                     	;# 
  2120  0FEE                     	;# 
  2121  0FEF                     	;# 
  2122                           
  2123                           	psect	stringtext1
  2124  09F8                     __pstringtext1:	
  2125  09F8                     _fonts:	
  2126  09F8  3400               	retlw	0
  2127  09F9  3400               	retlw	0
  2128  09FA  3400               	retlw	0
  2129  09FB  3400               	retlw	0
  2130  09FC  344E               	retlw	78
  2131  09FD  3400               	retlw	0
  2132  09FE  3406               	retlw	6
  2133  09FF  3400               	retlw	0
  2134  0A00  3406               	retlw	6
  2135  0A01  34FF               	retlw	255
  2136  0A02  34FF               	retlw	255
  2137  0A03  34FF               	retlw	255
  2138  0A04  3448               	retlw	72
  2139  0A05  34D6               	retlw	214
  2140  0A06  3424               	retlw	36
  2141  0A07  3412               	retlw	18
  2142  0A08  3408               	retlw	8
  2143  0A09  3424               	retlw	36
  2144  0A0A  34FF               	retlw	255
  2145  0A0B  34FF               	retlw	255
  2146  0A0C  34FF               	retlw	255
  2147  0A0D  3400               	retlw	0
  2148  0A0E  3406               	retlw	6
  2149  0A0F  3400               	retlw	0
  2150  0A10  3438               	retlw	56
  2151  0A11  3444               	retlw	68
  2152  0A12  3482               	retlw	130
  2153  0A13  3482               	retlw	130
  2154  0A14  3444               	retlw	68
  2155  0A15  3438               	retlw	56
  2156  0A16  3414               	retlw	20
  2157  0A17  3408               	retlw	8
  2158  0A18  343E               	retlw	62
  2159  0A19  3410               	retlw	16
  2160  0A1A  3438               	retlw	56
  2161  0A1B  3410               	retlw	16
  2162  0A1C  34A0               	retlw	160
  2163  0A1D  3460               	retlw	96
  2164  0A1E  3400               	retlw	0
  2165  0A1F  3410               	retlw	16
  2166  0A20  3410               	retlw	16
  2167  0A21  3410               	retlw	16
  2168  0A22  3460               	retlw	96
  2169  0A23  3460               	retlw	96
  2170  0A24  3400               	retlw	0
  2171  0A25  3460               	retlw	96
  2172  0A26  3418               	retlw	24
  2173  0A27  3406               	retlw	6
  2174  0A28  347C               	retlw	124
  2175  0A29  3442               	retlw	66
  2176  0A2A  347C               	retlw	124
  2177  0A2B  3444               	retlw	68
  2178  0A2C  347E               	retlw	126
  2179  0A2D  3440               	retlw	64
  2180  0A2E  3464               	retlw	100
  2181  0A2F  3452               	retlw	82
  2182  0A30  344C               	retlw	76
  2183  0A31  344A               	retlw	74
  2184  0A32  344A               	retlw	74
  2185  0A33  3434               	retlw	52
  2186  0A34  3438               	retlw	56
  2187  0A35  3424               	retlw	36
  2188  0A36  347E               	retlw	126
  2189  0A37  344E               	retlw	78
  2190  0A38  344A               	retlw	74
  2191  0A39  3432               	retlw	50
  2192  0A3A  343C               	retlw	60
  2193  0A3B  344A               	retlw	74
  2194  0A3C  3432               	retlw	50
  2195  0A3D  3462               	retlw	98
  2196  0A3E  341A               	retlw	26
  2197  0A3F  3406               	retlw	6
  2198  0A40  3476               	retlw	118
  2199  0A41  344A               	retlw	74
  2200  0A42  3476               	retlw	118
  2201  0A43  344C               	retlw	76
  2202  0A44  3452               	retlw	82
  2203  0A45  343C               	retlw	60
  2204  0A46  346C               	retlw	108
  2205  0A47  346C               	retlw	108
  2206  0A48  3400               	retlw	0
  2207  0A49  34AC               	retlw	172
  2208  0A4A  346C               	retlw	108
  2209  0A4B  3400               	retlw	0
  2210  0A4C  3410               	retlw	16
  2211  0A4D  3428               	retlw	40
  2212  0A4E  3444               	retlw	68
  2213  0A4F  3428               	retlw	40
  2214  0A50  3428               	retlw	40
  2215  0A51  3428               	retlw	40
  2216  0A52  3444               	retlw	68
  2217  0A53  3428               	retlw	40
  2218  0A54  3410               	retlw	16
  2219  0A55  3402               	retlw	2
  2220  0A56  3459               	retlw	89
  2221  0A57  3406               	retlw	6
  2222  0A58  34FF               	retlw	255
  2223  0A59  34FF               	retlw	255
  2224  0A5A  34FF               	retlw	255
  2225  0A5B  347C               	retlw	124
  2226  0A5C  3412               	retlw	18
  2227  0A5D  347C               	retlw	124
  2228  0A5E  347E               	retlw	126
  2229  0A5F  345A               	retlw	90
  2230  0A60  3434               	retlw	52
  2231  0A61  343C               	retlw	60
  2232  0A62  3442               	retlw	66
  2233  0A63  3442               	retlw	66
  2234  0A64  347E               	retlw	126
  2235  0A65  3442               	retlw	66
  2236  0A66  343C               	retlw	60
  2237  0A67  347E               	retlw	126
  2238  0A68  344A               	retlw	74
  2239  0A69  3442               	retlw	66
  2240  0A6A  347E               	retlw	126
  2241  0A6B  340A               	retlw	10
  2242  0A6C  340A               	retlw	10
  2243  0A6D  343C               	retlw	60
  2244  0A6E  3452               	retlw	82
  2245  0A6F  3434               	retlw	52
  2246  0A70  347E               	retlw	126
  2247  0A71  3408               	retlw	8
  2248  0A72  347E               	retlw	126
  2249  0A73  3442               	retlw	66
  2250  0A74  347E               	retlw	126
  2251  0A75  3442               	retlw	66
  2252  0A76  3430               	retlw	48
  2253  0A77  3440               	retlw	64
  2254  0A78  343E               	retlw	62
  2255  0A79  347E               	retlw	126
  2256  0A7A  3418               	retlw	24
  2257  0A7B  3466               	retlw	102
  2258  0A7C  347E               	retlw	126
  2259  0A7D  3440               	retlw	64
  2260  0A7E  3440               	retlw	64
  2261  0A7F  347E               	retlw	126
  2262  0A80  341C               	retlw	28
  2263  0A81  347E               	retlw	126
  2264  0A82  347E               	retlw	126
  2265  0A83  3402               	retlw	2
  2266  0A84  347E               	retlw	126
  2267  0A85  343C               	retlw	60
  2268  0A86  3442               	retlw	66
  2269  0A87  343C               	retlw	60
  2270  0A88  347E               	retlw	126
  2271  0A89  3412               	retlw	18
  2272  0A8A  340C               	retlw	12
  2273  0A8B  347E               	retlw	126
  2274  0A8C  3462               	retlw	98
  2275  0A8D  34FE               	retlw	254
  2276  0A8E  347E               	retlw	126
  2277  0A8F  3432               	retlw	50
  2278  0A90  344E               	retlw	78
  2279  0A91  3444               	retlw	68
  2280  0A92  344A               	retlw	74
  2281  0A93  3432               	retlw	50
  2282  0A94  3402               	retlw	2
  2283  0A95  347E               	retlw	126
  2284  0A96  3402               	retlw	2
  2285  0A97  347E               	retlw	126
  2286  0A98  3440               	retlw	64
  2287  0A99  347E               	retlw	126
  2288  0A9A  343E               	retlw	62
  2289  0A9B  3440               	retlw	64
  2290  0A9C  343E               	retlw	62
  2291  0A9D  347E               	retlw	126
  2292  0A9E  3438               	retlw	56
  2293  0A9F  347E               	retlw	126
  2294  0AA0  3466               	retlw	102
  2295  0AA1  3418               	retlw	24
  2296  0AA2  3466               	retlw	102
  2297  0AA3  340E               	retlw	14
  2298  0AA4  3470               	retlw	112
  2299  0AA5  340E               	retlw	14
  2300  0AA6  3462               	retlw	98
  2301  0AA7  345A               	retlw	90
  2302  0AA8  3446               	retlw	70
  2303  0AA9  3400               	retlw	0
  2304  0AAA  347E               	retlw	126
  2305  0AAB  3442               	retlw	66
  2306  0AAC  3406               	retlw	6
  2307  0AAD  3418               	retlw	24
  2308  0AAE  3460               	retlw	96
  2309  0AAF  3442               	retlw	66
  2310  0AB0  347E               	retlw	126
  2311  0AB1  3400               	retlw	0
  2312  0AB2  3404               	retlw	4
  2313  0AB3  3402               	retlw	2
  2314  0AB4  3404               	retlw	4
  2315  0AB5  3440               	retlw	64
  2316  0AB6  3440               	retlw	64
  2317  0AB7  3440               	retlw	64
  2318  0AB8  3400               	retlw	0
  2319  0AB9  3402               	retlw	2
  2320  0ABA  3404               	retlw	4
  2321  0ABB  3474               	retlw	116
  2322  0ABC  3454               	retlw	84
  2323  0ABD  3478               	retlw	120
  2324  0ABE  347E               	retlw	126
  2325  0ABF  3448               	retlw	72
  2326  0AC0  3430               	retlw	48
  2327  0AC1  3430               	retlw	48
  2328  0AC2  3448               	retlw	72
  2329  0AC3  3448               	retlw	72
  2330  0AC4  3430               	retlw	48
  2331  0AC5  3448               	retlw	72
  2332  0AC6  347E               	retlw	126
  2333  0AC7  3438               	retlw	56
  2334  0AC8  3454               	retlw	84
  2335  0AC9  3458               	retlw	88
  2336  0ACA  347C               	retlw	124
  2337  0ACB  340A               	retlw	10
  2338  0ACC  3402               	retlw	2
  2339  0ACD  3498               	retlw	152
  2340  0ACE  34A4               	retlw	164
  2341  0ACF  347C               	retlw	124
  2342  0AD0  347E               	retlw	126
  2343  0AD1  3408               	retlw	8
  2344  0AD2  3470               	retlw	112
  2345  0AD3  3448               	retlw	72
  2346  0AD4  347A               	retlw	122
  2347  0AD5  3440               	retlw	64
  2348  0AD6  3488               	retlw	136
  2349  0AD7  34FA               	retlw	250
  2350  0AD8  3400               	retlw	0
  2351  0AD9  347E               	retlw	126
  2352  0ADA  3418               	retlw	24
  2353  0ADB  3464               	retlw	100
  2354  0ADC  3442               	retlw	66
  2355  0ADD  347E               	retlw	126
  2356  0ADE  3440               	retlw	64
  2357  0ADF  347C               	retlw	124
  2358  0AE0  3438               	retlw	56
  2359  0AE1  347C               	retlw	124
  2360  0AE2  347C               	retlw	124
  2361  0AE3  3404               	retlw	4
  2362  0AE4  3478               	retlw	120
  2363  0AE5  3438               	retlw	56
  2364  0AE6  3444               	retlw	68
  2365  0AE7  3438               	retlw	56
  2366  0AE8  34FC               	retlw	252
  2367  0AE9  3424               	retlw	36
  2368  0AEA  3418               	retlw	24
  2369  0AEB  3418               	retlw	24
  2370  0AEC  3424               	retlw	36
  2371  0AED  34FC               	retlw	252
  2372  0AEE  3478               	retlw	120
  2373  0AEF  3404               	retlw	4
  2374  0AF0  3404               	retlw	4
  2375  0AF1  3448               	retlw	72
  2376  0AF2  3454               	retlw	84
  2377  0AF3  3424               	retlw	36
  2378  0AF4  3404               	retlw	4
  2379  0AF5  343E               	retlw	62
  2380  0AF6  3444               	retlw	68
  2381  0AF7  347C               	retlw	124
  2382  0AF8  3440               	retlw	64
  2383  0AF9  347C               	retlw	124
  2384  0AFA  343C               	retlw	60
  2385  0AFB  3440               	retlw	64
  2386  0AFC  343C               	retlw	60
  2387  0AFD  347C               	retlw	124
  2388  0AFE  3430               	retlw	48
  2389  0AFF  347C               	retlw	124
  2390  0B00  346C               	retlw	108
  2391  0B01  3410               	retlw	16
  2392  0B02  346C               	retlw	108
  2393  0B03  349C               	retlw	156
  2394  0B04  34A0               	retlw	160
  2395  0B05  347C               	retlw	124
  2396  0B06  3464               	retlw	100
  2397  0B07  3454               	retlw	84
  2398  0B08  344C               	retlw	76
  2399  0B09  340C               	retlw	12
  2400  0B0A  3412               	retlw	18
  2401  0B0B  340C               	retlw	12
  2402  0B0C  34FF               	retlw	255
  2403  0B0D  34FF               	retlw	255
  2404  0B0E  34FF               	retlw	255
  2405  0B0F  34FF               	retlw	255
  2406  0B10  34FF               	retlw	255
  2407  0B11  34FF               	retlw	255
  2408  0B12  34FF               	retlw	255
  2409  0B13  34FF               	retlw	255
  2410  0B14  34FF               	retlw	255
  2411  0B15  34FF               	retlw	255
  2412  0B16  34FF               	retlw	255
  2413  0B17  34FF               	retlw	255
  2414  0B18  34FF               	retlw	255
  2415  0B19  34FF               	retlw	255
  2416  0B1A  34FF               	retlw	255
  2417  0B1B  34FF               	retlw	255
  2418  0B1C  34FF               	retlw	255
  2419  0B1D  34FF               	retlw	255
  2420  0B1E  34FC               	retlw	252
  2421  0B1F  3440               	retlw	64
  2422  0B20  347C               	retlw	124
  2423  0B21  34FF               	retlw	255
  2424  0B22  34FF               	retlw	255
  2425  0B23  34FF               	retlw	255
  2426  0B24  34FF               	retlw	255
  2427  0B25  34FF               	retlw	255
  2428  0B26  34FF               	retlw	255
  2429  0B27                     __end_of_fonts:	
  2430                           
  2431                           	psect	stringtext2
  2432  0800                     __pstringtext2:	
  2433  0800                     _coffee:	
  2434  0800  34FF               	retlw	255
  2435  0801  3401               	retlw	1
  2436  0802  3401               	retlw	1
  2437  0803  3401               	retlw	1
  2438  0804  3401               	retlw	1
  2439  0805  3401               	retlw	1
  2440  0806  3401               	retlw	1
  2441  0807  3401               	retlw	1
  2442  0808  3401               	retlw	1
  2443  0809  3401               	retlw	1
  2444  080A  3401               	retlw	1
  2445  080B  3401               	retlw	1
  2446  080C  3401               	retlw	1
  2447  080D  3401               	retlw	1
  2448  080E  3401               	retlw	1
  2449  080F  3401               	retlw	1
  2450  0810  3401               	retlw	1
  2451  0811  3401               	retlw	1
  2452  0812  3401               	retlw	1
  2453  0813  3401               	retlw	1
  2454  0814  3401               	retlw	1
  2455  0815  3401               	retlw	1
  2456  0816  3401               	retlw	1
  2457  0817  3401               	retlw	1
  2458  0818  3401               	retlw	1
  2459  0819  3401               	retlw	1
  2460  081A  3401               	retlw	1
  2461  081B  3481               	retlw	129
  2462  081C  34C1               	retlw	193
  2463  081D  34C1               	retlw	193
  2464  081E  34C1               	retlw	193
  2465  081F  3481               	retlw	129
  2466  0820  3401               	retlw	1
  2467  0821  3401               	retlw	1
  2468  0822  3401               	retlw	1
  2469  0823  3481               	retlw	129
  2470  0824  34C1               	retlw	193
  2471  0825  34C1               	retlw	193
  2472  0826  34C1               	retlw	193
  2473  0827  34C1               	retlw	193
  2474  0828  3401               	retlw	1
  2475  0829  34C1               	retlw	193
  2476  082A  34E1               	retlw	225
  2477  082B  3461               	retlw	97
  2478  082C  34E1               	retlw	225
  2479  082D  34C1               	retlw	193
  2480  082E  3481               	retlw	129
  2481  082F  3401               	retlw	1
  2482  0830  3481               	retlw	129
  2483  0831  34C1               	retlw	193
  2484  0832  34C1               	retlw	193
  2485  0833  3481               	retlw	129
  2486  0834  3481               	retlw	129
  2487  0835  3401               	retlw	1
  2488  0836  3401               	retlw	1
  2489  0837  3401               	retlw	1
  2490  0838  3401               	retlw	1
  2491  0839  3401               	retlw	1
  2492  083A  3401               	retlw	1
  2493  083B  3401               	retlw	1
  2494  083C  3401               	retlw	1
  2495  083D  3401               	retlw	1
  2496  083E  3401               	retlw	1
  2497  083F  3401               	retlw	1
  2498  0840  3401               	retlw	1
  2499  0841  3401               	retlw	1
  2500  0842  3401               	retlw	1
  2501  0843  3401               	retlw	1
  2502  0844  3401               	retlw	1
  2503  0845  3401               	retlw	1
  2504  0846  3401               	retlw	1
  2505  0847  3401               	retlw	1
  2506  0848  3401               	retlw	1
  2507  0849  3401               	retlw	1
  2508  084A  3401               	retlw	1
  2509  084B  3401               	retlw	1
  2510  084C  3401               	retlw	1
  2511  084D  3401               	retlw	1
  2512  084E  3401               	retlw	1
  2513  084F  3401               	retlw	1
  2514  0850  3401               	retlw	1
  2515  0851  3401               	retlw	1
  2516  0852  3401               	retlw	1
  2517  0853  34FF               	retlw	255
  2518  0854  34FF               	retlw	255
  2519  0855  3400               	retlw	0
  2520  0856  3400               	retlw	0
  2521  0857  3400               	retlw	0
  2522  0858  3400               	retlw	0
  2523  0859  3400               	retlw	0
  2524  085A  3400               	retlw	0
  2525  085B  3400               	retlw	0
  2526  085C  3400               	retlw	0
  2527  085D  3400               	retlw	0
  2528  085E  3400               	retlw	0
  2529  085F  3400               	retlw	0
  2530  0860  3400               	retlw	0
  2531  0861  3400               	retlw	0
  2532  0862  3400               	retlw	0
  2533  0863  3400               	retlw	0
  2534  0864  3400               	retlw	0
  2535  0865  3400               	retlw	0
  2536  0866  34C0               	retlw	192
  2537  0867  3440               	retlw	64
  2538  0868  34E0               	retlw	224
  2539  0869  34B0               	retlw	176
  2540  086A  3410               	retlw	16
  2541  086B  3400               	retlw	0
  2542  086C  341C               	retlw	28
  2543  086D  343E               	retlw	62
  2544  086E  347E               	retlw	126
  2545  086F  347F               	retlw	127
  2546  0870  347F               	retlw	127
  2547  0871  347F               	retlw	127
  2548  0872  347F               	retlw	127
  2549  0873  347F               	retlw	127
  2550  0874  347F               	retlw	127
  2551  0875  3400               	retlw	0
  2552  0876  3400               	retlw	0
  2553  0877  3407               	retlw	7
  2554  0878  340F               	retlw	15
  2555  0879  340C               	retlw	12
  2556  087A  340C               	retlw	12
  2557  087B  3404               	retlw	4
  2558  087C  3400               	retlw	0
  2559  087D  3407               	retlw	7
  2560  087E  340F               	retlw	15
  2561  087F  340C               	retlw	12
  2562  0880  340C               	retlw	12
  2563  0881  340F               	retlw	15
  2564  0882  3407               	retlw	7
  2565  0883  341C               	retlw	28
  2566  0884  341F               	retlw	31
  2567  0885  3407               	retlw	7
  2568  0886  3406               	retlw	6
  2569  0887  3406               	retlw	6
  2570  0888  3470               	retlw	112
  2571  0889  343C               	retlw	60
  2572  088A  341F               	retlw	31
  2573  088B  340B               	retlw	11
  2574  088C  341B               	retlw	27
  2575  088D  34E6               	retlw	230
  2576  088E  34F2               	retlw	242
  2577  088F  34BC               	retlw	188
  2578  0890  346C               	retlw	108
  2579  0891  3438               	retlw	56
  2580  0892  3498               	retlw	152
  2581  0893  34D0               	retlw	208
  2582  0894  34E0               	retlw	224
  2583  0895  34B0               	retlw	176
  2584  0896  3460               	retlw	96
  2585  0897  3440               	retlw	64
  2586  0898  3440               	retlw	64
  2587  0899  3400               	retlw	0
  2588  089A  3400               	retlw	0
  2589  089B  3400               	retlw	0
  2590  089C  3400               	retlw	0
  2591  089D  3400               	retlw	0
  2592  089E  3400               	retlw	0
  2593  089F  3400               	retlw	0
  2594  08A0  3400               	retlw	0
  2595  08A1  3400               	retlw	0
  2596  08A2  3400               	retlw	0
  2597  08A3  3400               	retlw	0
  2598  08A4  3400               	retlw	0
  2599  08A5  3400               	retlw	0
  2600  08A6  3400               	retlw	0
  2601  08A7  34FF               	retlw	255
  2602  08A8  34FF               	retlw	255
  2603  08A9  3400               	retlw	0
  2604  08AA  3400               	retlw	0
  2605  08AB  3400               	retlw	0
  2606  08AC  3400               	retlw	0
  2607  08AD  3400               	retlw	0
  2608  08AE  3400               	retlw	0
  2609  08AF  3400               	retlw	0
  2610  08B0  3400               	retlw	0
  2611  08B1  3400               	retlw	0
  2612  08B2  3400               	retlw	0
  2613  08B3  3400               	retlw	0
  2614  08B4  3400               	retlw	0
  2615  08B5  3400               	retlw	0
  2616  08B6  3400               	retlw	0
  2617  08B7  3400               	retlw	0
  2618  08B8  3400               	retlw	0
  2619  08B9  3400               	retlw	0
  2620  08BA  3400               	retlw	0
  2621  08BB  3400               	retlw	0
  2622  08BC  3400               	retlw	0
  2623  08BD  340D               	retlw	13
  2624  08BE  340F               	retlw	15
  2625  08BF  3406               	retlw	6
  2626  08C0  3407               	retlw	7
  2627  08C1  3403               	retlw	3
  2628  08C2  3400               	retlw	0
  2629  08C3  3400               	retlw	0
  2630  08C4  3400               	retlw	0
  2631  08C5  3400               	retlw	0
  2632  08C6  3400               	retlw	0
  2633  08C7  3400               	retlw	0
  2634  08C8  3400               	retlw	0
  2635  08C9  3400               	retlw	0
  2636  08CA  3400               	retlw	0
  2637  08CB  3400               	retlw	0
  2638  08CC  3400               	retlw	0
  2639  08CD  3400               	retlw	0
  2640  08CE  3400               	retlw	0
  2641  08CF  34C0               	retlw	192
  2642  08D0  34F0               	retlw	240
  2643  08D1  3477               	retlw	119
  2644  08D2  341F               	retlw	31
  2645  08D3  34C8               	retlw	200
  2646  08D4  34C0               	retlw	192
  2647  08D5  3400               	retlw	0
  2648  08D6  3400               	retlw	0
  2649  08D7  3400               	retlw	0
  2650  08D8  3400               	retlw	0
  2651  08D9  3400               	retlw	0
  2652  08DA  3400               	retlw	0
  2653  08DB  3400               	retlw	0
  2654  08DC  3400               	retlw	0
  2655  08DD  3400               	retlw	0
  2656  08DE  3400               	retlw	0
  2657  08DF  3400               	retlw	0
  2658  08E0  3400               	retlw	0
  2659  08E1  3400               	retlw	0
  2660  08E2  3401               	retlw	1
  2661  08E3  3401               	retlw	1
  2662  08E4  3400               	retlw	0
  2663  08E5  3407               	retlw	7
  2664  08E6  3407               	retlw	7
  2665  08E7  340C               	retlw	12
  2666  08E8  340C               	retlw	12
  2667  08E9  3401               	retlw	1
  2668  08EA  3401               	retlw	1
  2669  08EB  3400               	retlw	0
  2670  08EC  3400               	retlw	0
  2671  08ED  3400               	retlw	0
  2672  08EE  3400               	retlw	0
  2673  08EF  3400               	retlw	0
  2674  08F0  3400               	retlw	0
  2675  08F1  3400               	retlw	0
  2676  08F2  3400               	retlw	0
  2677  08F3  3400               	retlw	0
  2678  08F4  3400               	retlw	0
  2679  08F5  3400               	retlw	0
  2680  08F6  3400               	retlw	0
  2681  08F7  3400               	retlw	0
  2682  08F8  3400               	retlw	0
  2683  08F9  3400               	retlw	0
  2684  08FA  3400               	retlw	0
  2685  08FB  34FF               	retlw	255
  2686  08FC  34FF               	retlw	255
  2687  08FD  3400               	retlw	0
  2688  08FE  3400               	retlw	0
  2689  08FF  3400               	retlw	0
  2690  0900  3400               	retlw	0
  2691  0901  3400               	retlw	0
  2692  0902  3400               	retlw	0
  2693  0903  3400               	retlw	0
  2694  0904  3400               	retlw	0
  2695  0905  3400               	retlw	0
  2696  0906  3400               	retlw	0
  2697  0907  3400               	retlw	0
  2698  0908  3400               	retlw	0
  2699  0909  3400               	retlw	0
  2700  090A  3400               	retlw	0
  2701  090B  3400               	retlw	0
  2702  090C  3400               	retlw	0
  2703  090D  3400               	retlw	0
  2704  090E  3400               	retlw	0
  2705  090F  3400               	retlw	0
  2706  0910  3400               	retlw	0
  2707  0911  3400               	retlw	0
  2708  0912  3400               	retlw	0
  2709  0913  3400               	retlw	0
  2710  0914  3400               	retlw	0
  2711  0915  3400               	retlw	0
  2712  0916  3400               	retlw	0
  2713  0917  3400               	retlw	0
  2714  0918  3400               	retlw	0
  2715  0919  3400               	retlw	0
  2716  091A  3480               	retlw	128
  2717  091B  3480               	retlw	128
  2718  091C  3480               	retlw	128
  2719  091D  3480               	retlw	128
  2720  091E  34C0               	retlw	192
  2721  091F  34C0               	retlw	192
  2722  0920  34C0               	retlw	192
  2723  0921  34C0               	retlw	192
  2724  0922  34DE               	retlw	222
  2725  0923  34FF               	retlw	255
  2726  0924  34F1               	retlw	241
  2727  0925  34E0               	retlw	224
  2728  0926  34C0               	retlw	192
  2729  0927  34E1               	retlw	225
  2730  0928  34FF               	retlw	255
  2731  0929  34DF               	retlw	223
  2732  092A  34C4               	retlw	196
  2733  092B  34C0               	retlw	192
  2734  092C  34C0               	retlw	192
  2735  092D  34C0               	retlw	192
  2736  092E  34C0               	retlw	192
  2737  092F  34C0               	retlw	192
  2738  0930  34C0               	retlw	192
  2739  0931  34C0               	retlw	192
  2740  0932  3400               	retlw	0
  2741  0933  3400               	retlw	0
  2742  0934  3400               	retlw	0
  2743  0935  3400               	retlw	0
  2744  0936  3400               	retlw	0
  2745  0937  3400               	retlw	0
  2746  0938  3400               	retlw	0
  2747  0939  3400               	retlw	0
  2748  093A  3400               	retlw	0
  2749  093B  3400               	retlw	0
  2750  093C  3400               	retlw	0
  2751  093D  3400               	retlw	0
  2752  093E  3400               	retlw	0
  2753  093F  3400               	retlw	0
  2754  0940  3400               	retlw	0
  2755  0941  3400               	retlw	0
  2756  0942  3400               	retlw	0
  2757  0943  3400               	retlw	0
  2758  0944  3400               	retlw	0
  2759  0945  3400               	retlw	0
  2760  0946  3400               	retlw	0
  2761  0947  3400               	retlw	0
  2762  0948  3400               	retlw	0
  2763  0949  3400               	retlw	0
  2764  094A  3400               	retlw	0
  2765  094B  3400               	retlw	0
  2766  094C  3400               	retlw	0
  2767  094D  3400               	retlw	0
  2768  094E  3400               	retlw	0
  2769  094F  34FF               	retlw	255
  2770  0950  34FF               	retlw	255
  2771  0951  3400               	retlw	0
  2772  0952  3400               	retlw	0
  2773  0953  3400               	retlw	0
  2774  0954  3400               	retlw	0
  2775  0955  3400               	retlw	0
  2776  0956  3400               	retlw	0
  2777  0957  3400               	retlw	0
  2778  0958  3400               	retlw	0
  2779  0959  3400               	retlw	0
  2780  095A  3400               	retlw	0
  2781  095B  3400               	retlw	0
  2782  095C  3400               	retlw	0
  2783  095D  3400               	retlw	0
  2784  095E  3400               	retlw	0
  2785  095F  3400               	retlw	0
  2786  0960  3400               	retlw	0
  2787  0961  3400               	retlw	0
  2788  0962  3400               	retlw	0
  2789  0963  3400               	retlw	0
  2790  0964  3400               	retlw	0
  2791  0965  3400               	retlw	0
  2792  0966  3400               	retlw	0
  2793  0967  3400               	retlw	0
  2794  0968  3400               	retlw	0
  2795  0969  3400               	retlw	0
  2796  096A  3400               	retlw	0
  2797  096B  3400               	retlw	0
  2798  096C  3400               	retlw	0
  2799  096D  3400               	retlw	0
  2800  096E  34C7               	retlw	199
  2801  096F  34CF               	retlw	207
  2802  0970  349D               	retlw	157
  2803  0971  3491               	retlw	145
  2804  0972  34B7               	retlw	183
  2805  0973  34BF               	retlw	191
  2806  0974  34B8               	retlw	184
  2807  0975  34E0               	retlw	224
  2808  0976  34C0               	retlw	192
  2809  0977  3480               	retlw	128
  2810  0978  3480               	retlw	128
  2811  0979  3480               	retlw	128
  2812  097A  3480               	retlw	128
  2813  097B  3480               	retlw	128
  2814  097C  3480               	retlw	128
  2815  097D  3480               	retlw	128
  2816  097E  3480               	retlw	128
  2817  097F  34C0               	retlw	192
  2818  0980  34C0               	retlw	192
  2819  0981  34E0               	retlw	224
  2820  0982  34B8               	retlw	184
  2821  0983  349F               	retlw	159
  2822  0984  3487               	retlw	135
  2823  0985  34C1               	retlw	193
  2824  0986  34C0               	retlw	192
  2825  0987  3460               	retlw	96
  2826  0988  3400               	retlw	0
  2827  0989  3400               	retlw	0
  2828  098A  3400               	retlw	0
  2829  098B  3400               	retlw	0
  2830  098C  3400               	retlw	0
  2831  098D  3400               	retlw	0
  2832  098E  3400               	retlw	0
  2833  098F  3400               	retlw	0
  2834  0990  3400               	retlw	0
  2835  0991  3400               	retlw	0
  2836  0992  3400               	retlw	0
  2837  0993  3400               	retlw	0
  2838  0994  3400               	retlw	0
  2839  0995  3400               	retlw	0
  2840  0996  3400               	retlw	0
  2841  0997  3400               	retlw	0
  2842  0998  3400               	retlw	0
  2843  0999  3400               	retlw	0
  2844  099A  3400               	retlw	0
  2845  099B  3400               	retlw	0
  2846  099C  3400               	retlw	0
  2847  099D  3400               	retlw	0
  2848  099E  3400               	retlw	0
  2849  099F  3400               	retlw	0
  2850  09A0  3400               	retlw	0
  2851  09A1  3400               	retlw	0
  2852  09A2  3400               	retlw	0
  2853  09A3  34FF               	retlw	255
  2854  09A4  34FF               	retlw	255
  2855  09A5  3480               	retlw	128
  2856  09A6  3480               	retlw	128
  2857  09A7  3480               	retlw	128
  2858  09A8  3480               	retlw	128
  2859  09A9  3480               	retlw	128
  2860  09AA  3480               	retlw	128
  2861  09AB  3480               	retlw	128
  2862  09AC  3480               	retlw	128
  2863  09AD  3480               	retlw	128
  2864  09AE  3480               	retlw	128
  2865  09AF  3480               	retlw	128
  2866  09B0  3480               	retlw	128
  2867  09B1  3480               	retlw	128
  2868  09B2  3480               	retlw	128
  2869  09B3  3480               	retlw	128
  2870  09B4  3480               	retlw	128
  2871  09B5  3480               	retlw	128
  2872  09B6  3480               	retlw	128
  2873  09B7  3480               	retlw	128
  2874  09B8  3480               	retlw	128
  2875  09B9  3480               	retlw	128
  2876  09BA  3480               	retlw	128
  2877  09BB  3480               	retlw	128
  2878  09BC  3480               	retlw	128
  2879  09BD  3480               	retlw	128
  2880  09BE  3480               	retlw	128
  2881  09BF  3480               	retlw	128
  2882  09C0  3480               	retlw	128
  2883  09C1  3480               	retlw	128
  2884  09C2  3480               	retlw	128
  2885  09C3  3481               	retlw	129
  2886  09C4  3483               	retlw	131
  2887  09C5  3483               	retlw	131
  2888  09C6  3483               	retlw	131
  2889  09C7  3483               	retlw	131
  2890  09C8  3483               	retlw	131
  2891  09C9  3483               	retlw	131
  2892  09CA  3483               	retlw	131
  2893  09CB  3483               	retlw	131
  2894  09CC  3483               	retlw	131
  2895  09CD  3483               	retlw	131
  2896  09CE  3483               	retlw	131
  2897  09CF  3483               	retlw	131
  2898  09D0  3483               	retlw	131
  2899  09D1  3483               	retlw	131
  2900  09D2  3483               	retlw	131
  2901  09D3  3483               	retlw	131
  2902  09D4  3483               	retlw	131
  2903  09D5  3483               	retlw	131
  2904  09D6  3483               	retlw	131
  2905  09D7  3483               	retlw	131
  2906  09D8  3483               	retlw	131
  2907  09D9  3481               	retlw	129
  2908  09DA  3481               	retlw	129
  2909  09DB  3480               	retlw	128
  2910  09DC  3480               	retlw	128
  2911  09DD  3480               	retlw	128
  2912  09DE  3480               	retlw	128
  2913  09DF  3480               	retlw	128
  2914  09E0  3480               	retlw	128
  2915  09E1  3480               	retlw	128
  2916  09E2  3480               	retlw	128
  2917  09E3  3480               	retlw	128
  2918  09E4  3480               	retlw	128
  2919  09E5  3480               	retlw	128
  2920  09E6  3480               	retlw	128
  2921  09E7  3480               	retlw	128
  2922  09E8  3480               	retlw	128
  2923  09E9  3480               	retlw	128
  2924  09EA  3480               	retlw	128
  2925  09EB  3480               	retlw	128
  2926  09EC  3480               	retlw	128
  2927  09ED  3480               	retlw	128
  2928  09EE  3480               	retlw	128
  2929  09EF  3480               	retlw	128
  2930  09F0  3480               	retlw	128
  2931  09F1  3480               	retlw	128
  2932  09F2  3480               	retlw	128
  2933  09F3  3480               	retlw	128
  2934  09F4  3480               	retlw	128
  2935  09F5  3480               	retlw	128
  2936  09F6  3480               	retlw	128
  2937  09F7  34FF               	retlw	255
  2938  09F8                     __end_of_coffee:	
  2939  0018                     _LATC	set	24
  2940  0017                     _LATB	set	23
  2941  0016                     _LATA	set	22
  2942  0013                     _TRISC	set	19
  2943  0012                     _TRISB	set	18
  2944  0011                     _TRISA	set	17
  2945  0017                     _LATBbits	set	23
  2946  0013                     _TRISCbits	set	19
  2947  0012                     _TRISBbits	set	18
  2948  005F                     _GIE	set	95
  2949  0190                     _SSP1CON1	set	400
  2950  018F                     _SSP1STATbits	set	399
  2951  0190                     _SSP1CON1bits	set	400
  2952  018C                     _SSP1BUF	set	396
  2953  0716                     _PIE0bits	set	1814
  2954  0892                     _OSCTUNE	set	2194
  2955  0893                     _OSCFRQ	set	2195
  2956  0891                     _OSCEN	set	2193
  2957  088F                     _OSCCON3	set	2191
  2958  088D                     _OSCCON1	set	2189
  2959  090C                     _FVRCON	set	2316
  2960  0E8F                     _PPSLOCKbits	set	3727
  2961  0E8F                     _PPSLOCK	set	3727
  2962  0EC6                     _SSP1DATPPS	set	3782
  2963  0F65                     _WPUE	set	3941
  2964  0F4F                     _WPUC	set	3919
  2965  0F44                     _WPUB	set	3908
  2966  0F39                     _WPUA	set	3897
  2967  0F4E                     _ANSELC	set	3918
  2968  0F43                     _ANSELB	set	3907
  2969  0F38                     _ANSELA	set	3896
  2970  0F23                     _RC3PPS	set	3875
  2971  0F22                     _RC2PPS	set	3874
  2972  0F25                     _RC5PPS	set	3877
  2973                           
  2974                           ; #config settings
  2975  0000                     
  2976                           	psect	cinit
  2977  07F2                     start_initialization:	
  2978  07F2                     __initialization:	
  2979                           
  2980                           ; Clear objects allocated to BANK0
  2981  07F2  0020               	movlb	0	; select bank0
  2982  07F3  01A0               	clrf	__pbssBANK0& (0+127)
  2983  07F4  01A1               	clrf	(__pbssBANK0+1)& (0+127)
  2984  07F5  01A2               	clrf	(__pbssBANK0+2)& (0+127)
  2985  07F6  01A3               	clrf	(__pbssBANK0+3)& (0+127)
  2986  07F7  01A4               	clrf	(__pbssBANK0+4)& (0+127)
  2987  07F8  01A5               	clrf	(__pbssBANK0+5)& (0+127)
  2988  07F9  01A6               	clrf	(__pbssBANK0+6)& (0+127)
  2989  07FA  01A7               	clrf	(__pbssBANK0+7)& (0+127)
  2990  07FB  01A8               	clrf	(__pbssBANK0+8)& (0+127)
  2991  07FC  01A9               	clrf	(__pbssBANK0+9)& (0+127)
  2992  07FD                     end_of_initialization:	
  2993                           ;End of C runtime variable initialization code
  2994                           
  2995  07FD                     __end_of__initialization:	
  2996  07FD  0020               	movlb	0
  2997  07FE  3186  2E54         	ljmp	_main	;jump to C main() function
  2998                           
  2999                           	psect	bssBANK0
  3000  0020                     __pbssBANK0:	
  3001  0020                     LCDWriteInt@F14310:	
  3002  0020                     	ds	10
  3003                           
  3004                           	psect	cstackCOMMON
  3005  0070                     __pcstackCOMMON:	
  3006  0070                     ?_SPIWrite:	
  3007  0070                     ?_LCDWrite:	
  3008                           ; 1 bytes @ 0x0
  3009                           
  3010  0070                     ?_OSCILLATOR_Initialize:	
  3011                           ; 1 bytes @ 0x0
  3012                           
  3013  0070                     ??_OSCILLATOR_Initialize:	
  3014                           ; 1 bytes @ 0x0
  3015                           
  3016  0070                     ?_LCDWriteCharacter:	
  3017                           ; 1 bytes @ 0x0
  3018                           
  3019  0070                     ?_LCDClear:	
  3020                           ; 1 bytes @ 0x0
  3021                           
  3022  0070                     ?_LCDInit:	
  3023                           ; 1 bytes @ 0x0
  3024                           
  3025  0070                     ?_SPI_Init:	
  3026                           ; 1 bytes @ 0x0
  3027                           
  3028  0070                     ??_SPI_Init:	
  3029                           ; 1 bytes @ 0x0
  3030                           
  3031  0070                     ?_SYSTEM_Initialize:	
  3032                           ; 1 bytes @ 0x0
  3033                           
  3034  0070                     ?_main:	
  3035                           ; 1 bytes @ 0x0
  3036                           
  3037  0070                     ?___wmul:	
  3038                           ; 1 bytes @ 0x0
  3039                           
  3040  0070                     SPIWrite@data:	
  3041                           ; 2 bytes @ 0x0
  3042                           
  3043  0070                     LCDWrite@data:	
  3044                           ; 1 bytes @ 0x0
  3045                           
  3046  0070                     ___wmul@multiplier:	
  3047                           ; 1 bytes @ 0x0
  3048                           
  3049                           
  3050                           ; 2 bytes @ 0x0
  3051  0070                     	ds	1
  3052  0071                     ??_SPIWrite:	
  3053  0071                     ??_LCDWrite:	
  3054                           ; 1 bytes @ 0x1
  3055                           
  3056                           
  3057                           ; 1 bytes @ 0x1
  3058  0071                     	ds	1
  3059  0072                     SPIWrite@data_or_command:	
  3060  0072                     LCDWrite@data_or_command:	
  3061                           ; 1 bytes @ 0x2
  3062                           
  3063  0072                     ___wmul@multiplicand:	
  3064                           ; 1 bytes @ 0x2
  3065                           
  3066                           
  3067                           ; 2 bytes @ 0x2
  3068  0072                     	ds	1
  3069  0073                     SPIWrite@receivedCharacter:	
  3070  0073                     LCDWrite@i:	
  3071                           ; 1 bytes @ 0x3
  3072                           
  3073                           
  3074                           ; 1 bytes @ 0x3
  3075  0073                     	ds	1
  3076  0074                     ?_gotoXY:	
  3077  0074                     ??_LCDInit:	
  3078                           ; 1 bytes @ 0x4
  3079                           
  3080  0074                     ??___wmul:	
  3081                           ; 1 bytes @ 0x4
  3082                           
  3083  0074                     gotoXY@y:	
  3084                           ; 1 bytes @ 0x4
  3085                           
  3086  0074                     ___wmul@product:	
  3087                           ; 1 bytes @ 0x4
  3088                           
  3089                           
  3090                           ; 2 bytes @ 0x4
  3091  0074                     	ds	1
  3092  0075                     ??_gotoXY:	
  3093                           
  3094                           ; 1 bytes @ 0x5
  3095  0075                     	ds	1
  3096  0076                     ??_LCDWriteCharacter:	
  3097  0076                     gotoXY@x:	
  3098                           ; 1 bytes @ 0x6
  3099                           
  3100                           
  3101                           ; 1 bytes @ 0x6
  3102  0076                     	ds	1
  3103  0077                     ?_LCDBitmap:	
  3104  0077                     ??_LCDClear:	
  3105                           ; 1 bytes @ 0x7
  3106                           
  3107  0077                     LCDBitmap@bmp_array:	
  3108                           ; 1 bytes @ 0x7
  3109                           
  3110                           
  3111                           ; 2 bytes @ 0x7
  3112  0077                     	ds	1
  3113  0078                     LCDClear@index:	
  3114                           
  3115                           ; 2 bytes @ 0x8
  3116  0078                     	ds	1
  3117  0079                     LCDBitmap@startLine:	
  3118                           
  3119                           ; 1 bytes @ 0x9
  3120  0079                     	ds	1
  3121  007A                     ??_SYSTEM_Initialize:	
  3122  007A                     LCDBitmap@len:	
  3123                           ; 1 bytes @ 0xA
  3124                           
  3125                           
  3126                           ; 2 bytes @ 0xA
  3127  007A                     	ds	1
  3128  007B                     SYSTEM_Initialize@state:	
  3129                           
  3130                           ; 1 bytes @ 0xB
  3131  007B                     	ds	1
  3132  007C                     ??_LCDBitmap:	
  3133                           
  3134                           ; 1 bytes @ 0xC
  3135  007C                     	ds	1
  3136                           
  3137                           	psect	cstackBANK0
  3138  002A                     __pcstackBANK0:	
  3139  002A                     LCDBitmap@index:	
  3140  002A                     LCDWriteCharacter@x:	
  3141                           ; 2 bytes @ 0x0
  3142                           
  3143                           
  3144                           ; 2 bytes @ 0x0
  3145  002A                     	ds	2
  3146  002C                     LCDWriteCharacter@z:	
  3147                           
  3148                           ; 2 bytes @ 0x2
  3149  002C                     	ds	2
  3150  002E                     LCDWriteCharacter@character:	
  3151                           
  3152                           ; 1 bytes @ 0x4
  3153  002E                     	ds	1
  3154  002F                     LCDWriteCharacter@base:	
  3155                           
  3156                           ; 2 bytes @ 0x5
  3157  002F                     	ds	2
  3158  0031                     ??_main:	
  3159                           
  3160                           ; 1 bytes @ 0x7
  3161  0031                     	ds	2
  3162                           
  3163                           	psect	maintext
  3164  0654                     __pmaintext:	
  3165 ;;
  3166 ;;Main: autosize = 0, tempsize = 2, incstack = 0, save=0
  3167 ;;
  3168 ;; *************** function _main *****************
  3169 ;; Defined at:
  3170 ;;		line 9 in file "main.c"
  3171 ;; Parameters:    Size  Location     Type
  3172 ;;		None
  3173 ;; Auto vars:     Size  Location     Type
  3174 ;;		None
  3175 ;; Return value:  Size  Location     Type
  3176 ;;                  1    wreg      void 
  3177 ;; Registers used:
  3178 ;;		wreg, fsr0l, fsr0h, status,2, status,0, pclath, cstack
  3179 ;; Tracked objects:
  3180 ;;		On entry : B1F/0
  3181 ;;		On exit  : 0/0
  3182 ;;		Unchanged: 0/0
  3183 ;; Data sizes:     COMMON   BANK0   BANK1   BANK2   BANK3   BANK4   BANK5   BANK6   BANK7   BANK8   BANK9  BANK10  BANK1
      +1  BANK12
  3184 ;;      Params:         0       0       0       0       0       0       0       0       0       0       0       0       
      +0       0
  3185 ;;      Locals:         0       0       0       0       0       0       0       0       0       0       0       0       
      +0       0
  3186 ;;      Temps:          0       2       0       0       0       0       0       0       0       0       0       0       
      +0       0
  3187 ;;      Totals:         0       2       0       0       0       0       0       0       0       0       0       0       
      +0       0
  3188 ;;Total ram usage:        2 bytes
  3189 ;; Hardware stack levels required when called:    4
  3190 ;; This function calls:
  3191 ;;		_LCDBitmap
  3192 ;;		_LCDWriteCharacter
  3193 ;;		_SYSTEM_Initialize
  3194 ;; This function is called by:
  3195 ;;		Startup code after reset
  3196 ;; This function uses a non-reentrant model
  3197 ;;
  3198                           
  3199                           
  3200                           ;psect for function _main
  3201  0654                     _main:	
  3202                           
  3203                           ;main.c: 21: SYSTEM_Initialize();
  3204                           
  3205                           ;incstack = 0
  3206                           ; Regs used in _main: [wreg-fsr0h+status,2+status,0+pclath+cstack]
  3207  0654  3187  279E  3186   	fcall	_SYSTEM_Initialize
  3208                           
  3209                           ;main.c: 23: LCDBitmap(&coffee[0], 0,504);
  3210  0657  3000               	movlw	low (_coffee| (0+32768))
  3211  0658  00F7               	movwf	LCDBitmap@bmp_array
  3212  0659  3088               	movlw	high (_coffee| (0+32768))
  3213  065A  00F8               	movwf	LCDBitmap@bmp_array+1
  3214  065B  01F9               	clrf	LCDBitmap@startLine
  3215  065C  30F8               	movlw	248
  3216  065D  00FA               	movwf	LCDBitmap@len
  3217  065E  3001               	movlw	1
  3218  065F  00FB               	movwf	LCDBitmap@len+1
  3219  0660  3186  26EB  3186   	fcall	_LCDBitmap
  3220                           
  3221                           ;main.c: 27: _delay((unsigned long)((2500)*(1000000/4000.0)));
  3222  0663  3004               	movlw	4
  3223  0664  0020               	movlb	0	; select bank0
  3224  0665  00B2               	movwf	??_main+1
  3225  0666  302C               	movlw	44
  3226  0667  00B1               	movwf	??_main
  3227  0668  30AB               	movlw	171
  3228  0669                     u887:	
  3229  0669  0B89               	decfsz	9,f
  3230  066A  2E69               	goto	u887
  3231  066B  0BB1               	decfsz	??_main,f
  3232  066C  2E69               	goto	u887
  3233  066D  0BB2               	decfsz	??_main+1,f
  3234  066E  2E69               	goto	u887
  3235  066F  3200               	nop2
  3236  0670                     l1266:	
  3237                           ;main.c: 30: while (1)
  3238                           
  3239                           
  3240                           ;main.c: 31: {
  3241                           ;main.c: 32: LCDWriteCharacter('W');
  3242  0670  3057               	movlw	87
  3243  0671  3187  2754  3186   	fcall	_LCDWriteCharacter
  3244  0674  2E70               	goto	l1266
  3245  0675                     __end_of_main:	
  3246                           
  3247                           	psect	text1
  3248  079E                     __ptext1:	
  3249 ;; *************** function _SYSTEM_Initialize *****************
  3250 ;; Defined at:
  3251 ;;		line 37 in file "system.c"
  3252 ;; Parameters:    Size  Location     Type
  3253 ;;		None
  3254 ;; Auto vars:     Size  Location     Type
  3255 ;;  state           1   11[COMMON] char 
  3256 ;; Return value:  Size  Location     Type
  3257 ;;                  1    wreg      void 
  3258 ;; Registers used:
  3259 ;;		wreg, status,2, status,0, pclath, cstack
  3260 ;; Tracked objects:
  3261 ;;		On entry : 0/0
  3262 ;;		On exit  : 0/0
  3263 ;;		Unchanged: 0/0
  3264 ;; Data sizes:     COMMON   BANK0   BANK1   BANK2   BANK3   BANK4   BANK5   BANK6   BANK7   BANK8   BANK9  BANK10  BANK1
      +1  BANK12
  3265 ;;      Params:         0       0       0       0       0       0       0       0       0       0       0       0       
      +0       0
  3266 ;;      Locals:         1       0       0       0       0       0       0       0       0       0       0       0       
      +0       0
  3267 ;;      Temps:          1       0       0       0       0       0       0       0       0       0       0       0       
      +0       0
  3268 ;;      Totals:         2       0       0       0       0       0       0       0       0       0       0       0       
      +0       0
  3269 ;;Total ram usage:        2 bytes
  3270 ;; Hardware stack levels used:    1
  3271 ;; Hardware stack levels required when called:    3
  3272 ;; This function calls:
  3273 ;;		_LCDClear
  3274 ;;		_LCDInit
  3275 ;;		_OSCILLATOR_Initialize
  3276 ;;		_SPI_Init
  3277 ;; This function is called by:
  3278 ;;		_main
  3279 ;; This function uses a non-reentrant model
  3280 ;;
  3281                           
  3282                           
  3283                           ;psect for function _SYSTEM_Initialize
  3284  079E                     _SYSTEM_Initialize:	
  3285                           
  3286                           ;system.c: 39: TRISA = 0x30;
  3287                           
  3288                           ;incstack = 0
  3289                           ; Regs used in _SYSTEM_Initialize: [wreg+status,2+status,0+pclath+cstack]
  3290  079E  3030               	movlw	48
  3291  079F  0020               	movlb	0	; select bank0
  3292  07A0  0091               	movwf	17	;volatile
  3293                           
  3294                           ;system.c: 40: TRISB = 0x00;
  3295  07A1  0192               	clrf	18	;volatile
  3296                           
  3297                           ;system.c: 41: TRISC = 0x08;
  3298  07A2  3008               	movlw	8
  3299  07A3  0093               	movwf	19	;volatile
  3300                           
  3301                           ;system.c: 43: ANSELA = 0x10;
  3302  07A4  3010               	movlw	16
  3303  07A5  003E               	movlb	30	; select bank30
  3304  07A6  00B8               	movwf	56	;volatile
  3305                           
  3306                           ;system.c: 44: ANSELB = 0x00;
  3307  07A7  01C3               	clrf	67	;volatile
  3308                           
  3309                           ;system.c: 45: ANSELC = 0x00;
  3310  07A8  01CE               	clrf	78	;volatile
  3311                           
  3312                           ;system.c: 47: LATA = 0x00;
  3313  07A9  0020               	movlb	0	; select bank0
  3314  07AA  0196               	clrf	22	;volatile
  3315                           
  3316                           ;system.c: 48: LATB = 0x20;
  3317  07AB  3020               	movlw	32
  3318  07AC  0097               	movwf	23	;volatile
  3319                           
  3320                           ;system.c: 49: LATC = 0x00;
  3321  07AD  0198               	clrf	24	;volatile
  3322                           
  3323                           ;system.c: 51: WPUA = 0x00;
  3324  07AE  003E               	movlb	30	; select bank30
  3325  07AF  01B9               	clrf	57	;volatile
  3326                           
  3327                           ;system.c: 52: WPUB = 0x00;
  3328  07B0  01C4               	clrf	68	;volatile
  3329                           
  3330                           ;system.c: 53: WPUC = 0x00;
  3331  07B1  01CF               	clrf	79	;volatile
  3332                           
  3333                           ;system.c: 54: WPUE = 0x8;
  3334  07B2  3008               	movlw	8
  3335  07B3  00E5               	movwf	101	;volatile
  3336                           
  3337                           ;system.c: 56: OSCILLATOR_Initialize();
  3338  07B4  3186  2610  3187   	fcall	_OSCILLATOR_Initialize
  3339                           
  3340                           ;system.c: 57: FVRCON = 0x00;
  3341  07B7  0032               	movlb	18	; select bank18
  3342  07B8  018C               	clrf	12	;volatile
  3343                           
  3344                           ;system.c: 61: SPI_Init();
  3345  07B9  3186  2618  3187   	fcall	_SPI_Init
  3346                           
  3347                           ;system.c: 62: LCDInit();
  3348  07BC  3187  2717  3187   	fcall	_LCDInit
  3349                           
  3350                           ;system.c: 63: _delay((unsigned long)((200)*(1000000/4000.0)));
  3351  07BF  3041               	movlw	65
  3352  07C0  00FA               	movwf	??_SYSTEM_Initialize
  3353  07C1  30EE               	movlw	238
  3354  07C2                     u897:	
  3355  07C2  0B89               	decfsz	9,f
  3356  07C3  2FC2               	goto	u897
  3357  07C4  0BFA               	decfsz	??_SYSTEM_Initialize,f
  3358  07C5  2FC2               	goto	u897
  3359  07C6  3200               	nop2
  3360                           
  3361                           ;system.c: 64: LCDClear();
  3362  07C7  3186  269A  3187   	fcall	_LCDClear
  3363                           
  3364                           ;system.c: 65: _delay((unsigned long)((100)*(1000000/4000.0)));
  3365  07CA  3021               	movlw	33
  3366  07CB  00FA               	movwf	??_SYSTEM_Initialize
  3367  07CC  3076               	movlw	118
  3368  07CD                     u907:	
  3369  07CD  0B89               	decfsz	9,f
  3370  07CE  2FCD               	goto	u907
  3371  07CF  0BFA               	decfsz	??_SYSTEM_Initialize,f
  3372  07D0  2FCD               	goto	u907
  3373  07D1  3200               	nop2
  3374                           
  3375                           ;system.c: 67: PIE0bits.IOCIE = 0;
  3376  07D2  002E               	movlb	14	; select bank14
  3377  07D3  1216               	bcf	22,4	;volatile
  3378                           
  3379                           ;system.c: 68: signed char state = GIE;
  3380  07D4  3000               	movlw	0
  3381  07D5  1B8B               	btfsc	11,7	;volatile
  3382  07D6  3001               	movlw	1
  3383  07D7  00FB               	movwf	SYSTEM_Initialize@state
  3384                           
  3385                           ;system.c: 69: GIE = 0;
  3386  07D8  138B               	bcf	11,7	;volatile
  3387                           
  3388                           ;system.c: 70: PPSLOCK = 0x55;
  3389  07D9  3055               	movlw	85
  3390  07DA  003D               	movlb	29	; select bank29
  3391  07DB  008F               	movwf	15	;volsfr
  3392                           
  3393                           ;system.c: 71: PPSLOCK = 0xAA;
  3394  07DC  30AA               	movlw	170
  3395  07DD  008F               	movwf	15	;volsfr
  3396                           
  3397                           ;system.c: 72: PPSLOCKbits.PPSLOCKED = 0x00;
  3398  07DE  100F               	bcf	15,0	;volsfr
  3399                           
  3400                           ;system.c: 74: SSP1DATPPS = 0x14;
  3401  07DF  3014               	movlw	20
  3402  07E0  00C6               	movwf	70	;volatile
  3403                           
  3404                           ;system.c: 75: RC5PPS = 0x15;
  3405  07E1  3015               	movlw	21
  3406  07E2  003E               	movlb	30	; select bank30
  3407  07E3  00A5               	movwf	37	;volatile
  3408                           
  3409                           ;system.c: 76: RC3PPS = 0x14;
  3410  07E4  3014               	movlw	20
  3411  07E5  00A3               	movwf	35	;volatile
  3412                           
  3413                           ;system.c: 84: PPSLOCK = 0x55;
  3414  07E6  3055               	movlw	85
  3415  07E7  003D               	movlb	29	; select bank29
  3416  07E8  008F               	movwf	15	;volsfr
  3417                           
  3418                           ;system.c: 85: PPSLOCK = 0xAA;
  3419  07E9  30AA               	movlw	170
  3420  07EA  008F               	movwf	15	;volsfr
  3421                           
  3422                           ;system.c: 86: PPSLOCKbits.PPSLOCKED = 0x01;
  3423  07EB  140F               	bsf	15,0	;volsfr
  3424                           
  3425                           ;system.c: 87: GIE = state;
  3426  07EC  1C7B               	btfss	SYSTEM_Initialize@state,0
  3427  07ED  2FF0               	goto	u490
  3428  07EE  178B               	bsf	11,7	;volatile
  3429  07EF  0008               	return
  3430  07F0                     u490:	
  3431  07F0  138B               	bcf	11,7	;volatile
  3432  07F1  0008               	return
  3433  07F2                     __end_of_SYSTEM_Initialize:	
  3434                           
  3435                           	psect	text2
  3436  0618                     __ptext2:	
  3437 ;; *************** function _SPI_Init *****************
  3438 ;; Defined at:
  3439 ;;		line 4 in file "spi.c"
  3440 ;; Parameters:    Size  Location     Type
  3441 ;;		None
  3442 ;; Auto vars:     Size  Location     Type
  3443 ;;		None
  3444 ;; Return value:  Size  Location     Type
  3445 ;;                  1    wreg      void 
  3446 ;; Registers used:
  3447 ;;		wreg
  3448 ;; Tracked objects:
  3449 ;;		On entry : 0/0
  3450 ;;		On exit  : 0/0
  3451 ;;		Unchanged: 0/0
  3452 ;; Data sizes:     COMMON   BANK0   BANK1   BANK2   BANK3   BANK4   BANK5   BANK6   BANK7   BANK8   BANK9  BANK10  BANK1
      +1  BANK12
  3453 ;;      Params:         0       0       0       0       0       0       0       0       0       0       0       0       
      +0       0
  3454 ;;      Locals:         0       0       0       0       0       0       0       0       0       0       0       0       
      +0       0
  3455 ;;      Temps:          0       0       0       0       0       0       0       0       0       0       0       0       
      +0       0
  3456 ;;      Totals:         0       0       0       0       0       0       0       0       0       0       0       0       
      +0       0
  3457 ;;Total ram usage:        0 bytes
  3458 ;; Hardware stack levels used:    1
  3459 ;; This function calls:
  3460 ;;		Nothing
  3461 ;; This function is called by:
  3462 ;;		_SYSTEM_Initialize
  3463 ;; This function uses a non-reentrant model
  3464 ;;
  3465                           
  3466                           
  3467                           ;psect for function _SPI_Init
  3468  0618                     _SPI_Init:	
  3469                           
  3470                           ;spi.c: 13: SSP1CON1 = 0x22;
  3471                           
  3472                           ;incstack = 0
  3473                           ; Regs used in _SPI_Init: [wreg]
  3474  0618  3022               	movlw	34
  3475  0619  0023               	movlb	3	; select bank3
  3476  061A  0090               	movwf	16	;volatile
  3477                           
  3478                           ;spi.c: 14: SSP1DATPPS = 0x14;
  3479  061B  3014               	movlw	20
  3480  061C  003D               	movlb	29	; select bank29
  3481  061D  00C6               	movwf	70	;volatile
  3482                           
  3483                           ;spi.c: 15: RC5PPS = 0x15;
  3484  061E  3015               	movlw	21
  3485  061F  003E               	movlb	30	; select bank30
  3486  0620  00A5               	movwf	37	;volatile
  3487                           
  3488                           ;spi.c: 16: RC3PPS = 0x14;
  3489  0621  3014               	movlw	20
  3490  0622  00A3               	movwf	35	;volatile
  3491                           
  3492                           ;spi.c: 17: SSP1STATbits.CKE = 1;
  3493  0623  0023               	movlb	3	; select bank3
  3494  0624  170F               	bsf	15,6	;volatile
  3495  0625  0008               	return
  3496  0626                     __end_of_SPI_Init:	
  3497                           
  3498                           	psect	text3
  3499  0610                     __ptext3:	
  3500 ;; *************** function _OSCILLATOR_Initialize *****************
  3501 ;; Defined at:
  3502 ;;		line 90 in file "system.c"
  3503 ;; Parameters:    Size  Location     Type
  3504 ;;		None
  3505 ;; Auto vars:     Size  Location     Type
  3506 ;;		None
  3507 ;; Return value:  Size  Location     Type
  3508 ;;                  1    wreg      void 
  3509 ;; Registers used:
  3510 ;;		wreg, status,2
  3511 ;; Tracked objects:
  3512 ;;		On entry : 0/0
  3513 ;;		On exit  : 0/0
  3514 ;;		Unchanged: 0/0
  3515 ;; Data sizes:     COMMON   BANK0   BANK1   BANK2   BANK3   BANK4   BANK5   BANK6   BANK7   BANK8   BANK9  BANK10  BANK1
      +1  BANK12
  3516 ;;      Params:         0       0       0       0       0       0       0       0       0       0       0       0       
      +0       0
  3517 ;;      Locals:         0       0       0       0       0       0       0       0       0       0       0       0       
      +0       0
  3518 ;;      Temps:          0       0       0       0       0       0       0       0       0       0       0       0       
      +0       0
  3519 ;;      Totals:         0       0       0       0       0       0       0       0       0       0       0       0       
      +0       0
  3520 ;;Total ram usage:        0 bytes
  3521 ;; Hardware stack levels used:    1
  3522 ;; This function calls:
  3523 ;;		Nothing
  3524 ;; This function is called by:
  3525 ;;		_SYSTEM_Initialize
  3526 ;; This function uses a non-reentrant model
  3527 ;;
  3528                           
  3529                           
  3530                           ;psect for function _OSCILLATOR_Initialize
  3531  0610                     _OSCILLATOR_Initialize:	
  3532                           
  3533                           ;system.c: 92: OSCCON1 = 0x60;
  3534                           
  3535                           ;incstack = 0
  3536                           ; Regs used in _OSCILLATOR_Initialize: [wreg+status,2]
  3537  0610  3060               	movlw	96
  3538  0611  0031               	movlb	17	; select bank17
  3539  0612  008D               	movwf	13	;volatile
  3540                           
  3541                           ;system.c: 93: OSCCON3 = 0x00;
  3542  0613  018F               	clrf	15	;volatile
  3543                           
  3544                           ;system.c: 94: OSCEN = 0x00;
  3545  0614  0191               	clrf	17	;volatile
  3546                           
  3547                           ;system.c: 95: OSCFRQ = 0x00;
  3548  0615  0193               	clrf	19	;volatile
  3549                           
  3550                           ;system.c: 96: OSCTUNE = 0x00;
  3551  0616  0192               	clrf	18	;volatile
  3552  0617  0008               	return
  3553  0618                     __end_of_OSCILLATOR_Initialize:	
  3554                           
  3555                           	psect	text4
  3556  0717                     __ptext4:	
  3557 ;; *************** function _LCDInit *****************
  3558 ;; Defined at:
  3559 ;;		line 257 in file "lcd_5110_spi.c"
  3560 ;; Parameters:    Size  Location     Type
  3561 ;;		None
  3562 ;; Auto vars:     Size  Location     Type
  3563 ;;		None
  3564 ;; Return value:  Size  Location     Type
  3565 ;;                  1    wreg      void 
  3566 ;; Registers used:
  3567 ;;		wreg, status,2, status,0, pclath, cstack
  3568 ;; Tracked objects:
  3569 ;;		On entry : 0/0
  3570 ;;		On exit  : 0/0
  3571 ;;		Unchanged: 0/0
  3572 ;; Data sizes:     COMMON   BANK0   BANK1   BANK2   BANK3   BANK4   BANK5   BANK6   BANK7   BANK8   BANK9  BANK10  BANK1
      +1  BANK12
  3573 ;;      Params:         0       0       0       0       0       0       0       0       0       0       0       0       
      +0       0
  3574 ;;      Locals:         0       0       0       0       0       0       0       0       0       0       0       0       
      +0       0
  3575 ;;      Temps:          1       0       0       0       0       0       0       0       0       0       0       0       
      +0       0
  3576 ;;      Totals:         1       0       0       0       0       0       0       0       0       0       0       0       
      +0       0
  3577 ;;Total ram usage:        1 bytes
  3578 ;; Hardware stack levels used:    1
  3579 ;; Hardware stack levels required when called:    1
  3580 ;; This function calls:
  3581 ;;		_SPIWrite
  3582 ;; This function is called by:
  3583 ;;		_SYSTEM_Initialize
  3584 ;; This function uses a non-reentrant model
  3585 ;;
  3586                           
  3587                           
  3588                           ;psect for function _LCDInit
  3589  0717                     _LCDInit:	
  3590                           
  3591                           ;lcd_5110_spi.c: 259: TRISBbits.TRISB0 = 0;
  3592                           
  3593                           ;incstack = 0
  3594                           ; Regs used in _LCDInit: [wreg+status,2+status,0+pclath+cstack]
  3595  0717  0020               	movlb	0	; select bank0
  3596  0718  1012               	bcf	18,0	;volatile
  3597                           
  3598                           ;lcd_5110_spi.c: 260: TRISBbits.TRISB1 = 0;
  3599  0719  1092               	bcf	18,1	;volatile
  3600                           
  3601                           ;lcd_5110_spi.c: 261: TRISBbits.TRISB2 = 0;
  3602  071A  1112               	bcf	18,2	;volatile
  3603                           
  3604                           ;lcd_5110_spi.c: 262: TRISCbits.TRISC2 = 0;
  3605  071B  1113               	bcf	19,2	;volatile
  3606                           
  3607                           ;lcd_5110_spi.c: 263: TRISCbits.TRISC5 = 0;
  3608  071C  1293               	bcf	19,5	;volatile
  3609                           
  3610                           ;lcd_5110_spi.c: 264: RC5PPS = 0;
  3611  071D  003E               	movlb	30	; select bank30
  3612  071E  01A5               	clrf	37	;volatile
  3613                           
  3614                           ;lcd_5110_spi.c: 265: RC2PPS = 0;
  3615  071F  01A2               	clrf	34	;volatile
  3616                           
  3617                           ;lcd_5110_spi.c: 266: LATBbits.LATB2 = 0;
  3618  0720  0020               	movlb	0	; select bank0
  3619  0721  1117               	bcf	23,2	;volatile
  3620                           
  3621                           ;lcd_5110_spi.c: 267: LATBbits.LATB0 = 0;
  3622  0722  1017               	bcf	23,0	;volatile
  3623                           
  3624                           ;lcd_5110_spi.c: 269: LATBbits.LATB0 = 1;
  3625  0723  1417               	bsf	23,0	;volatile
  3626                           
  3627                           ;lcd_5110_spi.c: 271: SPIWrite(0, 0x21);
  3628  0724  3021               	movlw	33
  3629  0725  00F4               	movwf	??_LCDInit
  3630  0726  0874               	movf	??_LCDInit,w
  3631  0727  00F0               	movwf	SPIWrite@data
  3632  0728  3000               	movlw	0
  3633  0729  3186  26C0  3187   	fcall	_SPIWrite
  3634                           
  3635                           ;lcd_5110_spi.c: 278: SPIWrite(0, 0xBE);
  3636  072C  30BE               	movlw	190
  3637  072D  00F4               	movwf	??_LCDInit
  3638  072E  0874               	movf	??_LCDInit,w
  3639  072F  00F0               	movwf	SPIWrite@data
  3640  0730  3000               	movlw	0
  3641  0731  3186  26C0  3187   	fcall	_SPIWrite
  3642                           
  3643                           ;lcd_5110_spi.c: 280: SPIWrite(0, 0x04);
  3644  0734  3004               	movlw	4
  3645  0735  00F4               	movwf	??_LCDInit
  3646  0736  0874               	movf	??_LCDInit,w
  3647  0737  00F0               	movwf	SPIWrite@data
  3648  0738  3000               	movlw	0
  3649  0739  3186  26C0  3187   	fcall	_SPIWrite
  3650                           
  3651                           ;lcd_5110_spi.c: 282: SPIWrite(0, 0x13);
  3652  073C  3013               	movlw	19
  3653  073D  00F4               	movwf	??_LCDInit
  3654  073E  0874               	movf	??_LCDInit,w
  3655  073F  00F0               	movwf	SPIWrite@data
  3656  0740  3000               	movlw	0
  3657  0741  3186  26C0  3187   	fcall	_SPIWrite
  3658                           
  3659                           ;lcd_5110_spi.c: 284: SPIWrite(0, 0x20);
  3660  0744  3020               	movlw	32
  3661  0745  00F4               	movwf	??_LCDInit
  3662  0746  0874               	movf	??_LCDInit,w
  3663  0747  00F0               	movwf	SPIWrite@data
  3664  0748  3000               	movlw	0
  3665  0749  3186  26C0  3187   	fcall	_SPIWrite
  3666                           
  3667                           ;lcd_5110_spi.c: 286: SPIWrite(0, 0x0C);
  3668  074C  300C               	movlw	12
  3669  074D  00F4               	movwf	??_LCDInit
  3670  074E  0874               	movf	??_LCDInit,w
  3671  074F  00F0               	movwf	SPIWrite@data
  3672  0750  3000               	movlw	0
  3673  0751  3186  26C0         	fcall	_SPIWrite
  3674  0753  0008               	return
  3675  0754                     __end_of_LCDInit:	
  3676                           
  3677                           	psect	text5
  3678  069A                     __ptext5:	
  3679 ;; *************** function _LCDClear *****************
  3680 ;; Defined at:
  3681 ;;		line 192 in file "lcd_5110_spi.c"
  3682 ;; Parameters:    Size  Location     Type
  3683 ;;		None
  3684 ;; Auto vars:     Size  Location     Type
  3685 ;;  index           2    8[COMMON] int 
  3686 ;; Return value:  Size  Location     Type
  3687 ;;                  1    wreg      void 
  3688 ;; Registers used:
  3689 ;;		wreg, status,2, status,0, pclath, cstack
  3690 ;; Tracked objects:
  3691 ;;		On entry : 0/0
  3692 ;;		On exit  : 0/0
  3693 ;;		Unchanged: 0/0
  3694 ;; Data sizes:     COMMON   BANK0   BANK1   BANK2   BANK3   BANK4   BANK5   BANK6   BANK7   BANK8   BANK9  BANK10  BANK1
      +1  BANK12
  3695 ;;      Params:         0       0       0       0       0       0       0       0       0       0       0       0       
      +0       0
  3696 ;;      Locals:         2       0       0       0       0       0       0       0       0       0       0       0       
      +0       0
  3697 ;;      Temps:          1       0       0       0       0       0       0       0       0       0       0       0       
      +0       0
  3698 ;;      Totals:         3       0       0       0       0       0       0       0       0       0       0       0       
      +0       0
  3699 ;;Total ram usage:        3 bytes
  3700 ;; Hardware stack levels used:    1
  3701 ;; Hardware stack levels required when called:    2
  3702 ;; This function calls:
  3703 ;;		_LCDWrite
  3704 ;;		_gotoXY
  3705 ;; This function is called by:
  3706 ;;		_SYSTEM_Initialize
  3707 ;; This function uses a non-reentrant model
  3708 ;;
  3709                           
  3710                           
  3711                           ;psect for function _LCDClear
  3712  069A                     _LCDClear:	
  3713                           
  3714                           ;lcd_5110_spi.c: 194: int index;
  3715                           ;lcd_5110_spi.c: 195: for (index = 0 ; index < (84 * 48 / 8) ; index++)
  3716                           
  3717                           ;incstack = 0
  3718                           ; Regs used in _LCDClear: [wreg+status,2+status,0+pclath+cstack]
  3719  069A  01F8               	clrf	LCDClear@index
  3720  069B  01F9               	clrf	LCDClear@index+1
  3721  069C  0879               	movf	LCDClear@index+1,w
  3722  069D  3A80               	xorlw	128
  3723  069E  00F7               	movwf	??_LCDClear
  3724  069F  3081               	movlw	129
  3725  06A0  0277               	subwf	??_LCDClear,w
  3726  06A1  1D03               	skipz
  3727  06A2  2EA5               	goto	u415
  3728  06A3  30F8               	movlw	248
  3729  06A4  0278               	subwf	LCDClear@index,w
  3730  06A5                     u415:	
  3731  06A5  1803               	btfsc	3,0
  3732  06A6  2EBB               	goto	l1032
  3733  06A7                     l1026:	
  3734                           
  3735                           ;lcd_5110_spi.c: 196: LCDWrite(1, 0x00);
  3736  06A7  01F0               	clrf	LCDWrite@data
  3737  06A8  3001               	movlw	1
  3738  06A9  3186  2675  3186   	fcall	_LCDWrite
  3739  06AC  3001               	movlw	1
  3740  06AD  07F8               	addwf	LCDClear@index,f
  3741  06AE  3000               	movlw	0
  3742  06AF  3DF9               	addwfc	LCDClear@index+1,f
  3743  06B0  0879               	movf	LCDClear@index+1,w
  3744  06B1  3A80               	xorlw	128
  3745  06B2  00F7               	movwf	??_LCDClear
  3746  06B3  3081               	movlw	129
  3747  06B4  0277               	subwf	??_LCDClear,w
  3748  06B5  1D03               	skipz
  3749  06B6  2EB9               	goto	u425
  3750  06B7  30F8               	movlw	248
  3751  06B8  0278               	subwf	LCDClear@index,w
  3752  06B9                     u425:	
  3753  06B9  1C03               	skipc
  3754  06BA  2EA7               	goto	l1026
  3755  06BB                     l1032:	
  3756                           
  3757                           ;lcd_5110_spi.c: 197: gotoXY(0, 0);
  3758  06BB  01F4               	clrf	gotoXY@y
  3759  06BC  3000               	movlw	0
  3760  06BD  3186  2626         	fcall	_gotoXY
  3761  06BF  0008               	return
  3762  06C0                     __end_of_LCDClear:	
  3763                           
  3764                           	psect	text6
  3765  0675                     __ptext6:	
  3766 ;; *************** function _LCDWrite *****************
  3767 ;; Defined at:
  3768 ;;		line 335 in file "lcd_5110_spi.c"
  3769 ;; Parameters:    Size  Location     Type
  3770 ;;  data_or_comm    1    wreg     unsigned char 
  3771 ;;  data            1    0[COMMON] unsigned char 
  3772 ;; Auto vars:     Size  Location     Type
  3773 ;;  data_or_comm    1    2[COMMON] unsigned char 
  3774 ;;  i               1    3[COMMON] unsigned char 
  3775 ;; Return value:  Size  Location     Type
  3776 ;;                  1    wreg      void 
  3777 ;; Registers used:
  3778 ;;		wreg, status,2, status,0
  3779 ;; Tracked objects:
  3780 ;;		On entry : 0/0
  3781 ;;		On exit  : 0/0
  3782 ;;		Unchanged: 0/0
  3783 ;; Data sizes:     COMMON   BANK0   BANK1   BANK2   BANK3   BANK4   BANK5   BANK6   BANK7   BANK8   BANK9  BANK10  BANK1
      +1  BANK12
  3784 ;;      Params:         1       0       0       0       0       0       0       0       0       0       0       0       
      +0       0
  3785 ;;      Locals:         2       0       0       0       0       0       0       0       0       0       0       0       
      +0       0
  3786 ;;      Temps:          1       0       0       0       0       0       0       0       0       0       0       0       
      +0       0
  3787 ;;      Totals:         4       0       0       0       0       0       0       0       0       0       0       0       
      +0       0
  3788 ;;Total ram usage:        4 bytes
  3789 ;; Hardware stack levels used:    1
  3790 ;; This function calls:
  3791 ;;		Nothing
  3792 ;; This function is called by:
  3793 ;;		_LCDClear
  3794 ;; This function uses a non-reentrant model
  3795 ;;
  3796                           
  3797                           
  3798                           ;psect for function _LCDWrite
  3799  0675                     _LCDWrite:	
  3800                           
  3801                           ;incstack = 0
  3802                           ; Regs used in _LCDWrite: [wreg+status,2+status,0]
  3803                           ;LCDWrite@data_or_command stored from wreg
  3804  0675  00F2               	movwf	LCDWrite@data_or_command
  3805                           
  3806                           ;lcd_5110_spi.c: 337: char i;
  3807                           ;lcd_5110_spi.c: 341: if(data_or_command == 0)
  3808  0676  0872               	movf	LCDWrite@data_or_command,w
  3809  0677  1D03               	btfss	3,2
  3810  0678  2E7C               	goto	l85
  3811                           
  3812                           ;lcd_5110_spi.c: 342: {
  3813                           ;lcd_5110_spi.c: 343: LATBbits.LATB2 = 0;
  3814  0679  0020               	movlb	0	; select bank0
  3815  067A  1117               	bcf	23,2	;volatile
  3816                           
  3817                           ;lcd_5110_spi.c: 344: }
  3818  067B  2E7E               	goto	l86
  3819  067C                     l85:	
  3820                           
  3821                           ;lcd_5110_spi.c: 345: else
  3822                           ;lcd_5110_spi.c: 346: {
  3823                           ;lcd_5110_spi.c: 347: LATBbits.LATB2 = 1;
  3824  067C  0020               	movlb	0	; select bank0
  3825  067D  1517               	bsf	23,2	;volatile
  3826  067E                     l86:	
  3827                           
  3828                           ;lcd_5110_spi.c: 348: }
  3829                           ;lcd_5110_spi.c: 350: LATBbits.LATB1 = 0;
  3830  067E  1097               	bcf	23,1	;volatile
  3831                           
  3832                           ;lcd_5110_spi.c: 352: for(i=0;i<8;i++)
  3833  067F  01F3               	clrf	LCDWrite@i
  3834  0680  3008               	movlw	8
  3835  0681  0273               	subwf	LCDWrite@i,w
  3836  0682  1803               	btfsc	3,0
  3837  0683  2E97               	goto	l88
  3838  0684                     l1008:	
  3839                           
  3840                           ;lcd_5110_spi.c: 353: {
  3841                           ;lcd_5110_spi.c: 354: RC5PPS = 0;
  3842  0684  003E               	movlb	30	; select bank30
  3843  0685  01A5               	clrf	37	;volatile
  3844                           
  3845                           ;lcd_5110_spi.c: 356: if(data&0x80)
  3846  0686  1FF0               	btfss	LCDWrite@data,7
  3847  0687  2E8A               	goto	l89
  3848                           
  3849                           ;lcd_5110_spi.c: 357: {
  3850                           ;lcd_5110_spi.c: 358: RC5PPS = 1;
  3851  0688  3001               	movlw	1
  3852  0689  00A5               	movwf	37	;volatile
  3853  068A                     l89:	
  3854                           
  3855                           ;lcd_5110_spi.c: 359: }
  3856                           ;lcd_5110_spi.c: 361: RC2PPS = 1;
  3857  068A  3001               	movlw	1
  3858  068B  00A2               	movwf	34	;volatile
  3859                           
  3860                           ;lcd_5110_spi.c: 363: data<<=1;
  3861  068C  1003               	clrc
  3862  068D  0DF0               	rlf	LCDWrite@data,f
  3863                           
  3864                           ;lcd_5110_spi.c: 365: RC2PPS=0;
  3865  068E  01A2               	clrf	34	;volatile
  3866  068F  3001               	movlw	1
  3867  0690  00F1               	movwf	??_LCDWrite
  3868  0691  0871               	movf	??_LCDWrite,w
  3869  0692  07F3               	addwf	LCDWrite@i,f
  3870  0693  3008               	movlw	8
  3871  0694  0273               	subwf	LCDWrite@i,w
  3872  0695  1C03               	skipc
  3873  0696  2E84               	goto	l1008
  3874  0697                     l88:	
  3875                           
  3876                           ;lcd_5110_spi.c: 366: }
  3877                           ;lcd_5110_spi.c: 368: LATBbits.LATB1 = 1;
  3878  0697  0020               	movlb	0	; select bank0
  3879  0698  1497               	bsf	23,1	;volatile
  3880  0699  0008               	return
  3881  069A                     __end_of_LCDWrite:	
  3882                           
  3883                           	psect	text7
  3884  0754                     __ptext7:	
  3885 ;; *************** function _LCDWriteCharacter *****************
  3886 ;; Defined at:
  3887 ;;		line 161 in file "lcd_5110_spi.c"
  3888 ;; Parameters:    Size  Location     Type
  3889 ;;  character       1    wreg     unsigned char 
  3890 ;; Auto vars:     Size  Location     Type
  3891 ;;  character       1    4[BANK0 ] unsigned char 
  3892 ;;  base            2    5[BANK0 ] unsigned int 
  3893 ;;  z               2    2[BANK0 ] unsigned int 
  3894 ;;  x               2    0[BANK0 ] unsigned int 
  3895 ;; Return value:  Size  Location     Type
  3896 ;;                  1    wreg      void 
  3897 ;; Registers used:
  3898 ;;		wreg, fsr0l, fsr0h, status,2, status,0, pclath, cstack
  3899 ;; Tracked objects:
  3900 ;;		On entry : 0/0
  3901 ;;		On exit  : 0/0
  3902 ;;		Unchanged: 0/0
  3903 ;; Data sizes:     COMMON   BANK0   BANK1   BANK2   BANK3   BANK4   BANK5   BANK6   BANK7   BANK8   BANK9  BANK10  BANK1
      +1  BANK12
  3904 ;;      Params:         0       0       0       0       0       0       0       0       0       0       0       0       
      +0       0
  3905 ;;      Locals:         0       7       0       0       0       0       0       0       0       0       0       0       
      +0       0
  3906 ;;      Temps:          2       0       0       0       0       0       0       0       0       0       0       0       
      +0       0
  3907 ;;      Totals:         2       7       0       0       0       0       0       0       0       0       0       0       
      +0       0
  3908 ;;Total ram usage:        9 bytes
  3909 ;; Hardware stack levels used:    1
  3910 ;; Hardware stack levels required when called:    1
  3911 ;; This function calls:
  3912 ;;		_SPIWrite
  3913 ;;		___wmul
  3914 ;; This function is called by:
  3915 ;;		_main
  3916 ;;		_LCDWriteString
  3917 ;;		_LCDWriteInt
  3918 ;; This function uses a non-reentrant model
  3919 ;;
  3920                           
  3921                           
  3922                           ;psect for function _LCDWriteCharacter
  3923  0754                     _LCDWriteCharacter:	
  3924                           
  3925                           ;incstack = 0
  3926                           ; Regs used in _LCDWriteCharacter: [wreg-fsr0h+status,2+status,0+pclath+cstack]
  3927                           ;LCDWriteCharacter@character stored from wreg
  3928  0754  0020               	movlb	0	; select bank0
  3929  0755  00AE               	movwf	LCDWriteCharacter@character
  3930                           
  3931                           ;lcd_5110_spi.c: 172: uint16_t base,x,z;
  3932                           ;lcd_5110_spi.c: 173: base = character - 32;
  3933  0756  082E               	movf	LCDWriteCharacter@character,w
  3934  0757  3EE0               	addlw	224
  3935  0758  00AF               	movwf	LCDWriteCharacter@base
  3936  0759  30FF               	movlw	255
  3937  075A  1803               	skipnc
  3938  075B  3000               	movlw	0
  3939  075C  00B0               	movwf	LCDWriteCharacter@base+1
  3940                           
  3941                           ;lcd_5110_spi.c: 174: base *= 3;
  3942  075D  3003               	movlw	3
  3943  075E  00F0               	movwf	___wmul@multiplier
  3944  075F  3000               	movlw	0
  3945  0760  00F1               	movwf	___wmul@multiplier+1
  3946  0761  0830               	movf	LCDWriteCharacter@base+1,w
  3947  0762  00F3               	movwf	___wmul@multiplicand+1
  3948  0763  082F               	movf	LCDWriteCharacter@base,w
  3949  0764  00F2               	movwf	___wmul@multiplicand
  3950  0765  3186  2639  3187   	fcall	___wmul
  3951  0768  0871               	movf	?___wmul+1,w
  3952  0769  0020               	movlb	0	; select bank0
  3953  076A  00B0               	movwf	LCDWriteCharacter@base+1
  3954  076B  0870               	movf	?___wmul,w
  3955  076C  00AF               	movwf	LCDWriteCharacter@base
  3956                           
  3957                           ;lcd_5110_spi.c: 175: z = base;
  3958  076D  0830               	movf	LCDWriteCharacter@base+1,w
  3959  076E  00AD               	movwf	LCDWriteCharacter@z+1
  3960  076F  082F               	movf	LCDWriteCharacter@base,w
  3961  0770  00AC               	movwf	LCDWriteCharacter@z
  3962                           
  3963                           ;lcd_5110_spi.c: 176: for(x=base;base<(z+3);base++)
  3964  0771  0830               	movf	LCDWriteCharacter@base+1,w
  3965  0772  00AB               	movwf	LCDWriteCharacter@x+1
  3966  0773  082F               	movf	LCDWriteCharacter@base,w
  3967  0774  00AA               	movwf	LCDWriteCharacter@x
  3968  0775                     l1092:	
  3969  0775  082C               	movf	LCDWriteCharacter@z,w
  3970  0776  3E03               	addlw	3
  3971  0777  00F6               	movwf	??_LCDWriteCharacter
  3972  0778  3000               	movlw	0
  3973  0779  3D2D               	addwfc	LCDWriteCharacter@z+1,w
  3974  077A  00F7               	movwf	??_LCDWriteCharacter+1
  3975  077B  0877               	movf	??_LCDWriteCharacter+1,w
  3976  077C  0230               	subwf	LCDWriteCharacter@base+1,w
  3977  077D  1D03               	skipz
  3978  077E  2F81               	goto	u485
  3979  077F  0876               	movf	??_LCDWriteCharacter,w
  3980  0780  022F               	subwf	LCDWriteCharacter@base,w
  3981  0781                     u485:	
  3982  0781  1803               	btfsc	3,0
  3983  0782  2F99               	goto	l1094
  3984                           
  3985                           ;lcd_5110_spi.c: 177: {
  3986                           ;lcd_5110_spi.c: 178: SPIWrite(1,fonts[base]);
  3987  0783  0830               	movf	LCDWriteCharacter@base+1,w
  3988  0784  0085               	movwf	5
  3989  0785  082F               	movf	LCDWriteCharacter@base,w
  3990  0786  0084               	movwf	4
  3991  0787  30F8               	movlw	low (_fonts| (0+32768))
  3992  0788  0784               	addwf	4,f
  3993  0789  3089               	movlw	high (_fonts| (0+32768))
  3994  078A  3D85               	addwfc	5,f
  3995  078B  0800               	movf	0,w	;code access
  3996  078C  00F6               	movwf	??_LCDWriteCharacter
  3997  078D  0876               	movf	??_LCDWriteCharacter,w
  3998  078E  00F0               	movwf	SPIWrite@data
  3999  078F  3001               	movlw	1
  4000  0790  3186  26C0  3187   	fcall	_SPIWrite
  4001  0793  3001               	movlw	1
  4002  0794  0020               	movlb	0	; select bank0
  4003  0795  07AF               	addwf	LCDWriteCharacter@base,f
  4004  0796  3000               	movlw	0
  4005  0797  3DB0               	addwfc	LCDWriteCharacter@base+1,f
  4006  0798  2F75               	goto	l1092
  4007  0799                     l1094:	
  4008                           
  4009                           ;lcd_5110_spi.c: 180: }
  4010                           ;lcd_5110_spi.c: 181: SPIWrite(1, 0x00);
  4011  0799  01F0               	clrf	SPIWrite@data
  4012  079A  3001               	movlw	1
  4013  079B  3186  26C0         	fcall	_SPIWrite
  4014  079D  0008               	return
  4015  079E                     __end_of_LCDWriteCharacter:	
  4016                           
  4017                           	psect	text8
  4018  0639                     __ptext8:	
  4019 ;; *************** function ___wmul *****************
  4020 ;; Defined at:
  4021 ;;		line 15 in file "C:\Program Files (x86)\Microchip\xc8\v1.45\sources\common\Umul16.c"
  4022 ;; Parameters:    Size  Location     Type
  4023 ;;  multiplier      2    0[COMMON] unsigned int 
  4024 ;;  multiplicand    2    2[COMMON] unsigned int 
  4025 ;; Auto vars:     Size  Location     Type
  4026 ;;  product         2    4[COMMON] unsigned int 
  4027 ;; Return value:  Size  Location     Type
  4028 ;;                  2    0[COMMON] unsigned int 
  4029 ;; Registers used:
  4030 ;;		wreg, status,2, status,0
  4031 ;; Tracked objects:
  4032 ;;		On entry : 0/0
  4033 ;;		On exit  : 0/0
  4034 ;;		Unchanged: 0/0
  4035 ;; Data sizes:     COMMON   BANK0   BANK1   BANK2   BANK3   BANK4   BANK5   BANK6   BANK7   BANK8   BANK9  BANK10  BANK1
      +1  BANK12
  4036 ;;      Params:         4       0       0       0       0       0       0       0       0       0       0       0       
      +0       0
  4037 ;;      Locals:         2       0       0       0       0       0       0       0       0       0       0       0       
      +0       0
  4038 ;;      Temps:          0       0       0       0       0       0       0       0       0       0       0       0       
      +0       0
  4039 ;;      Totals:         6       0       0       0       0       0       0       0       0       0       0       0       
      +0       0
  4040 ;;Total ram usage:        6 bytes
  4041 ;; Hardware stack levels used:    1
  4042 ;; This function calls:
  4043 ;;		Nothing
  4044 ;; This function is called by:
  4045 ;;		_LCDWriteCharacter
  4046 ;; This function uses a non-reentrant model
  4047 ;;
  4048                           
  4049                           
  4050                           ;psect for function ___wmul
  4051  0639                     ___wmul:	
  4052                           
  4053                           ;incstack = 0
  4054                           ; Regs used in ___wmul: [wreg+status,2+status,0]
  4055  0639  01F4               	clrf	___wmul@product
  4056  063A  01F5               	clrf	___wmul@product+1
  4057  063B                     l1058:	
  4058  063B  1C70               	btfss	___wmul@multiplier,0
  4059  063C  2E41               	goto	l282
  4060  063D  0872               	movf	___wmul@multiplicand,w
  4061  063E  07F4               	addwf	___wmul@product,f
  4062  063F  0873               	movf	___wmul@multiplicand+1,w
  4063  0640  3DF5               	addwfc	___wmul@product+1,f
  4064  0641                     l282:	
  4065  0641  3001               	movlw	1
  4066  0642                     u445:	
  4067  0642  35F2               	lslf	___wmul@multiplicand,f
  4068  0643  0DF3               	rlf	___wmul@multiplicand+1,f
  4069  0644  0B89               	decfsz	9,f
  4070  0645  2E42               	goto	u445
  4071  0646  3001               	movlw	1
  4072  0647                     u455:	
  4073  0647  36F1               	lsrf	___wmul@multiplier+1,f
  4074  0648  0CF0               	rrf	___wmul@multiplier,f
  4075  0649  0B89               	decfsz	9,f
  4076  064A  2E47               	goto	u455
  4077  064B  0870               	movf	___wmul@multiplier,w
  4078  064C  0471               	iorwf	___wmul@multiplier+1,w
  4079  064D  1D03               	btfss	3,2
  4080  064E  2E3B               	goto	l1058
  4081  064F  0875               	movf	___wmul@product+1,w
  4082  0650  00F1               	movwf	?___wmul+1
  4083  0651  0874               	movf	___wmul@product,w
  4084  0652  00F0               	movwf	?___wmul
  4085  0653  0008               	return
  4086  0654                     __end_of___wmul:	
  4087                           
  4088                           	psect	text9
  4089  06EB                     __ptext9:	
  4090 ;; *************** function _LCDBitmap *****************
  4091 ;; Defined at:
  4092 ;;		line 131 in file "lcd_5110_spi.c"
  4093 ;; Parameters:    Size  Location     Type
  4094 ;;  bmp_array       2    7[COMMON] PTR const unsigned char 
  4095 ;;		 -> coffee(504), 
  4096 ;;  startLine       1    9[COMMON] unsigned char 
  4097 ;;  len             2   10[COMMON] int 
  4098 ;; Auto vars:     Size  Location     Type
  4099 ;;  index           2    0[BANK0 ] int 
  4100 ;; Return value:  Size  Location     Type
  4101 ;;                  1    wreg      void 
  4102 ;; Registers used:
  4103 ;;		wreg, fsr0l, fsr0h, status,2, status,0, pclath, cstack
  4104 ;; Tracked objects:
  4105 ;;		On entry : 0/0
  4106 ;;		On exit  : 0/0
  4107 ;;		Unchanged: 0/0
  4108 ;; Data sizes:     COMMON   BANK0   BANK1   BANK2   BANK3   BANK4   BANK5   BANK6   BANK7   BANK8   BANK9  BANK10  BANK1
      +1  BANK12
  4109 ;;      Params:         5       0       0       0       0       0       0       0       0       0       0       0       
      +0       0
  4110 ;;      Locals:         0       2       0       0       0       0       0       0       0       0       0       0       
      +0       0
  4111 ;;      Temps:          1       0       0       0       0       0       0       0       0       0       0       0       
      +0       0
  4112 ;;      Totals:         6       2       0       0       0       0       0       0       0       0       0       0       
      +0       0
  4113 ;;Total ram usage:        8 bytes
  4114 ;; Hardware stack levels used:    1
  4115 ;; Hardware stack levels required when called:    2
  4116 ;; This function calls:
  4117 ;;		_SPIWrite
  4118 ;;		_gotoXY
  4119 ;; This function is called by:
  4120 ;;		_main
  4121 ;; This function uses a non-reentrant model
  4122 ;;
  4123                           
  4124                           
  4125                           ;psect for function _LCDBitmap
  4126  06EB                     _LCDBitmap:	
  4127                           
  4128                           ;lcd_5110_spi.c: 133: int index;
  4129                           ;lcd_5110_spi.c: 134: gotoXY(0,startLine);
  4130                           
  4131                           ;incstack = 0
  4132                           ; Regs used in _LCDBitmap: [wreg-fsr0h+status,2+status,0+pclath+cstack]
  4133  06EB  0879               	movf	LCDBitmap@startLine,w
  4134  06EC  00FC               	movwf	??_LCDBitmap
  4135  06ED  087C               	movf	??_LCDBitmap,w
  4136  06EE  00F4               	movwf	gotoXY@y
  4137  06EF  3000               	movlw	0
  4138  06F0  3186  2626  3186   	fcall	_gotoXY
  4139                           
  4140                           ;lcd_5110_spi.c: 135: for (index = 0 ; index < len ; index++)
  4141  06F3  0020               	movlb	0	; select bank0
  4142  06F4  01AA               	clrf	LCDBitmap@index
  4143  06F5  01AB               	clrf	LCDBitmap@index+1
  4144  06F6                     l1078:	
  4145  06F6  082B               	movf	LCDBitmap@index+1,w
  4146  06F7  3A80               	xorlw	128
  4147  06F8  00FC               	movwf	??_LCDBitmap
  4148  06F9  087B               	movf	LCDBitmap@len+1,w
  4149  06FA  3A80               	xorlw	128
  4150  06FB  027C               	subwf	??_LCDBitmap,w
  4151  06FC  1D03               	skipz
  4152  06FD  2F00               	goto	u475
  4153  06FE  087A               	movf	LCDBitmap@len,w
  4154  06FF  022A               	subwf	LCDBitmap@index,w
  4155  0700                     u475:	
  4156  0700  1803               	btfsc	3,0
  4157  0701  0008               	return
  4158                           
  4159                           ;lcd_5110_spi.c: 136: {
  4160                           ;lcd_5110_spi.c: 137: SPIWrite(1, bmp_array[index]);
  4161  0702  0877               	movf	LCDBitmap@bmp_array,w
  4162  0703  0020               	movlb	0	; select bank0
  4163  0704  072A               	addwf	LCDBitmap@index,w
  4164  0705  0084               	movwf	4
  4165  0706  0878               	movf	LCDBitmap@bmp_array+1,w
  4166  0707  3D2B               	addwfc	LCDBitmap@index+1,w
  4167  0708  0085               	movwf	5
  4168  0709  0800               	movf	0,w	;code access
  4169  070A  00FC               	movwf	??_LCDBitmap
  4170  070B  087C               	movf	??_LCDBitmap,w
  4171  070C  00F0               	movwf	SPIWrite@data
  4172  070D  3001               	movlw	1
  4173  070E  3186  26C0  3186   	fcall	_SPIWrite
  4174  0711  3001               	movlw	1
  4175  0712  0020               	movlb	0	; select bank0
  4176  0713  07AA               	addwf	LCDBitmap@index,f
  4177  0714  3000               	movlw	0
  4178  0715  3DAB               	addwfc	LCDBitmap@index+1,f
  4179  0716  2EF6               	goto	l1078
  4180  0717                     __end_of_LCDBitmap:	
  4181                           
  4182                           	psect	text10
  4183  0626                     __ptext10:	
  4184 ;; *************** function _gotoXY *****************
  4185 ;; Defined at:
  4186 ;;		line 124 in file "lcd_5110_spi.c"
  4187 ;; Parameters:    Size  Location     Type
  4188 ;;  x               1    wreg     unsigned char 
  4189 ;;  y               1    4[COMMON] unsigned char 
  4190 ;; Auto vars:     Size  Location     Type
  4191 ;;  x               1    6[COMMON] unsigned char 
  4192 ;; Return value:  Size  Location     Type
  4193 ;;                  1    wreg      void 
  4194 ;; Registers used:
  4195 ;;		wreg, status,2, status,0, pclath, cstack
  4196 ;; Tracked objects:
  4197 ;;		On entry : 0/0
  4198 ;;		On exit  : 0/0
  4199 ;;		Unchanged: 0/0
  4200 ;; Data sizes:     COMMON   BANK0   BANK1   BANK2   BANK3   BANK4   BANK5   BANK6   BANK7   BANK8   BANK9  BANK10  BANK1
      +1  BANK12
  4201 ;;      Params:         1       0       0       0       0       0       0       0       0       0       0       0       
      +0       0
  4202 ;;      Locals:         1       0       0       0       0       0       0       0       0       0       0       0       
      +0       0
  4203 ;;      Temps:          1       0       0       0       0       0       0       0       0       0       0       0       
      +0       0
  4204 ;;      Totals:         3       0       0       0       0       0       0       0       0       0       0       0       
      +0       0
  4205 ;;Total ram usage:        3 bytes
  4206 ;; Hardware stack levels used:    1
  4207 ;; Hardware stack levels required when called:    1
  4208 ;; This function calls:
  4209 ;;		_SPIWrite
  4210 ;; This function is called by:
  4211 ;;		_LCDBitmap
  4212 ;;		_LCDClear
  4213 ;;		_LCDDrawBox
  4214 ;; This function uses a non-reentrant model
  4215 ;;
  4216                           
  4217                           
  4218                           ;psect for function _gotoXY
  4219  0626                     _gotoXY:	
  4220                           
  4221                           ;incstack = 0
  4222                           ; Regs used in _gotoXY: [wreg+status,2+status,0+pclath+cstack]
  4223                           ;gotoXY@x stored from wreg
  4224  0626  00F6               	movwf	gotoXY@x
  4225                           
  4226                           ;lcd_5110_spi.c: 126: SPIWrite(0, 0x80 | x);
  4227  0627  0876               	movf	gotoXY@x,w
  4228  0628  3880               	iorlw	128
  4229  0629  00F5               	movwf	??_gotoXY
  4230  062A  0875               	movf	??_gotoXY,w
  4231  062B  00F0               	movwf	SPIWrite@data
  4232  062C  3000               	movlw	0
  4233  062D  3186  26C0  3186   	fcall	_SPIWrite
  4234                           
  4235                           ;lcd_5110_spi.c: 127: SPIWrite(0, 0x40 | y);
  4236  0630  0874               	movf	gotoXY@y,w
  4237  0631  3840               	iorlw	64
  4238  0632  00F5               	movwf	??_gotoXY
  4239  0633  0875               	movf	??_gotoXY,w
  4240  0634  00F0               	movwf	SPIWrite@data
  4241  0635  3000               	movlw	0
  4242  0636  3186  26C0         	fcall	_SPIWrite
  4243  0638  0008               	return
  4244  0639                     __end_of_gotoXY:	
  4245                           
  4246                           	psect	text11
  4247  06C0                     __ptext11:	
  4248 ;; *************** function _SPIWrite *****************
  4249 ;; Defined at:
  4250 ;;		line 289 in file "lcd_5110_spi.c"
  4251 ;; Parameters:    Size  Location     Type
  4252 ;;  data_or_comm    1    wreg     unsigned char 
  4253 ;;  data            1    0[COMMON] unsigned char 
  4254 ;; Auto vars:     Size  Location     Type
  4255 ;;  data_or_comm    1    2[COMMON] unsigned char 
  4256 ;;  receivedChar    1    3[COMMON] unsigned char 
  4257 ;;  i               1    0        unsigned char 
  4258 ;; Return value:  Size  Location     Type
  4259 ;;                  1    wreg      void 
  4260 ;; Registers used:
  4261 ;;		wreg, status,2, status,0
  4262 ;; Tracked objects:
  4263 ;;		On entry : 0/0
  4264 ;;		On exit  : 0/0
  4265 ;;		Unchanged: 0/0
  4266 ;; Data sizes:     COMMON   BANK0   BANK1   BANK2   BANK3   BANK4   BANK5   BANK6   BANK7   BANK8   BANK9  BANK10  BANK1
      +1  BANK12
  4267 ;;      Params:         1       0       0       0       0       0       0       0       0       0       0       0       
      +0       0
  4268 ;;      Locals:         2       0       0       0       0       0       0       0       0       0       0       0       
      +0       0
  4269 ;;      Temps:          1       0       0       0       0       0       0       0       0       0       0       0       
      +0       0
  4270 ;;      Totals:         4       0       0       0       0       0       0       0       0       0       0       0       
      +0       0
  4271 ;;Total ram usage:        4 bytes
  4272 ;; Hardware stack levels used:    1
  4273 ;; This function calls:
  4274 ;;		Nothing
  4275 ;; This function is called by:
  4276 ;;		_gotoXY
  4277 ;;		_LCDBitmap
  4278 ;;		_LCDWriteCharacter
  4279 ;;		_LCDInit
  4280 ;;		_LCDDrawBox
  4281 ;; This function uses a non-reentrant model
  4282 ;;
  4283                           
  4284                           
  4285                           ;psect for function _SPIWrite
  4286  06C0                     _SPIWrite:	
  4287                           
  4288                           ;incstack = 0
  4289                           ; Regs used in _SPIWrite: [wreg+status,2+status,0]
  4290                           ;SPIWrite@data_or_command stored from wreg
  4291  06C0  00F2               	movwf	SPIWrite@data_or_command
  4292                           
  4293                           ;lcd_5110_spi.c: 291: char i;
  4294                           ;lcd_5110_spi.c: 293: char receivedCharacter = 0;
  4295  06C1  01F3               	clrf	SPIWrite@receivedCharacter
  4296                           
  4297                           ;lcd_5110_spi.c: 297: if(data_or_command == 0)
  4298  06C2  0872               	movf	SPIWrite@data_or_command,w
  4299  06C3  1D03               	btfss	3,2
  4300  06C4  2EC8               	goto	l77
  4301                           
  4302                           ;lcd_5110_spi.c: 298: {
  4303                           ;lcd_5110_spi.c: 299: LATBbits.LATB2 = 0;
  4304  06C5  0020               	movlb	0	; select bank0
  4305  06C6  1117               	bcf	23,2	;volatile
  4306                           
  4307                           ;lcd_5110_spi.c: 300: }
  4308  06C7  2ECA               	goto	l78
  4309  06C8                     l77:	
  4310                           
  4311                           ;lcd_5110_spi.c: 301: else
  4312                           ;lcd_5110_spi.c: 302: {
  4313                           ;lcd_5110_spi.c: 303: LATBbits.LATB2 = 1;
  4314  06C8  0020               	movlb	0	; select bank0
  4315  06C9  1517               	bsf	23,2	;volatile
  4316  06CA                     l78:	
  4317                           
  4318                           ;lcd_5110_spi.c: 304: }
  4319                           ;lcd_5110_spi.c: 306: LATBbits.LATB1 = 0;
  4320  06CA  1097               	bcf	23,1	;volatile
  4321                           
  4322                           ;lcd_5110_spi.c: 308: receivedCharacter = SSP1BUF;
  4323  06CB  0023               	movlb	3	; select bank3
  4324  06CC  080C               	movf	12,w	;volatile
  4325  06CD  00F1               	movwf	??_SPIWrite
  4326  06CE  0871               	movf	??_SPIWrite,w
  4327  06CF  00F3               	movwf	SPIWrite@receivedCharacter
  4328                           
  4329                           ;lcd_5110_spi.c: 310: RC5PPS = 1;
  4330  06D0  3001               	movlw	1
  4331  06D1  003E               	movlb	30	; select bank30
  4332  06D2  00A5               	movwf	37	;volatile
  4333                           
  4334                           ;lcd_5110_spi.c: 312: SSP1BUF = data;
  4335  06D3  0870               	movf	SPIWrite@data,w
  4336  06D4  0023               	movlb	3	; select bank3
  4337  06D5  008C               	movwf	12	;volatile
  4338                           
  4339                           ;lcd_5110_spi.c: 313: _delay((unsigned long)((5)*(1000000/4000000.0)));
  4340  06D6  0000               	nop
  4341  06D7                     l984:	
  4342                           ;lcd_5110_spi.c: 315: while (SSP1CON1bits.WCOL)
  4343                           
  4344  06D7  0023               	movlb	3	; select bank3
  4345  06D8  1F90               	btfss	16,7	;volatile
  4346  06D9  2EE1               	goto	l986
  4347                           
  4348                           ;lcd_5110_spi.c: 316: {
  4349                           ;lcd_5110_spi.c: 317: SSP1CON1bits.WCOL = 0;
  4350  06DA  1390               	bcf	16,7	;volatile
  4351                           
  4352                           ;lcd_5110_spi.c: 318: _delay((unsigned long)((5)*(1000000/4000000.0)));
  4353  06DB  0000               	nop
  4354                           
  4355                           ;lcd_5110_spi.c: 319: SSP1BUF = receivedCharacter;
  4356  06DC  0873               	movf	SPIWrite@receivedCharacter,w
  4357  06DD  0023               	movlb	3	; select bank3
  4358  06DE  008C               	movwf	12	;volatile
  4359                           
  4360                           ;lcd_5110_spi.c: 320: _delay((unsigned long)((5)*(1000000/4000000.0)));
  4361  06DF  0000               	nop
  4362  06E0  2ED7               	goto	l984
  4363  06E1                     l986:	
  4364                           
  4365                           ;lcd_5110_spi.c: 321: }
  4366                           ;lcd_5110_spi.c: 323: RC2PPS = 1;
  4367  06E1  3001               	movlw	1
  4368  06E2  003E               	movlb	30	; select bank30
  4369  06E3  00A2               	movwf	34	;volatile
  4370                           
  4371                           ;lcd_5110_spi.c: 327: RC2PPS = 0;
  4372                           
  4373                           ;lcd_5110_spi.c: 325: _delay((unsigned long)((2)*(1000000/4000000.0)));
  4374  06E4  003E               	movlb	30	; select bank30
  4375  06E5  01A2               	clrf	34	;volatile
  4376                           
  4377                           ;lcd_5110_spi.c: 329: SSP1STATbits.BF = 0;
  4378  06E6  0023               	movlb	3	; select bank3
  4379  06E7  100F               	bcf	15,0	;volatile
  4380                           
  4381                           ;lcd_5110_spi.c: 331: LATBbits.LATB1 = 1;
  4382  06E8  0020               	movlb	0	; select bank0
  4383  06E9  1497               	bsf	23,1	;volatile
  4384  06EA  0008               	return
  4385  06EB                     __end_of_SPIWrite:	
  4386  007E                     btemp	set	126	;btemp
  4387  007E                     wtemp0	set	126


Data Sizes:
    Strings     0
    Constant    807
    Data        0
    BSS         10
    Persistent  0
    Stack       0

Auto Spaces:
    Space          Size  Autos    Used
    COMMON           14     13      13
    BANK0            80      9      19
    BANK1            80      0       0
    BANK2            80      0       0
    BANK3            80      0       0
    BANK4            80      0       0
    BANK5            80      0       0
    BANK6            80      0       0
    BANK7            80      0       0
    BANK8            80      0       0
    BANK9            80      0       0
    BANK10           80      0       0
    BANK11           80      0       0
    BANK12           48      0       0

Pointer List with Targets:

    LCDBitmap@bmp_array	PTR const unsigned char  size(2) Largest target is 504
		 -> coffee(CODE[504]), 


Critical Paths under _main in COMMON

    _main->_LCDBitmap
    _SYSTEM_Initialize->_LCDClear
    _LCDInit->_SPIWrite
    _LCDClear->_gotoXY
    _LCDWriteCharacter->___wmul
    _LCDBitmap->_gotoXY
    _gotoXY->_SPIWrite

Critical Paths under _main in BANK0

    _main->_LCDWriteCharacter

Critical Paths under _main in BANK1

    None.

Critical Paths under _main in BANK2

    None.

Critical Paths under _main in BANK3

    None.

Critical Paths under _main in BANK4

    None.

Critical Paths under _main in BANK5

    None.

Critical Paths under _main in BANK6

    None.

Critical Paths under _main in BANK7

    None.

Critical Paths under _main in BANK8

    None.

Critical Paths under _main in BANK9

    None.

Critical Paths under _main in BANK10

    None.

Critical Paths under _main in BANK11

    None.

Critical Paths under _main in BANK12

    None.

Call Graph Tables:

 ---------------------------------------------------------------------------------
 (Depth) Function   	        Calls       Base Space   Used Autos Params    Refs
 ---------------------------------------------------------------------------------
 (0) _main                                                 2     2      0    5880
                                              7 BANK0      2     2      0
                          _LCDBitmap
                  _LCDWriteCharacter
                  _SYSTEM_Initialize
 ---------------------------------------------------------------------------------
 (1) _SYSTEM_Initialize                                    2     2      0    2301
                                             10 COMMON     2     2      0
                           _LCDClear
                            _LCDInit
              _OSCILLATOR_Initialize
                           _SPI_Init
 ---------------------------------------------------------------------------------
 (2) _SPI_Init                                             0     0      0       0
 ---------------------------------------------------------------------------------
 (2) _OSCILLATOR_Initialize                                0     0      0       0
 ---------------------------------------------------------------------------------
 (2) _LCDInit                                              1     1      0     863
                                              4 COMMON     1     1      0
                           _SPIWrite
 ---------------------------------------------------------------------------------
 (2) _LCDClear                                             3     3      0    1415
                                              7 COMMON     3     3      0
                           _LCDWrite
                             _gotoXY
 ---------------------------------------------------------------------------------
 (3) _LCDWrite                                             4     3      1     144
                                              0 COMMON     4     3      1
 ---------------------------------------------------------------------------------
 (1) _LCDWriteCharacter                                    9     9      0    1220
                                              6 COMMON     2     2      0
                                              0 BANK0      7     7      0
                           _SPIWrite
                             ___wmul
 ---------------------------------------------------------------------------------
 (2) ___wmul                                               6     2      4     198
                                              0 COMMON     6     2      4
 ---------------------------------------------------------------------------------
 (1) _LCDBitmap                                            8     3      5    2359
                                              7 COMMON     6     1      5
                                              0 BANK0      2     2      0
                           _SPIWrite
                             _gotoXY
 ---------------------------------------------------------------------------------
 (3) _gotoXY                                               3     2      1    1225
                                              4 COMMON     3     2      1
                           _SPIWrite
 ---------------------------------------------------------------------------------
 (3) _SPIWrite                                             5     4      1     863
                                              0 COMMON     4     3      1
 ---------------------------------------------------------------------------------
 Estimated maximum stack depth 3
 ---------------------------------------------------------------------------------

 Call Graph Graphs:

 _main (ROOT)
   _LCDBitmap
     _SPIWrite
     _gotoXY
       _SPIWrite
   _LCDWriteCharacter
     _SPIWrite
     ___wmul
   _SYSTEM_Initialize
     _LCDClear
       _LCDWrite
       _gotoXY
         _SPIWrite
     _LCDInit
       _SPIWrite
     _OSCILLATOR_Initialize
     _SPI_Init

 Address spaces:
Name               Size   Autos  Total    Cost      Usage
BIGRAM             3F0      0       0       0        0.0%
EEDATA             100      0       0       0        0.0%
NULL                 0      0       0       0        0.0%
CODE                 0      0       0       0        0.0%
BITCOMMON            E      0       0       1        0.0%
BITSFR0              0      0       0       1        0.0%
SFR0                 0      0       0       1        0.0%
COMMON               E      D       D       2       92.9%
BITSFR1              0      0       0       2        0.0%
SFR1                 0      0       0       2        0.0%
BITSFR2              0      0       0       3        0.0%
SFR2                 0      0       0       3        0.0%
STACK                0      0       0       3        0.0%
BITBANK0            50      0       0       4        0.0%
BITSFR3              0      0       0       4        0.0%
SFR3                 0      0       0       4        0.0%
BANK0               50      9      13       5       23.8%
BITSFR4              0      0       0       5        0.0%
SFR4                 0      0       0       5        0.0%
BITBANK1            50      0       0       6        0.0%
BITSFR5              0      0       0       6        0.0%
SFR5                 0      0       0       6        0.0%
BANK1               50      0       0       7        0.0%
BITSFR6              0      0       0       7        0.0%
SFR6                 0      0       0       7        0.0%
BITBANK2            50      0       0       8        0.0%
BITSFR7              0      0       0       8        0.0%
SFR7                 0      0       0       8        0.0%
BANK2               50      0       0       9        0.0%
BITSFR8              0      0       0       9        0.0%
SFR8                 0      0       0       9        0.0%
BITBANK3            50      0       0      10        0.0%
BITSFR9              0      0       0      10        0.0%
SFR9                 0      0       0      10        0.0%
BANK3               50      0       0      11        0.0%
BITSFR10             0      0       0      11        0.0%
SFR10                0      0       0      11        0.0%
BITBANK4            50      0       0      12        0.0%
BITSFR11             0      0       0      12        0.0%
SFR11                0      0       0      12        0.0%
BANK4               50      0       0      13        0.0%
BITSFR12             0      0       0      13        0.0%
SFR12                0      0       0      13        0.0%
BITBANK5            50      0       0      14        0.0%
BITSFR13             0      0       0      14        0.0%
SFR13                0      0       0      14        0.0%
BANK5               50      0       0      15        0.0%
BITSFR14             0      0       0      15        0.0%
SFR14                0      0       0      15        0.0%
BITBANK6            50      0       0      16        0.0%
BITSFR15             0      0       0      16        0.0%
SFR15                0      0       0      16        0.0%
BANK6               50      0       0      17        0.0%
BITSFR16             0      0       0      17        0.0%
SFR16                0      0       0      17        0.0%
BITBANK7            50      0       0      18        0.0%
BITSFR17             0      0       0      18        0.0%
SFR17                0      0       0      18        0.0%
BANK7               50      0       0      19        0.0%
BITSFR18             0      0       0      19        0.0%
SFR18                0      0       0      19        0.0%
BITSFR19             0      0       0      20        0.0%
SFR19                0      0       0      20        0.0%
ABS                  0      0      20      20        0.0%
BITBANK8            50      0       0      21        0.0%
BITSFR20             0      0       0      21        0.0%
SFR20                0      0       0      21        0.0%
BANK8               50      0       0      22        0.0%
BITSFR21             0      0       0      22        0.0%
SFR21                0      0       0      22        0.0%
BITBANK9            50      0       0      23        0.0%
BITSFR22             0      0       0      23        0.0%
SFR22                0      0       0      23        0.0%
BANK9               50      0       0      24        0.0%
BITSFR23             0      0       0      24        0.0%
SFR23                0      0       0      24        0.0%
BITBANK10           50      0       0      25        0.0%
BITSFR24             0      0       0      25        0.0%
SFR24                0      0       0      25        0.0%
BANK10              50      0       0      26        0.0%
BITSFR25             0      0       0      26        0.0%
SFR25                0      0       0      26        0.0%
BITBANK11           50      0       0      27        0.0%
BITSFR26             0      0       0      27        0.0%
SFR26                0      0       0      27        0.0%
BANK11              50      0       0      28        0.0%
BITSFR27             0      0       0      28        0.0%
SFR27                0      0       0      28        0.0%
BITBANK12           30      0       0      29        0.0%
BITSFR28             0      0       0      29        0.0%
SFR28                0      0       0      29        0.0%
BANK12              30      0       0      30        0.0%
BITSFR29             0      0       0      30        0.0%
SFR29                0      0       0      30        0.0%
BITSFR30             0      0       0      31        0.0%
SFR30                0      0       0      31        0.0%
DATA                 0      0      20      31        0.0%
BITSFR31             0      0       0      32        0.0%
SFR31                0      0       0      32        0.0%


Microchip Technology PIC Macro Assembler V1.45 build -152302408 
Symbol Table                                                                                   Thu Apr 12 18:04:29 2018

                   __CFG_CP$OFF 0000                              l77 06C8                              l85 067C  
                            l78 06CA                              l86 067E                              l88 0697  
                            l89 068A             ___wmul@multiplicand 0072                     __CFG_LVP$ON 0000  
                           l282 0641                   LCDClear@index 0078                             l984 06D7  
                           l986 06E1                             _GIE 005F                             u415 06A5  
                           u425 06B9                    __CFG_CPD$OFF 0000                             u445 0642  
                           u455 0647                             u490 07F0                             u475 0700  
                           u485 0781                             u907 07CD                             u887 0669  
                           u897 07C2                    __CFG_BORV$LO 0000                             wreg 0009  
                  LCDBitmap@len 007A                 __end_of_LCDInit 0754                    __CFG_ZCD$OFF 0000  
                          l1008 0684                            l1032 06BB                            l1026 06A7  
                          l1058 063B                            l1092 0775                            l1078 06F6  
                          l1094 0799                            l1266 0670                            _LATA 0016  
                          _LATB 0017                            _LATC 0018                            _WPUA 0F39  
                          _WPUB 0F44                            _WPUC 0F4F                            _WPUE 0F65  
                  __CFG_WRT$OFF 0000                   __CFG_FCMEN$ON 0000              __size_of_LCDBitmap 002C  
            LCDBitmap@bmp_array 0077                            _main 0654                            fsr0h 0005  
                          indf0 0000                            fsr0l 0004                            btemp 007E  
                          start 0002                   __CFG_CSWEN$ON 0000                   __CFG_MCLRE$ON 0000  
              __end_of_LCDClear 06C0  __size_of_OSCILLATOR_Initialize 0008                __end_of_LCDWrite 069A  
 __end_of_OSCILLATOR_Initialize 0618                           ?_main 0070                   __CFG_WDTE$OFF 0000  
                         _OSCEN 0891                           _TRISA 0011                           _TRISB 0012  
                         _TRISC 0013                           _fonts 09F8                __end_of_SPI_Init 0626  
                __CFG_BOREN$OFF 0000                __end_of_SPIWrite 06EB                           status 0003  
                         wtemp0 007E                  LCDBitmap@index 002A              LCDBitmap@startLine 0079  
               __initialization 07F2                    __end_of_main 0675               __end_of_LCDBitmap 0717  
                        ??_main 0031                       ??_LCDInit 0074         LCDWrite@data_or_command 0072  
                        _ANSELA 0F38                          _ANSELB 0F43                          _ANSELC 0F4E  
            __CFG_RSTOSC$HFINT1 0000          SYSTEM_Initialize@state 007B                          _RC2PPS 0F22  
                        _RC3PPS 0F23                          _RC5PPS 0F25                  __CFG_WDTCCS$SC 0000  
                        _FVRCON 090C                          _OSCFRQ 0893                  __CFG_PWRTE$OFF 0000  
                        ___wmul 0639                  __CFG_STVREN$ON 0000                          _coffee 0800  
                        _gotoXY 0626                    SPIWrite@data 0070                    LCDWrite@data 0070  
                     ?_LCDClear 0070               _SYSTEM_Initialize 079E         __end_of__initialization 07FD  
                     ?_LCDWrite 0070              ?_SYSTEM_Initialize 0070                  __pcstackCOMMON 0070  
           ??_SYSTEM_Initialize 007A                   __end_of_fonts 0B27                       LCDWrite@i 0073  
                     ?_SPI_Init 0070                       ?_SPIWrite 0070               LCDWriteInt@F14310 0020  
     __end_of_SYSTEM_Initialize 07F2                      __pbssBANK0 0020                      ??_LCDClear 0077  
                    ??_LCDWrite 0071                      __pmaintext 0654                         ?___wmul 0070  
               __CFG_PPS1WAY$ON 0000                         ?_gotoXY 0074                      ??_SPI_Init 0070  
                    ??_SPIWrite 0071                         _LCDInit 0717                         _OSCCON1 088D  
                       _OSCCON3 088F                         _OSCTUNE 0892                         _PPSLOCK 0E8F  
                       _SSP1BUF 018C            __CFG_SCANE$available 0000                 __size_of___wmul 001B  
               __size_of_gotoXY 0013                         __ptext1 079E                         __ptext2 0618  
                       __ptext3 0610                         __ptext4 0717                         __ptext5 069A  
                       __ptext6 0675                         __ptext7 0754                         __ptext8 0639  
                       __ptext9 06EB           _OSCILLATOR_Initialize 0610                       _LCDBitmap 06EB  
    __size_of_SYSTEM_Initialize 0054            end_of_initialization 07FD           LCDWriteCharacter@base 002F  
                       gotoXY@x 0076                         gotoXY@y 0074               _LCDWriteCharacter 0754  
         __CFG_WDTCPS$WDTCPS_31 0000              ?_LCDWriteCharacter 0070                      ?_LCDBitmap 0077  
                     _TRISBbits 0012                       _TRISCbits 0013             ??_LCDWriteCharacter 0076  
              __CFG_FEXTOSC$OFF 0000               __size_of_LCDClear 0026      LCDWriteCharacter@character 002E  
             __size_of_LCDWrite 0025       __end_of_LCDWriteCharacter 079E                  __end_of___wmul 0654  
                __end_of_coffee 09F8                  __end_of_gotoXY 0639          ?_OSCILLATOR_Initialize 0070  
            LCDWriteCharacter@x 002A              LCDWriteCharacter@z 002C               __size_of_SPI_Init 000E  
             __size_of_SPIWrite 002B             start_initialization 07F2         SPIWrite@data_or_command 0072  
              __CFG_LPBOREN$OFF 0000                        ??___wmul 0074                        ??_gotoXY 0075  
                      ?_LCDInit 0070                       ___latbits 0002                     ??_LCDBitmap 007C  
                 __pcstackBANK0 002A      __size_of_LCDWriteCharacter 004A       SPIWrite@receivedCharacter 0073  
                      _LCDClear 069A                  ___wmul@product 0074                        _LATBbits 0017  
                      _LCDWrite 0675                        _PIE0bits 0716                        _SSP1CON1 0190  
                      _SPI_Init 0618                        _SPIWrite 06C0               ___wmul@multiplier 0070  
              __size_of_LCDInit 003D         ??_OSCILLATOR_Initialize 0070                        __ptext10 0626  
                      __ptext11 06C0                    _SSP1CON1bits 0190                   __size_of_main 0021  
          __CFG_WDTCWS$WDTCWS_7 0000                    _SSP1STATbits 018F               __CFG_CLKOUTEN$OFF 0000  
                   _PPSLOCKbits 0E8F                   __pstringtext1 09F8                   __pstringtext2 0800  
                    _SSP1DATPPS 0EC6  
