

Microchip Technology PIC LITE Macro Assembler V1.32 build 58300 
                                                                                               Sun Jan 21 17:22:26 2018

Microchip Technology Omniscient Code Generator (Lite mode) build 58300
     1                           	processor	16F726
     2                           	opt	pw 120
     3                           	opt	lm
     4                           	psect	idataBANK0,global,class=CODE,delta=2
     5                           	psect	idataBANK2,global,class=CODE,delta=2
     6                           	psect	idataBANK3,global,class=CODE,delta=2
     7                           	psect	stringtext,global,reloc=256,class=STRCODE,delta=2
     8                           	psect	cinit,global,class=CODE,merge=1,delta=2
     9                           	psect	dataBANK0,global,class=BANK0,space=1,delta=1
    10                           	psect	bssBANK3,global,class=BANK3,space=1,delta=1
    11                           	psect	dataBANK3,global,class=BANK3,space=1,delta=1
    12                           	psect	dataBANK2,global,class=BANK2,space=1,delta=1
    13                           	psect	clrtext,global,class=CODE,delta=2
    14                           	psect	inittext,global,class=CODE,delta=2
    15                           	psect	cstackBANK1,global,class=BANK1,space=1,delta=1
    16                           	psect	cstackCOMMON,global,class=COMMON,space=1,delta=1
    17                           	psect	cstackBANK0,global,class=BANK0,space=1,delta=1
    18                           	psect	maintext,global,class=CODE,split=1,delta=2
    19                           	psect	text1,local,class=CODE,merge=1,delta=2
    20                           	psect	text2,local,class=CODE,merge=1,delta=2
    21                           	psect	text3,local,class=CODE,merge=1,delta=2
    22                           	psect	text4,local,class=CODE,merge=1,delta=2
    23                           	psect	text5,local,class=CODE,merge=1,delta=2
    24                           	psect	text6,local,class=CODE,merge=1,delta=2
    25                           	psect	text7,local,class=CODE,merge=1,delta=2
    26                           	psect	text8,local,class=CODE,merge=1,delta=2
    27                           	psect	text9,local,class=CODE,merge=1,delta=2
    28                           	psect	text10,local,class=CODE,merge=1,delta=2
    29                           	psect	text11,local,class=CODE,merge=1,delta=2
    30                           	psect	text12,local,class=CODE,merge=1,delta=2
    31                           	psect	text13,local,class=CODE,merge=1,delta=2
    32                           	psect	text14,local,class=CODE,merge=1,delta=2
    33                           	psect	text15,local,class=CODE,merge=1,delta=2
    34                           	psect	text16,local,class=CODE,merge=1,delta=2
    35                           	psect	text17,local,class=CODE,merge=1,delta=2
    36                           	psect	text18,local,class=CODE,merge=1,delta=2
    37                           	psect	text19,local,class=CODE,merge=1,delta=2
    38                           	psect	text20,local,class=CODE,merge=1,delta=2
    39                           	psect	text21,local,class=CODE,merge=1,delta=2
    40                           	dabs	1,0x7E,2
    41  0000                     	;# 
    42  0001                     	;# 
    43  0002                     	;# 
    44  0003                     	;# 
    45  0004                     	;# 
    46  0005                     	;# 
    47  0006                     	;# 
    48  0007                     	;# 
    49  0009                     	;# 
    50  000A                     	;# 
    51  000B                     	;# 
    52  000C                     	;# 
    53  000D                     	;# 
    54  000E                     	;# 
    55  000E                     	;# 
    56  000F                     	;# 
    57  0010                     	;# 
    58  0011                     	;# 
    59  0012                     	;# 
    60  0013                     	;# 
    61  0014                     	;# 
    62  0015                     	;# 
    63  0015                     	;# 
    64  0016                     	;# 
    65  0017                     	;# 
    66  0018                     	;# 
    67  0019                     	;# 
    68  001A                     	;# 
    69  001B                     	;# 
    70  001B                     	;# 
    71  001C                     	;# 
    72  001D                     	;# 
    73  001E                     	;# 
    74  001F                     	;# 
    75  0081                     	;# 
    76  0085                     	;# 
    77  0086                     	;# 
    78  0087                     	;# 
    79  0089                     	;# 
    80  008C                     	;# 
    81  008D                     	;# 
    82  008E                     	;# 
    83  008F                     	;# 
    84  0090                     	;# 
    85  0091                     	;# 
    86  0092                     	;# 
    87  0093                     	;# 
    88  0093                     	;# 
    89  0094                     	;# 
    90  0095                     	;# 
    91  0095                     	;# 
    92  0096                     	;# 
    93  0096                     	;# 
    94  0098                     	;# 
    95  0099                     	;# 
    96  009C                     	;# 
    97  009D                     	;# 
    98  009F                     	;# 
    99  0108                     	;# 
   100  0109                     	;# 
   101  010C                     	;# 
   102  010C                     	;# 
   103  010D                     	;# 
   104  010D                     	;# 
   105  010E                     	;# 
   106  010F                     	;# 
   107  0185                     	;# 
   108  0186                     	;# 
   109  018C                     	;# 
   110                           
   111                           	psect	idataBANK0
   112  089B                     __pidataBANK0:	
   113                           
   114                           ;initializer for display_temps_to_screen@F1447
   115  089B  3453               	retlw	83
   116  089C  3431               	retlw	49
   117  089D  3420               	retlw	32
   118  089E  343D               	retlw	61
   119  089F  3420               	retlw	32
   120  08A0  3400               	retlw	0
   121                           
   122                           	psect	idataBANK2
   123  09D9                     __pidataBANK2:	
   124                           
   125                           ;initializer for String_test@F1406
   126  09D9  3454               	retlw	84
   127  09DA  3469               	retlw	105
   128  09DB  346D               	retlw	109
   129  09DC  3427               	retlw	39
   130  09DD  3473               	retlw	115
   131  09DE  3420               	retlw	32
   132  09DF  3453               	retlw	83
   133  09E0  3474               	retlw	116
   134  09E1  3472               	retlw	114
   135  09E2  3469               	retlw	105
   136  09E3  346E               	retlw	110
   137  09E4  3467               	retlw	103
   138  09E5  3400               	retlw	0
   139                           
   140                           ;initializer for display_temps_to_screen@F1462
   141  09E6  3453               	retlw	83
   142  09E7  3448               	retlw	72
   143  09E8  344F               	retlw	79
   144  09E9  3452               	retlw	82
   145  09EA  3454               	retlw	84
   146  09EB  3420               	retlw	32
   147  09EC  3456               	retlw	86
   148  09ED  3443               	retlw	67
   149  09EE  3443               	retlw	67
   150  09EF  3420               	retlw	32
   151  09F0  3400               	retlw	0
   152                           
   153                           ;initializer for display_temps_to_screen@F1465
   154  09F1  3453               	retlw	83
   155  09F2  3448               	retlw	72
   156  09F3  344F               	retlw	79
   157  09F4  3452               	retlw	82
   158  09F5  3454               	retlw	84
   159  09F6  3420               	retlw	32
   160  09F7  3447               	retlw	71
   161  09F8  344E               	retlw	78
   162  09F9  3444               	retlw	68
   163  09FA  3420               	retlw	32
   164  09FB  3400               	retlw	0
   165                           
   166                           ;initializer for display_temps_to_screen@F1456
   167  09FC  3420               	retlw	32
   168  09FD  3443               	retlw	67
   169  09FE  3465               	retlw	101
   170  09FF  346C               	retlw	108
   171  0A00  3473               	retlw	115
   172  0A01  3469               	retlw	105
   173  0A02  3475               	retlw	117
   174  0A03  3473               	retlw	115
   175  0A04  3400               	retlw	0
   176                           
   177                           ;initializer for display_temps_to_screen@F1468
   178  0A05  3446               	retlw	70
   179  0A06  3441               	retlw	65
   180  0A07  3455               	retlw	85
   181  0A08  344C               	retlw	76
   182  0A09  3454               	retlw	84
   183  0A0A  3420               	retlw	32
   184  0A0B  3400               	retlw	0
   185                           
   186                           ;initializer for display_temps_to_screen@F1459
   187  0A0C  344F               	retlw	79
   188  0A0D  3450               	retlw	80
   189  0A0E  3445               	retlw	69
   190  0A0F  344E               	retlw	78
   191  0A10  3420               	retlw	32
   192  0A11  3400               	retlw	0
   193                           
   194                           	psect	idataBANK3
   195  08B5                     __pidataBANK3:	
   196                           
   197                           ;initializer for display_temps_to_screen@F1450
   198  08B5  3453               	retlw	83
   199  08B6  3432               	retlw	50
   200  08B7  3420               	retlw	32
   201  08B8  343D               	retlw	61
   202  08B9  3420               	retlw	32
   203  08BA  3400               	retlw	0
   204                           
   205                           ;initializer for display_temps_to_screen@F1453
   206  08BB  3453               	retlw	83
   207  08BC  3433               	retlw	51
   208  08BD  3420               	retlw	32
   209  08BE  343D               	retlw	61
   210  08BF  3420               	retlw	32
   211  08C0  3400               	retlw	0
   212                           
   213                           	psect	stringtext
   214  1000                     __pstringtext:	
   215  1000                     stringtab:	
   216  1000                     __stringtab:	
   217                           
   218                           ;	String table - string pointers are 2 bytes each
   219  1000  1BFF               	btfsc	btemp+1,7
   220  1001  280A               	ljmp	stringcode
   221  1002  1383               	bcf	3,7
   222  1003  187F               	btfsc	btemp+1,0
   223  1004  1783               	bsf	3,7
   224  1005  0800               	movf	0,w
   225  1006  0A84               	incf	4,f
   226  1007  1903               	skipnz
   227  1008  0AFF               	incf	btemp+1,f
   228  1009  0008               	return
   229  100A                     stringcode:	
   230  100A  087F               	movf	btemp+1,w
   231  100B  397F               	andlw	127
   232  100C  008A               	movwf	10
   233  100D  0804               	movf	4,w
   234  100E  0A84               	incf	4,f
   235  100F  1903               	skipnz
   236  1010  0AFF               	incf	btemp+1,f
   237  1011  0082               	movwf	2
   238  1012                     __stringbase:	
   239  1012                     __end_of__stringtab:	
   240  1012                     _fonts:	
   241  1012  3400               	retlw	0
   242  1013  3400               	retlw	0
   243  1014  3400               	retlw	0
   244  1015  3400               	retlw	0
   245  1016  344E               	retlw	78
   246  1017  3400               	retlw	0
   247  1018  3406               	retlw	6
   248  1019  3400               	retlw	0
   249  101A  3406               	retlw	6
   250  101B  34FF               	retlw	255
   251  101C  34FF               	retlw	255
   252  101D  34FF               	retlw	255
   253  101E  3448               	retlw	72
   254  101F  34D6               	retlw	214
   255  1020  3424               	retlw	36
   256  1021  3412               	retlw	18
   257  1022  3408               	retlw	8
   258  1023  3424               	retlw	36
   259  1024  34FF               	retlw	255
   260  1025  34FF               	retlw	255
   261  1026  34FF               	retlw	255
   262  1027  3400               	retlw	0
   263  1028  3406               	retlw	6
   264  1029  3400               	retlw	0
   265  102A  3438               	retlw	56
   266  102B  3444               	retlw	68
   267  102C  3482               	retlw	130
   268  102D  3482               	retlw	130
   269  102E  3444               	retlw	68
   270  102F  3438               	retlw	56
   271  1030  3414               	retlw	20
   272  1031  3408               	retlw	8
   273  1032  343E               	retlw	62
   274  1033  3410               	retlw	16
   275  1034  3438               	retlw	56
   276  1035  3410               	retlw	16
   277  1036  34A0               	retlw	160
   278  1037  3460               	retlw	96
   279  1038  3400               	retlw	0
   280  1039  3410               	retlw	16
   281  103A  3410               	retlw	16
   282  103B  3410               	retlw	16
   283  103C  3460               	retlw	96
   284  103D  3460               	retlw	96
   285  103E  3400               	retlw	0
   286  103F  3460               	retlw	96
   287  1040  3418               	retlw	24
   288  1041  3406               	retlw	6
   289  1042  347C               	retlw	124
   290  1043  3442               	retlw	66
   291  1044  347C               	retlw	124
   292  1045  3444               	retlw	68
   293  1046  347E               	retlw	126
   294  1047  3440               	retlw	64
   295  1048  3464               	retlw	100
   296  1049  3452               	retlw	82
   297  104A  344C               	retlw	76
   298  104B  344A               	retlw	74
   299  104C  344A               	retlw	74
   300  104D  3434               	retlw	52
   301  104E  3438               	retlw	56
   302  104F  3424               	retlw	36
   303  1050  347E               	retlw	126
   304  1051  344E               	retlw	78
   305  1052  344A               	retlw	74
   306  1053  3432               	retlw	50
   307  1054  343C               	retlw	60
   308  1055  344A               	retlw	74
   309  1056  3432               	retlw	50
   310  1057  3462               	retlw	98
   311  1058  341A               	retlw	26
   312  1059  3406               	retlw	6
   313  105A  3476               	retlw	118
   314  105B  344A               	retlw	74
   315  105C  3476               	retlw	118
   316  105D  344C               	retlw	76
   317  105E  3452               	retlw	82
   318  105F  343C               	retlw	60
   319  1060  346C               	retlw	108
   320  1061  346C               	retlw	108
   321  1062  3400               	retlw	0
   322  1063  34AC               	retlw	172
   323  1064  346C               	retlw	108
   324  1065  3400               	retlw	0
   325  1066  3410               	retlw	16
   326  1067  3428               	retlw	40
   327  1068  3444               	retlw	68
   328  1069  3428               	retlw	40
   329  106A  3428               	retlw	40
   330  106B  3428               	retlw	40
   331  106C  3444               	retlw	68
   332  106D  3428               	retlw	40
   333  106E  3410               	retlw	16
   334  106F  3402               	retlw	2
   335  1070  3459               	retlw	89
   336  1071  3406               	retlw	6
   337  1072  34FF               	retlw	255
   338  1073  34FF               	retlw	255
   339  1074  34FF               	retlw	255
   340  1075  347C               	retlw	124
   341  1076  3412               	retlw	18
   342  1077  347C               	retlw	124
   343  1078  347E               	retlw	126
   344  1079  345A               	retlw	90
   345  107A  3434               	retlw	52
   346  107B  343C               	retlw	60
   347  107C  3442               	retlw	66
   348  107D  3442               	retlw	66
   349  107E  347E               	retlw	126
   350  107F  3442               	retlw	66
   351  1080  343C               	retlw	60
   352  1081  347E               	retlw	126
   353  1082  344A               	retlw	74
   354  1083  3442               	retlw	66
   355  1084  347E               	retlw	126
   356  1085  340A               	retlw	10
   357  1086  340A               	retlw	10
   358  1087  343C               	retlw	60
   359  1088  3452               	retlw	82
   360  1089  3434               	retlw	52
   361  108A  347E               	retlw	126
   362  108B  3408               	retlw	8
   363  108C  347E               	retlw	126
   364  108D  3442               	retlw	66
   365  108E  347E               	retlw	126
   366  108F  3442               	retlw	66
   367  1090  3430               	retlw	48
   368  1091  3440               	retlw	64
   369  1092  343E               	retlw	62
   370  1093  347E               	retlw	126
   371  1094  3418               	retlw	24
   372  1095  3466               	retlw	102
   373  1096  347E               	retlw	126
   374  1097  3440               	retlw	64
   375  1098  3440               	retlw	64
   376  1099  347E               	retlw	126
   377  109A  341C               	retlw	28
   378  109B  347E               	retlw	126
   379  109C  347E               	retlw	126
   380  109D  3402               	retlw	2
   381  109E  347E               	retlw	126
   382  109F  343C               	retlw	60
   383  10A0  3442               	retlw	66
   384  10A1  343C               	retlw	60
   385  10A2  347E               	retlw	126
   386  10A3  3412               	retlw	18
   387  10A4  340C               	retlw	12
   388  10A5  347E               	retlw	126
   389  10A6  3462               	retlw	98
   390  10A7  34FE               	retlw	254
   391  10A8  347E               	retlw	126
   392  10A9  3432               	retlw	50
   393  10AA  344E               	retlw	78
   394  10AB  3444               	retlw	68
   395  10AC  344A               	retlw	74
   396  10AD  3432               	retlw	50
   397  10AE  3402               	retlw	2
   398  10AF  347E               	retlw	126
   399  10B0  3402               	retlw	2
   400  10B1  347E               	retlw	126
   401  10B2  3440               	retlw	64
   402  10B3  347E               	retlw	126
   403  10B4  343E               	retlw	62
   404  10B5  3440               	retlw	64
   405  10B6  343E               	retlw	62
   406  10B7  347E               	retlw	126
   407  10B8  3438               	retlw	56
   408  10B9  347E               	retlw	126
   409  10BA  3466               	retlw	102
   410  10BB  3418               	retlw	24
   411  10BC  3466               	retlw	102
   412  10BD  340E               	retlw	14
   413  10BE  3470               	retlw	112
   414  10BF  340E               	retlw	14
   415  10C0  3462               	retlw	98
   416  10C1  345A               	retlw	90
   417  10C2  3446               	retlw	70
   418  10C3  3400               	retlw	0
   419  10C4  347E               	retlw	126
   420  10C5  3442               	retlw	66
   421  10C6  3406               	retlw	6
   422  10C7  3418               	retlw	24
   423  10C8  3460               	retlw	96
   424  10C9  3442               	retlw	66
   425  10CA  347E               	retlw	126
   426  10CB  3400               	retlw	0
   427  10CC  3404               	retlw	4
   428  10CD  3402               	retlw	2
   429  10CE  3404               	retlw	4
   430  10CF  3440               	retlw	64
   431  10D0  3440               	retlw	64
   432  10D1  3440               	retlw	64
   433  10D2  3400               	retlw	0
   434  10D3  3402               	retlw	2
   435  10D4  3404               	retlw	4
   436  10D5  3474               	retlw	116
   437  10D6  3454               	retlw	84
   438  10D7  3478               	retlw	120
   439  10D8  347E               	retlw	126
   440  10D9  3448               	retlw	72
   441  10DA  3430               	retlw	48
   442  10DB  3430               	retlw	48
   443  10DC  3448               	retlw	72
   444  10DD  3448               	retlw	72
   445  10DE  3430               	retlw	48
   446  10DF  3448               	retlw	72
   447  10E0  347E               	retlw	126
   448  10E1  3438               	retlw	56
   449  10E2  3454               	retlw	84
   450  10E3  3458               	retlw	88
   451  10E4  347C               	retlw	124
   452  10E5  340A               	retlw	10
   453  10E6  3402               	retlw	2
   454  10E7  3498               	retlw	152
   455  10E8  34A4               	retlw	164
   456  10E9  347C               	retlw	124
   457  10EA  347E               	retlw	126
   458  10EB  3408               	retlw	8
   459  10EC  3470               	retlw	112
   460  10ED  3448               	retlw	72
   461  10EE  347A               	retlw	122
   462  10EF  3440               	retlw	64
   463  10F0  3488               	retlw	136
   464  10F1  34FA               	retlw	250
   465  10F2  3400               	retlw	0
   466  10F3  347E               	retlw	126
   467  10F4  3418               	retlw	24
   468  10F5  3464               	retlw	100
   469  10F6  3442               	retlw	66
   470  10F7  347E               	retlw	126
   471  10F8  3440               	retlw	64
   472  10F9  347C               	retlw	124
   473  10FA  3438               	retlw	56
   474  10FB  347C               	retlw	124
   475  10FC  347C               	retlw	124
   476  10FD  3404               	retlw	4
   477  10FE  3478               	retlw	120
   478  10FF  3438               	retlw	56
   479  1100  3444               	retlw	68
   480  1101  3438               	retlw	56
   481  1102  34FC               	retlw	252
   482  1103  3424               	retlw	36
   483  1104  3418               	retlw	24
   484  1105  3418               	retlw	24
   485  1106  3424               	retlw	36
   486  1107  34FC               	retlw	252
   487  1108  3478               	retlw	120
   488  1109  3404               	retlw	4
   489  110A  3404               	retlw	4
   490  110B  3448               	retlw	72
   491  110C  3454               	retlw	84
   492  110D  3424               	retlw	36
   493  110E  3404               	retlw	4
   494  110F  343E               	retlw	62
   495  1110  3444               	retlw	68
   496  1111  347C               	retlw	124
   497  1112  3440               	retlw	64
   498  1113  347C               	retlw	124
   499  1114  343C               	retlw	60
   500  1115  3440               	retlw	64
   501  1116  343C               	retlw	60
   502  1117  347C               	retlw	124
   503  1118  3430               	retlw	48
   504  1119  347C               	retlw	124
   505  111A  346C               	retlw	108
   506  111B  3410               	retlw	16
   507  111C  346C               	retlw	108
   508  111D  349C               	retlw	156
   509  111E  34A0               	retlw	160
   510  111F  347C               	retlw	124
   511  1120  3464               	retlw	100
   512  1121  3454               	retlw	84
   513  1122  344C               	retlw	76
   514  1123  340C               	retlw	12
   515  1124  3412               	retlw	18
   516  1125  340C               	retlw	12
   517  1126  34FF               	retlw	255
   518  1127  34FF               	retlw	255
   519  1128  34FF               	retlw	255
   520  1129  34FF               	retlw	255
   521  112A  34FF               	retlw	255
   522  112B  34FF               	retlw	255
   523  112C  34FF               	retlw	255
   524  112D  34FF               	retlw	255
   525  112E  34FF               	retlw	255
   526  112F  34FF               	retlw	255
   527  1130  34FF               	retlw	255
   528  1131  34FF               	retlw	255
   529  1132  34FF               	retlw	255
   530  1133  34FF               	retlw	255
   531  1134  34FF               	retlw	255
   532  1135  34FF               	retlw	255
   533  1136  34FF               	retlw	255
   534  1137  34FF               	retlw	255
   535  1138  34FC               	retlw	252
   536  1139  3440               	retlw	64
   537  113A  347C               	retlw	124
   538  113B  34FF               	retlw	255
   539  113C  34FF               	retlw	255
   540  113D  34FF               	retlw	255
   541  113E  34FF               	retlw	255
   542  113F  34FF               	retlw	255
   543  1140  34FF               	retlw	255
   544  1141                     __end_of_fonts:	
   545  0005                     _PORTA	set	5
   546  0006                     _PORTB	set	6
   547  0007                     _PORTC	set	7
   548  0013                     _SSPBUF	set	19
   549  00A4                     _CKP	set	164
   550  0029                     _RA1	set	41
   551  002A                     _RA2	set	42
   552  0035                     _RB5	set	53
   553  0038                     _RC0	set	56
   554  0039                     _RC1	set	57
   555  003A                     _RC2	set	58
   556  003B                     _RC3	set	59
   557  003E                     _RC6	set	62
   558  003F                     _RC7	set	63
   559  00A5                     _SSPEN	set	165
   560  00A0                     _SSPM0	set	160
   561  00A1                     _SSPM1	set	161
   562  00A2                     _SSPM2	set	162
   563  00A3                     _SSPM3	set	163
   564  00A7                     _WCOL	set	167
   565  0085                     _TRISA	set	133
   566  0086                     _TRISB	set	134
   567  0087                     _TRISC	set	135
   568  04A0                     _BF	set	1184
   569  04A6                     _CKE	set	1190
   570  0484                     _IRCF0	set	1156
   571  0485                     _IRCF1	set	1157
   572  042B                     _TRISA3	set	1067
   573  042C                     _TRISA4	set	1068
   574  043C                     _TRISC4	set	1084
   575  0185                     _ANSELA	set	389
   576  0186                     _ANSELB	set	390
   577                           
   578                           ; #config settings
   579  0000                     
   580                           	psect	cinit
   581  07CD                     start_initialization:	
   582  07CD                     __initialization:	
   583                           
   584                           ; Clear objects allocated to BANK3
   585  07CD  1783               	bsf	3,7	;select IRP bank2
   586  07CE  3090               	movlw	low __pbssBANK3
   587  07CF  0084               	movwf	4
   588  07D0  30D8               	movlw	low (__pbssBANK3+72)
   589  07D1  120A  158A  20A1  120A  118A  	fcall	clear_ram0
   590                           
   591                           ; Initialize objects allocated to BANK3
   592  07D6  30E4               	movlw	low (__pdataBANK3+12)
   593  07D7  00FD               	movwf	btemp+-1
   594  07D8  3008               	movlw	high __pidataBANK3
   595  07D9  00FE               	movwf	btemp
   596  07DA  30B5               	movlw	low __pidataBANK3
   597  07DB  00FF               	movwf	btemp+1
   598  07DC  30D8               	movlw	low __pdataBANK3
   599  07DD  0084               	movwf	4
   600  07DE  120A  158A  20E4  120A  118A  	fcall	init_ram0
   601                           
   602                           ; Initialize objects allocated to BANK2
   603  07E3  3049               	movlw	low (__pdataBANK2+57)
   604  07E4  00FD               	movwf	btemp+-1
   605  07E5  3009               	movlw	high __pidataBANK2
   606  07E6  00FE               	movwf	btemp
   607  07E7  30D9               	movlw	low __pidataBANK2
   608  07E8  00FF               	movwf	btemp+1
   609  07E9  3010               	movlw	low __pdataBANK2
   610  07EA  0084               	movwf	4
   611  07EB  120A  158A  20E4  120A  118A  	fcall	init_ram0
   612                           
   613                           ; Initialize objects allocated to BANK0
   614  07F0  1383               	bcf	3,7	;select IRP bank0
   615  07F1  306C               	movlw	low (__pdataBANK0+6)
   616  07F2  00FD               	movwf	btemp+-1
   617  07F3  3008               	movlw	high __pidataBANK0
   618  07F4  00FE               	movwf	btemp
   619  07F5  309B               	movlw	low __pidataBANK0
   620  07F6  00FF               	movwf	btemp+1
   621  07F7  3066               	movlw	low __pdataBANK0
   622  07F8  0084               	movwf	4
   623  07F9  120A  158A  20E4   	fcall	init_ram0
   624  07FC                     end_of_initialization:	
   625                           ;End of C runtime variable initialization code
   626                           
   627  07FC                     __end_of__initialization:	
   628  07FC  0183               	clrf	3
   629  07FD  120A  158A  2EBB   	ljmp	_main	;jump to C main() function
   630                           
   631                           	psect	dataBANK0
   632  0066                     __pdataBANK0:	
   633  0066                     display_temps_to_screen@F1447:	
   634  0066                     	ds	6
   635                           
   636                           	psect	bssBANK3
   637  0190                     __pbssBANK3:	
   638  0190                     _thermocouple_temp:	
   639  0190                     	ds	72
   640                           
   641                           	psect	dataBANK3
   642  01D8                     __pdataBANK3:	
   643  01D8                     display_temps_to_screen@F1450:	
   644  01D8                     	ds	6
   645  01DE                     display_temps_to_screen@F1453:	
   646  01DE                     	ds	6
   647                           
   648                           	psect	dataBANK2
   649  0110                     __pdataBANK2:	
   650  0110                     String_test@F1406:	
   651  0110                     	ds	13
   652  011D                     display_temps_to_screen@F1462:	
   653  011D                     	ds	11
   654  0128                     display_temps_to_screen@F1465:	
   655  0128                     	ds	11
   656  0133                     display_temps_to_screen@F1456:	
   657  0133                     	ds	9
   658  013C                     display_temps_to_screen@F1468:	
   659  013C                     	ds	7
   660  0143                     display_temps_to_screen@F1459:	
   661  0143                     	ds	6
   662                           
   663                           	psect	clrtext
   664  08A1                     clear_ram0:	
   665                           ;	Called with FSR containing the base address, and
   666                           ;	W with the last address+1
   667                           
   668  08A1  0064               	clrwdt	;clear the watchdog before getting into this loop
   669  08A2                     clrloop0:	
   670  08A2  0180               	clrf	0	;clear RAM location pointed to by FSR
   671  08A3  0A84               	incf	4,f	;increment pointer
   672  08A4  0604               	xorwf	4,w	;XOR with final address
   673  08A5  1903               	btfsc	3,2	;have we reached the end yet?
   674  08A6  3400               	retlw	0	;all done for this memory range, return
   675  08A7  0604               	xorwf	4,w	;XOR again to restore value
   676  08A8  28A2               	goto	clrloop0	;do the next byte
   677                           
   678                           	psect	inittext
   679  08E0                     init_fetch0:	
   680                           ;	Called with low address in FSR and high address in W
   681                           
   682  08E0  087E               	movf	126,w
   683  08E1  008A               	movwf	10
   684  08E2  087F               	movf	127,w
   685  08E3  0082               	movwf	2
   686  08E4                     init_ram0:	
   687                           ;Called with:
   688                           ;	high address of idata address in btemp 
   689                           ;	low address of idata address in btemp+1 
   690                           ;	low address of data in FSR
   691                           ;	high address + 1 of data in btemp-1
   692                           
   693  08E4  20E0  120A  158A   	fcall	init_fetch0
   694  08E7  0080               	movwf	0
   695  08E8  0A84               	incf	4,f
   696  08E9  0804               	movf	4,w
   697  08EA  067D               	xorwf	125,w
   698  08EB  1903               	btfsc	3,2
   699  08EC  3400               	retlw	0
   700  08ED  0AFF               	incf	127,f
   701  08EE  1903               	btfsc	3,2
   702  08EF  0AFE               	incf	126,f
   703  08F0  28E4               	goto	init_ram0
   704                           
   705                           	psect	cstackBANK1
   706  00A0                     __pcstackBANK1:	
   707  00A0                     display_temps_to_screen@sensor_one_string:	
   708                           
   709                           ; 6 bytes @ 0x0
   710  00A0                     	ds	6
   711  00A6                     display_temps_to_screen@sensor_two_string:	
   712                           
   713                           ; 6 bytes @ 0x6
   714  00A6                     	ds	6
   715  00AC                     display_temps_to_screen@sensor_three_string:	
   716                           
   717                           ; 6 bytes @ 0xC
   718  00AC                     	ds	6
   719  00B2                     display_temps_to_screen@shortvcc_string:	
   720                           
   721                           ; 11 bytes @ 0x12
   722  00B2                     	ds	11
   723  00BD                     display_temps_to_screen@shortgnd_string:	
   724                           
   725                           ; 11 bytes @ 0x1D
   726  00BD                     	ds	11
   727  00C8                     display_temps_to_screen@celsius_string:	
   728                           
   729                           ; 9 bytes @ 0x28
   730  00C8                     	ds	9
   731  00D1                     display_temps_to_screen@fault_string:	
   732                           
   733                           ; 7 bytes @ 0x31
   734  00D1                     	ds	7
   735  00D8                     display_temps_to_screen@open_string:	
   736                           
   737                           ; 6 bytes @ 0x38
   738  00D8                     	ds	6
   739  00DE                     display_temps_to_screen@sensor_one_string_pointer:	
   740                           
   741                           ; 1 bytes @ 0x3E
   742  00DE                     	ds	1
   743  00DF                     display_temps_to_screen@sensor_two_string_pointer:	
   744                           
   745                           ; 1 bytes @ 0x3F
   746  00DF                     	ds	1
   747  00E0                     display_temps_to_screen@sensor_three_string_pointer:	
   748                           
   749                           ; 1 bytes @ 0x40
   750  00E0                     	ds	1
   751  00E1                     display_temps_to_screen@working_register:	
   752                           
   753                           ; 4 bytes @ 0x41
   754  00E1                     	ds	4
   755  00E5                     display_temps_to_screen@position:	
   756                           
   757                           ; 4 bytes @ 0x45
   758  00E5                     	ds	4
   759  00E9                     display_temps_to_screen@celsius_string_pointer:	
   760                           
   761                           ; 1 bytes @ 0x49
   762  00E9                     	ds	1
   763  00EA                     display_temps_to_screen@open_string_pointer:	
   764                           
   765                           ; 1 bytes @ 0x4A
   766  00EA                     	ds	1
   767  00EB                     display_temps_to_screen@shortvcc_string_pointer:	
   768                           
   769                           ; 1 bytes @ 0x4B
   770  00EB                     	ds	1
   771  00EC                     display_temps_to_screen@shortgnd_string_pointer:	
   772                           
   773                           ; 1 bytes @ 0x4C
   774  00EC                     	ds	1
   775  00ED                     display_temps_to_screen@fault_string_pointer:	
   776                           
   777                           ; 1 bytes @ 0x4D
   778  00ED                     	ds	1
   779                           
   780                           	psect	cstackCOMMON
   781  0071                     __pcstackCOMMON:	
   782  0071                     ?_Init:	
   783  0071                     ??_Init:	
   784                           ; 0 bytes @ 0x0
   785                           
   786  0071                     ?_spi_init:	
   787                           ; 0 bytes @ 0x0
   788                           
   789  0071                     ??_spi_init:	
   790                           ; 0 bytes @ 0x0
   791                           
   792  0071                     ?_data_out:	
   793                           ; 0 bytes @ 0x0
   794                           
   795  0071                     ??_data_out:	
   796                           ; 0 bytes @ 0x0
   797                           
   798  0071                     ?_comm_out:	
   799                           ; 0 bytes @ 0x0
   800                           
   801  0071                     ??_comm_out:	
   802                           ; 0 bytes @ 0x0
   803                           
   804  0071                     ?_blank_image:	
   805                           ; 0 bytes @ 0x0
   806                           
   807  0071                     ?_location:	
   808                           ; 0 bytes @ 0x0
   809                           
   810  0071                     ?_LCDWriteCharacter:	
   811                           ; 0 bytes @ 0x0
   812                           
   813  0071                     ?_String_test:	
   814                           ; 0 bytes @ 0x0
   815                           
   816  0071                     ??_SPI_TRANSFER:	
   817                           ; 0 bytes @ 0x0
   818                           
   819  0071                     ?_SPI_DATA_HANDLING:	
   820                           ; 0 bytes @ 0x0
   821                           
   822  0071                     ?_chip_select:	
   823                           ; 0 bytes @ 0x0
   824                           
   825  0071                     ?_get_temp_from_right_tcs:	
   826                           ; 0 bytes @ 0x0
   827                           
   828  0071                     ?_display_temps_to_screen:	
   829                           ; 0 bytes @ 0x0
   830                           
   831  0071                     ?_move_temp_to_send:	
   832                           ; 0 bytes @ 0x0
   833                           
   834  0071                     ?_SPI_TRANSFER:	
   835                           ; 0 bytes @ 0x0
   836                           
   837  0071                     ?___bmul:	
   838                           ; 1 bytes @ 0x0
   839                           
   840  0071                     ?_main:	
   841                           ; 1 bytes @ 0x0
   842                           
   843  0071                     ?___wmul:	
   844                           ; 2 bytes @ 0x0
   845                           
   846  0071                     ?___ftpack:	
   847                           ; 2 bytes @ 0x0
   848                           
   849  0071                     ___bmul@multiplicand:	
   850                           ; 3 bytes @ 0x0
   851                           
   852  0071                     chip_select@chip:	
   853                           ; 1 bytes @ 0x0
   854                           
   855  0071                     ___wmul@multiplier:	
   856                           ; 2 bytes @ 0x0
   857                           
   858  0071                     ___ftpack@arg:	
   859                           ; 2 bytes @ 0x0
   860                           
   861                           
   862                           ; 3 bytes @ 0x0
   863  0071                     	ds	1
   864  0072                     ??___bmul:	
   865  0072                     SPI_TRANSFER@byte_recieved:	
   866                           ; 0 bytes @ 0x1
   867                           
   868                           
   869                           ; 1 bytes @ 0x1
   870  0072                     	ds	1
   871  0073                     ??_chip_select:	
   872  0073                     data_out@i:	
   873                           ; 0 bytes @ 0x2
   874                           
   875  0073                     comm_out@j:	
   876                           ; 1 bytes @ 0x2
   877                           
   878  0073                     SPI_TRANSFER@byte_to_send:	
   879                           ; 1 bytes @ 0x2
   880                           
   881  0073                     ___bmul@product:	
   882                           ; 1 bytes @ 0x2
   883                           
   884  0073                     ___wmul@multiplicand:	
   885                           ; 1 bytes @ 0x2
   886                           
   887                           
   888                           ; 2 bytes @ 0x2
   889  0073                     	ds	1
   890  0074                     ??_blank_image:	
   891  0074                     ??_location:	
   892                           ; 0 bytes @ 0x3
   893                           
   894  0074                     ??_SPI_DATA_HANDLING:	
   895                           ; 0 bytes @ 0x3
   896                           
   897  0074                     ___bmul@multiplier:	
   898                           ; 0 bytes @ 0x3
   899                           
   900  0074                     ___ftpack@exp:	
   901                           ; 1 bytes @ 0x3
   902                           
   903                           
   904                           ; 1 bytes @ 0x3
   905  0074                     	ds	1
   906  0075                     ??_move_temp_to_send:	
   907  0075                     ??___wmul:	
   908                           ; 0 bytes @ 0x4
   909                           
   910  0075                     blank_image@page:	
   911                           ; 0 bytes @ 0x4
   912                           
   913  0075                     ___ftpack@sign:	
   914                           ; 1 bytes @ 0x4
   915                           
   916  0075                     ___wmul@product:	
   917                           ; 1 bytes @ 0x4
   918                           
   919                           
   920                           ; 2 bytes @ 0x4
   921  0075                     	ds	1
   922  0076                     ??___ftpack:	
   923  0076                     blank_image@i:	
   924                           ; 0 bytes @ 0x5
   925                           
   926                           
   927                           ; 2 bytes @ 0x5
   928  0076                     	ds	1
   929  0077                     ??_LCDWriteCharacter:	
   930  0077                     SPI_DATA_HANDLING@byte_to_send:	
   931                           ; 0 bytes @ 0x6
   932                           
   933  0077                     move_temp_to_send@working_register:	
   934                           ; 1 bytes @ 0x6
   935                           
   936                           
   937                           ; 2 bytes @ 0x6
   938  0077                     	ds	1
   939  0078                     SPI_DATA_HANDLING@byte_received:	
   940  0078                     blank_image@j:	
   941                           ; 1 bytes @ 0x7
   942                           
   943                           
   944                           ; 2 bytes @ 0x7
   945  0078                     	ds	1
   946  0079                     ??_String_test:	
   947  0079                     ?_char_to_decimal_print:	
   948                           ; 0 bytes @ 0x8
   949                           
   950  0079                     ?___awtoft:	
   951                           ; 0 bytes @ 0x8
   952                           
   953  0079                     SPI_DATA_HANDLING@offset:	
   954                           ; 3 bytes @ 0x8
   955                           
   956  0079                     move_temp_to_send@byte_to_send:	
   957                           ; 1 bytes @ 0x8
   958                           
   959  0079                     char_to_decimal_print@value:	
   960                           ; 1 bytes @ 0x8
   961                           
   962  0079                     ___awtoft@c:	
   963                           ; 2 bytes @ 0x8
   964                           
   965                           
   966                           ; 2 bytes @ 0x8
   967  0079                     	ds	1
   968  007A                     SPI_DATA_HANDLING@address:	
   969  007A                     move_temp_to_send@x:	
   970                           ; 1 bytes @ 0x9
   971                           
   972                           
   973                           ; 2 bytes @ 0x9
   974  007A                     	ds	1
   975  007B                     ??_char_to_decimal_print:	
   976  007B                     SPI_DATA_HANDLING@offset_pointer:	
   977                           ; 0 bytes @ 0xA
   978                           
   979                           
   980                           ; 2 bytes @ 0xA
   981  007B                     	ds	1
   982  007C                     ??___awtoft:	
   983  007C                     char_to_decimal_print@x:	
   984                           ; 0 bytes @ 0xB
   985                           
   986  007C                     move_temp_to_send@reg:	
   987                           ; 1 bytes @ 0xB
   988                           
   989                           
   990                           ; 1 bytes @ 0xB
   991  007C                     	ds	1
   992  007D                     SPI_DATA_HANDLING@data_pointer:	
   993  007D                     move_temp_to_send@data_pointer:	
   994                           ; 1 bytes @ 0xC
   995                           
   996                           
   997                           ; 1 bytes @ 0xC
   998  007D                     	ds	1
   999                           
  1000                           	psect	cstackBANK0
  1001  0020                     __pcstackBANK0:	
  1002  0020                     LCDWriteCharacter@character:	
  1003  0020                     ___awtoft@sign:	
  1004                           ; 1 bytes @ 0x0
  1005                           
  1006  0020                     location@j:	
  1007                           ; 1 bytes @ 0x0
  1008                           
  1009                           
  1010                           ; 2 bytes @ 0x0
  1011  0020                     	ds	1
  1012  0021                     ?___ftmul:	
  1013  0021                     LCDWriteCharacter@before_swap:	
  1014                           ; 3 bytes @ 0x1
  1015                           
  1016  0021                     ___ftmul@f1:	
  1017                           ; 2 bytes @ 0x1
  1018                           
  1019                           
  1020                           ; 3 bytes @ 0x1
  1021  0021                     	ds	1
  1022  0022                     location@lownib:	
  1023                           
  1024                           ; 1 bytes @ 0x2
  1025  0022                     	ds	1
  1026  0023                     location@upnib:	
  1027  0023                     LCDWriteCharacter@i:	
  1028                           ; 1 bytes @ 0x3
  1029                           
  1030                           
  1031                           ; 2 bytes @ 0x3
  1032  0023                     	ds	1
  1033  0024                     location@page:	
  1034  0024                     ___ftmul@f2:	
  1035                           ; 1 bytes @ 0x4
  1036                           
  1037                           
  1038                           ; 3 bytes @ 0x4
  1039  0024                     	ds	1
  1040  0025                     location@q:	
  1041  0025                     LCDWriteCharacter@j:	
  1042                           ; 2 bytes @ 0x5
  1043                           
  1044                           
  1045                           ; 2 bytes @ 0x5
  1046  0025                     	ds	2
  1047  0027                     ??___ftmul:	
  1048  0027                     location@k:	
  1049                           ; 0 bytes @ 0x7
  1050                           
  1051  0027                     LCDWriteCharacter@base:	
  1052                           ; 2 bytes @ 0x7
  1053                           
  1054                           
  1055                           ; 2 bytes @ 0x7
  1056  0027                     	ds	2
  1057  0029                     location@i:	
  1058  0029                     LCDWriteCharacter@after_swap:	
  1059                           ; 2 bytes @ 0x9
  1060                           
  1061                           
  1062                           ; 2 bytes @ 0x9
  1063  0029                     	ds	2
  1064  002B                     location@position:	
  1065  002B                     ___ftmul@exp:	
  1066                           ; 1 bytes @ 0xB
  1067                           
  1068  002B                     String_test@test_string:	
  1069                           ; 1 bytes @ 0xB
  1070                           
  1071                           
  1072                           ; 13 bytes @ 0xB
  1073  002B                     	ds	1
  1074  002C                     ??_get_temp_from_right_tcs:	
  1075  002C                     ___ftmul@f3_as_product:	
  1076                           ; 0 bytes @ 0xC
  1077                           
  1078                           
  1079                           ; 3 bytes @ 0xC
  1080  002C                     	ds	3
  1081  002F                     ___ftmul@cntr:	
  1082                           
  1083                           ; 1 bytes @ 0xF
  1084  002F                     	ds	1
  1085  0030                     ___ftmul@sign:	
  1086                           
  1087                           ; 1 bytes @ 0x10
  1088  0030                     	ds	1
  1089  0031                     ?___fttol:	
  1090  0031                     ___fttol@f1:	
  1091                           ; 4 bytes @ 0x11
  1092                           
  1093                           
  1094                           ; 3 bytes @ 0x11
  1095  0031                     	ds	1
  1096  0032                     get_temp_from_right_tcs@byte_received:	
  1097                           
  1098                           ; 1 bytes @ 0x12
  1099  0032                     	ds	1
  1100  0033                     get_temp_from_right_tcs@byte1:	
  1101                           
  1102                           ; 1 bytes @ 0x13
  1103  0033                     	ds	1
  1104  0034                     get_temp_from_right_tcs@byte2:	
  1105                           
  1106                           ; 1 bytes @ 0x14
  1107  0034                     	ds	1
  1108  0035                     ??___fttol:	
  1109  0035                     get_temp_from_right_tcs@byte3:	
  1110                           ; 0 bytes @ 0x15
  1111                           
  1112                           
  1113                           ; 1 bytes @ 0x15
  1114  0035                     	ds	1
  1115  0036                     get_temp_from_right_tcs@byte4:	
  1116                           
  1117                           ; 1 bytes @ 0x16
  1118  0036                     	ds	1
  1119  0037                     get_temp_from_right_tcs@position:	
  1120                           
  1121                           ; 4 bytes @ 0x17
  1122  0037                     	ds	1
  1123  0038                     String_test@test_pointer:	
  1124                           
  1125                           ; 1 bytes @ 0x18
  1126  0038                     	ds	1
  1127  0039                     ___fttol@sign1:	
  1128                           
  1129                           ; 1 bytes @ 0x19
  1130  0039                     	ds	1
  1131  003A                     ___fttol@lval:	
  1132                           
  1133                           ; 4 bytes @ 0x1A
  1134  003A                     	ds	1
  1135  003B                     get_temp_from_right_tcs@byte_to_send:	
  1136                           
  1137                           ; 1 bytes @ 0x1B
  1138  003B                     	ds	1
  1139  003C                     get_temp_from_right_tcs@x:	
  1140                           
  1141                           ; 2 bytes @ 0x1C
  1142  003C                     	ds	2
  1143  003E                     ___fttol@exp1:	
  1144                           
  1145                           ; 1 bytes @ 0x1E
  1146  003E                     	ds	1
  1147  003F                     ??_display_temps_to_screen:	
  1148                           
  1149                           ; 0 bytes @ 0x1F
  1150  003F                     	ds	4
  1151  0043                     ??_main:	
  1152                           
  1153                           ; 0 bytes @ 0x23
  1154  0043                     	ds	2
  1155  0045                     main@x:	
  1156                           
  1157                           ; 2 bytes @ 0x25
  1158  0045                     	ds	2
  1159  0047                     main@spi_data:	
  1160                           
  1161                           ; 22 bytes @ 0x27
  1162  0047                     	ds	22
  1163  005D                     main@count:	
  1164                           
  1165                           ; 4 bytes @ 0x3D
  1166  005D                     	ds	4
  1167  0061                     main@position:	
  1168                           
  1169                           ; 4 bytes @ 0x41
  1170  0061                     	ds	4
  1171  0065                     main@data_pointer:	
  1172                           
  1173                           ; 1 bytes @ 0x45
  1174  0065                     	ds	1
  1175                           
  1176                           	psect	maintext
  1177  0EBB                     __pmaintext:	
  1178 ;;
  1179 ;;Main: autosize = 0, tempsize = 2, incstack = 0, save=0
  1180 ;;
  1181 ;; *************** function _main *****************
  1182 ;; Defined at:
  1183 ;;		line 947 in file "Main V4.0.c"
  1184 ;; Parameters:    Size  Location     Type
  1185 ;;		None
  1186 ;; Auto vars:     Size  Location     Type
  1187 ;;  spi_data       22   39[BANK0 ] unsigned char [22]
  1188 ;;  display_matr   10    0        unsigned char [10]
  1189 ;;  position        4   65[BANK0 ] int [2]
  1190 ;;  count           4   61[BANK0 ] long 
  1191 ;;  x               2   37[BANK0 ] int 
  1192 ;;  data_pointer    1   69[BANK0 ] PTR unsigned char 
  1193 ;;		 -> main@spi_data(22), 
  1194 ;; Return value:  Size  Location     Type
  1195 ;;                  2  316[COMMON] int 
  1196 ;; Registers used:
  1197 ;;		wreg, fsr0l, fsr0h, status,2, status,0, btemp+1, pclath, cstack
  1198 ;; Tracked objects:
  1199 ;;		On entry : 17F/0
  1200 ;;		On exit  : 0/0
  1201 ;;		Unchanged: 0/0
  1202 ;; Data sizes:     COMMON   BANK0   BANK1   BANK3   BANK2
  1203 ;;      Params:         0       0       0       0       0
  1204 ;;      Locals:         0      33       0       0       0
  1205 ;;      Temps:          0       2       0       0       0
  1206 ;;      Totals:         0      35       0       0       0
  1207 ;;Total ram usage:       35 bytes
  1208 ;; Hardware stack levels required when called:    4
  1209 ;; This function calls:
  1210 ;;		_Init
  1211 ;;		_SPI_DATA_HANDLING
  1212 ;;		_String_test
  1213 ;;		_blank_image
  1214 ;;		_chip_select
  1215 ;;		_comm_out
  1216 ;;		_display_temps_to_screen
  1217 ;;		_get_temp_from_right_tcs
  1218 ;;		_location
  1219 ;;		_move_temp_to_send
  1220 ;;		_spi_init
  1221 ;; This function is called by:
  1222 ;;		Startup code after reset
  1223 ;; This function uses a non-reentrant model
  1224 ;;
  1225                           
  1226                           
  1227                           ;psect for function _main
  1228  0EBB                     _main:	
  1229                           
  1230                           ;Main V4.0.c: 948: Init();
  1231                           
  1232                           ;incstack = 0
  1233                           ; Regs used in _main: [wreg-fsr0h+status,2+status,0+btemp+1+pclath+cstack]
  1234  0EBB  120A  158A  214B  120A  158A  	fcall	_Init
  1235                           
  1236                           ;Main V4.0.c: 949: spi_init();
  1237  0EC0  120A  158A  20C1  120A  158A  	fcall	_spi_init
  1238                           
  1239                           ;Main V4.0.c: 951: char spi_data[22];
  1240                           ;Main V4.0.c: 952: spi_data[0] = 1;
  1241  0EC5  1283               	bcf	3,5	;RP0=0, select bank0
  1242  0EC6  1303               	bcf	3,6	;RP1=0, select bank0
  1243  0EC7  01C7               	clrf	main@spi_data
  1244  0EC8  0AC7               	incf	main@spi_data,f
  1245                           
  1246                           ;Main V4.0.c: 953: char *data_pointer;
  1247                           ;Main V4.0.c: 954: data_pointer = &spi_data[0];
  1248  0EC9  3047               	movlw	main@spi_data& (0+255)
  1249  0ECA  00C3               	movwf	??_main
  1250  0ECB  0843               	movf	??_main,w
  1251  0ECC  00E5               	movwf	main@data_pointer
  1252                           
  1253                           ;Main V4.0.c: 955: spi_data[1] = 0x81;
  1254  0ECD  3081               	movlw	129
  1255  0ECE  00C3               	movwf	??_main
  1256  0ECF  0843               	movf	??_main,w
  1257  0ED0  00C8               	movwf	main@spi_data+1
  1258                           
  1259                           ;Main V4.0.c: 956: spi_data[2] = 0x01;
  1260  0ED1  01C9               	clrf	main@spi_data+2
  1261  0ED2  0AC9               	incf	main@spi_data+2,f
  1262                           
  1263                           ;Main V4.0.c: 957: spi_data[3] = 0x13;
  1264  0ED3  3013               	movlw	19
  1265  0ED4  00C3               	movwf	??_main
  1266  0ED5  0843               	movf	??_main,w
  1267  0ED6  00CA               	movwf	main@spi_data+3
  1268                           
  1269                           ;Main V4.0.c: 958: spi_data[4] = 0x48;
  1270  0ED7  3048               	movlw	72
  1271  0ED8  00C3               	movwf	??_main
  1272  0ED9  0843               	movf	??_main,w
  1273  0EDA  00CB               	movwf	main@spi_data+4
  1274                           
  1275                           ;Main V4.0.c: 959: spi_data[5] = 0x48;
  1276  0EDB  3048               	movlw	72
  1277  0EDC  00C3               	movwf	??_main
  1278  0EDD  0843               	movf	??_main,w
  1279  0EDE  00CC               	movwf	main@spi_data+5
  1280                           
  1281                           ;Main V4.0.c: 960: spi_data[6] = 0x48;
  1282  0EDF  3048               	movlw	72
  1283  0EE0  00C3               	movwf	??_main
  1284  0EE1  0843               	movf	??_main,w
  1285  0EE2  00CD               	movwf	main@spi_data+6
  1286                           
  1287                           ;Main V4.0.c: 961: spi_data[7] = 0x48;
  1288  0EE3  3048               	movlw	72
  1289  0EE4  00C3               	movwf	??_main
  1290  0EE5  0843               	movf	??_main,w
  1291  0EE6  00CE               	movwf	main@spi_data+7
  1292                           
  1293                           ;Main V4.0.c: 962: spi_data[8] = 0x48;
  1294  0EE7  3048               	movlw	72
  1295  0EE8  00C3               	movwf	??_main
  1296  0EE9  0843               	movf	??_main,w
  1297  0EEA  00CF               	movwf	main@spi_data+8
  1298                           
  1299                           ;Main V4.0.c: 963: spi_data[9] = 0x48;
  1300  0EEB  3048               	movlw	72
  1301  0EEC  00C3               	movwf	??_main
  1302  0EED  0843               	movf	??_main,w
  1303  0EEE  00D0               	movwf	main@spi_data+9
  1304                           
  1305                           ;Main V4.0.c: 964: spi_data[10] = 0xaa;
  1306  0EEF  30AA               	movlw	170
  1307  0EF0  00C3               	movwf	??_main
  1308  0EF1  0843               	movf	??_main,w
  1309  0EF2  00D1               	movwf	main@spi_data+10
  1310                           
  1311                           ;Main V4.0.c: 968: int position[2];
  1312                           ;Main V4.0.c: 969: position[0] = 00;
  1313  0EF3  01E1               	clrf	main@position
  1314  0EF4  01E2               	clrf	main@position+1
  1315                           
  1316                           ;Main V4.0.c: 970: position[1] = 24;
  1317  0EF5  3018               	movlw	24
  1318  0EF6  00E3               	movwf	main@position+2
  1319  0EF7  3000               	movlw	0
  1320  0EF8  00E4               	movwf	main@position+3
  1321                           
  1322                           ;Main V4.0.c: 971: char display_matrix[10];
  1323                           ;Main V4.0.c: 972: int x;
  1324                           ;Main V4.0.c: 973: long int count = 0;
  1325  0EF9  3000               	movlw	0
  1326  0EFA  00E0               	movwf	main@count+3
  1327  0EFB  3000               	movlw	0
  1328  0EFC  00DF               	movwf	main@count+2
  1329  0EFD  3000               	movlw	0
  1330  0EFE  00DE               	movwf	main@count+1
  1331  0EFF  3000               	movlw	0
  1332  0F00  00DD               	movwf	main@count
  1333                           
  1334                           ;Main V4.0.c: 975: RC1 = 0;
  1335  0F01  1087               	bcf	7,1	;volatile
  1336                           
  1337                           ;Main V4.0.c: 976: _delay(100000);
  1338  0F02  3082               	movlw	130
  1339  0F03  00C4               	movwf	??_main+1
  1340  0F04  30DD               	movlw	221
  1341  0F05  00C3               	movwf	??_main
  1342  0F06                     u2577:	
  1343  0F06  0BC3               	decfsz	??_main,f
  1344  0F07  2F06               	goto	u2577
  1345  0F08  0BC4               	decfsz	??_main+1,f
  1346  0F09  2F06               	goto	u2577
  1347  0F0A  2F0B               	nop2
  1348                           
  1349                           ;Main V4.0.c: 977: RC1 = 1;
  1350  0F0B  1283               	bcf	3,5	;RP0=0, select bank0
  1351  0F0C  1303               	bcf	3,6	;RP1=0, select bank0
  1352  0F0D  1487               	bsf	7,1	;volatile
  1353                           
  1354                           ;Main V4.0.c: 978: _delay(100000);
  1355  0F0E  3082               	movlw	130
  1356  0F0F  00C4               	movwf	??_main+1
  1357  0F10  30DD               	movlw	221
  1358  0F11  00C3               	movwf	??_main
  1359  0F12                     u2587:	
  1360  0F12  0BC3               	decfsz	??_main,f
  1361  0F13  2F12               	goto	u2587
  1362  0F14  0BC4               	decfsz	??_main+1,f
  1363  0F15  2F12               	goto	u2587
  1364  0F16  2F17               	nop2
  1365                           
  1366                           ;Main V4.0.c: 980: comm_out (0xE3);
  1367  0F17  30E3               	movlw	227
  1368  0F18  120A  118A  2006  120A  158A  	fcall	_comm_out
  1369                           
  1370                           ;Main V4.0.c: 981: comm_out (0xA0);
  1371  0F1D  30A0               	movlw	160
  1372  0F1E  120A  118A  2006  120A  158A  	fcall	_comm_out
  1373                           
  1374                           ;Main V4.0.c: 982: comm_out (0xAE);
  1375  0F23  30AE               	movlw	174
  1376  0F24  120A  118A  2006  120A  158A  	fcall	_comm_out
  1377                           
  1378                           ;Main V4.0.c: 983: comm_out (0xC0);
  1379  0F29  30C0               	movlw	192
  1380  0F2A  120A  118A  2006  120A  158A  	fcall	_comm_out
  1381                           
  1382                           ;Main V4.0.c: 984: comm_out (0xA2);
  1383  0F2F  30A2               	movlw	162
  1384  0F30  120A  118A  2006  120A  158A  	fcall	_comm_out
  1385                           
  1386                           ;Main V4.0.c: 985: comm_out (0x2F);
  1387  0F35  302F               	movlw	47
  1388  0F36  120A  118A  2006  120A  158A  	fcall	_comm_out
  1389                           
  1390                           ;Main V4.0.c: 986: comm_out (0x21);
  1391  0F3B  3021               	movlw	33
  1392  0F3C  120A  118A  2006  120A  158A  	fcall	_comm_out
  1393                           
  1394                           ;Main V4.0.c: 987: comm_out (0x81);
  1395  0F41  3081               	movlw	129
  1396  0F42  120A  118A  2006  120A  158A  	fcall	_comm_out
  1397                           
  1398                           ;Main V4.0.c: 988: comm_out (0x2F);
  1399  0F47  302F               	movlw	47
  1400  0F48  120A  118A  2006  120A  158A  	fcall	_comm_out
  1401                           
  1402                           ;Main V4.0.c: 989: comm_out (0xA6);
  1403  0F4D  30A6               	movlw	166
  1404  0F4E  120A  118A  2006  120A  158A  	fcall	_comm_out
  1405                           
  1406                           ;Main V4.0.c: 992: _delay(100000);
  1407  0F53  3082               	movlw	130
  1408  0F54  1283               	bcf	3,5	;RP0=0, select bank0
  1409  0F55  1303               	bcf	3,6	;RP1=0, select bank0
  1410  0F56  00C4               	movwf	??_main+1
  1411  0F57  30DD               	movlw	221
  1412  0F58  00C3               	movwf	??_main
  1413  0F59                     u2597:	
  1414  0F59  0BC3               	decfsz	??_main,f
  1415  0F5A  2F59               	goto	u2597
  1416  0F5B  0BC4               	decfsz	??_main+1,f
  1417  0F5C  2F59               	goto	u2597
  1418  0F5D  2F5E               	nop2
  1419                           
  1420                           ;Main V4.0.c: 993: _delay(100000);
  1421  0F5E  3082               	movlw	130
  1422  0F5F  1283               	bcf	3,5	;RP0=0, select bank0
  1423  0F60  1303               	bcf	3,6	;RP1=0, select bank0
  1424  0F61  00C4               	movwf	??_main+1
  1425  0F62  30DD               	movlw	221
  1426  0F63  00C3               	movwf	??_main
  1427  0F64                     u2607:	
  1428  0F64  0BC3               	decfsz	??_main,f
  1429  0F65  2F64               	goto	u2607
  1430  0F66  0BC4               	decfsz	??_main+1,f
  1431  0F67  2F64               	goto	u2607
  1432  0F68  2F69               	nop2
  1433                           
  1434                           ;Main V4.0.c: 996: RB5 = 1;
  1435                           
  1436                           ;Main V4.0.c: 995: while(1){
  1437  0F69  1283               	bcf	3,5	;RP0=0, select bank0
  1438  0F6A  1303               	bcf	3,6	;RP1=0, select bank0
  1439  0F6B  1686               	bsf	6,5	;volatile
  1440                           
  1441                           ;Main V4.0.c: 997: RC7 = 1;
  1442  0F6C  1787               	bsf	7,7	;volatile
  1443                           
  1444                           ;Main V4.0.c: 998: _delay(100000);
  1445  0F6D  3082               	movlw	130
  1446  0F6E  00C4               	movwf	??_main+1
  1447  0F6F  30DD               	movlw	221
  1448  0F70  00C3               	movwf	??_main
  1449  0F71                     u2617:	
  1450  0F71  0BC3               	decfsz	??_main,f
  1451  0F72  2F71               	goto	u2617
  1452  0F73  0BC4               	decfsz	??_main+1,f
  1453  0F74  2F71               	goto	u2617
  1454  0F75  2F76               	nop2
  1455                           
  1456                           ;Main V4.0.c: 999: RB5 = 0;
  1457  0F76  1283               	bcf	3,5	;RP0=0, select bank0
  1458  0F77  1303               	bcf	3,6	;RP1=0, select bank0
  1459  0F78  1286               	bcf	6,5	;volatile
  1460                           
  1461                           ;Main V4.0.c: 1000: _delay(100000);
  1462  0F79  3082               	movlw	130
  1463  0F7A  00C4               	movwf	??_main+1
  1464  0F7B  30DD               	movlw	221
  1465  0F7C  00C3               	movwf	??_main
  1466  0F7D                     u2627:	
  1467  0F7D  0BC3               	decfsz	??_main,f
  1468  0F7E  2F7D               	goto	u2627
  1469  0F7F  0BC4               	decfsz	??_main+1,f
  1470  0F80  2F7D               	goto	u2627
  1471  0F81  2F82               	nop2
  1472                           
  1473                           ;Main V4.0.c: 1003: blank_image();
  1474  0F82  120A  158A  226B  120A  158A  	fcall	_blank_image
  1475                           
  1476                           ;Main V4.0.c: 1010: location(position);
  1477  0F87  3061               	movlw	main@position& (0+255)
  1478  0F88  120A  158A  254C  120A  158A  	fcall	_location
  1479                           
  1480                           ;Main V4.0.c: 1012: x = 48;
  1481  0F8D  3030               	movlw	48
  1482  0F8E  1283               	bcf	3,5	;RP0=0, select bank0
  1483  0F8F  1303               	bcf	3,6	;RP1=0, select bank0
  1484  0F90  00C5               	movwf	main@x
  1485  0F91  3000               	movlw	0
  1486  0F92  00C6               	movwf	main@x+1
  1487                           
  1488                           ;Main V4.0.c: 1017: String_test();
  1489  0F93  120A  158A  21A8  120A  158A  	fcall	_String_test
  1490  0F98                     l2915:	
  1491                           ;Main V4.0.c: 1019: while (1){
  1492                           
  1493                           
  1494                           ;Main V4.0.c: 1024: RB5 = 1;
  1495  0F98  1283               	bcf	3,5	;RP0=0, select bank0
  1496  0F99  1303               	bcf	3,6	;RP1=0, select bank0
  1497  0F9A  1686               	bsf	6,5	;volatile
  1498                           
  1499                           ;Main V4.0.c: 1062: chip_select(1);
  1500  0F9B  3001               	movlw	1
  1501  0F9C  00F1               	movwf	chip_select@chip
  1502  0F9D  3000               	movlw	0
  1503  0F9E  00F2               	movwf	chip_select@chip+1
  1504  0F9F  120A  158A  20A9  120A  158A  	fcall	_chip_select
  1505                           
  1506                           ;Main V4.0.c: 1063: _delay((unsigned long)((10)*(16000000/4000000.0)));
  1507  0FA4  300D               	movlw	13
  1508  0FA5  1283               	bcf	3,5	;RP0=0, select bank0
  1509  0FA6  1303               	bcf	3,6	;RP1=0, select bank0
  1510  0FA7  00C3               	movwf	??_main
  1511  0FA8                     u2637:	
  1512  0FA8  0BC3               	decfsz	??_main,f
  1513  0FA9  2FA8               	goto	u2637
  1514                           
  1515                           ;Main V4.0.c: 1064: SPI_DATA_HANDLING(data_pointer);
  1516  0FAA  1283               	bcf	3,5	;RP0=0, select bank0
  1517  0FAB  1303               	bcf	3,6	;RP1=0, select bank0
  1518  0FAC  0865               	movf	main@data_pointer,w
  1519  0FAD  120A  158A  2212  120A  158A  	fcall	_SPI_DATA_HANDLING
  1520                           
  1521                           ;Main V4.0.c: 1065: _delay((unsigned long)((10)*(16000000/4000000.0)));
  1522  0FB2  300D               	movlw	13
  1523  0FB3  1283               	bcf	3,5	;RP0=0, select bank0
  1524  0FB4  1303               	bcf	3,6	;RP1=0, select bank0
  1525  0FB5  00C3               	movwf	??_main
  1526  0FB6                     u2647:	
  1527  0FB6  0BC3               	decfsz	??_main,f
  1528  0FB7  2FB6               	goto	u2647
  1529                           
  1530                           ;Main V4.0.c: 1066: chip_select(0);
  1531  0FB8  3000               	movlw	0
  1532  0FB9  00F1               	movwf	chip_select@chip
  1533  0FBA  3000               	movlw	0
  1534  0FBB  00F2               	movwf	chip_select@chip+1
  1535  0FBC  120A  158A  20A9  120A  158A  	fcall	_chip_select
  1536                           
  1537                           ;Main V4.0.c: 1068: location(position);
  1538  0FC1  3061               	movlw	main@position& (0+255)
  1539  0FC2  120A  158A  254C  120A  158A  	fcall	_location
  1540                           
  1541                           ;Main V4.0.c: 1069: get_temp_from_right_tcs();
  1542  0FC7  120A  118A  201A  120A  158A  	fcall	_get_temp_from_right_tcs
  1543                           
  1544                           ;Main V4.0.c: 1070: RB5 = 0;
  1545  0FCC  1283               	bcf	3,5	;RP0=0, select bank0
  1546  0FCD  1303               	bcf	3,6	;RP1=0, select bank0
  1547  0FCE  1286               	bcf	6,5	;volatile
  1548                           
  1549                           ;Main V4.0.c: 1071: display_temps_to_screen();
  1550  0FCF  120A  118A  22F6  120A  158A  	fcall	_display_temps_to_screen
  1551                           
  1552                           ;Main V4.0.c: 1072: move_temp_to_send (data_pointer);
  1553  0FD4  1283               	bcf	3,5	;RP0=0, select bank0
  1554  0FD5  1303               	bcf	3,6	;RP1=0, select bank0
  1555  0FD6  0865               	movf	main@data_pointer,w
  1556  0FD7  120A  158A  24B7  120A  158A  	fcall	_move_temp_to_send
  1557                           
  1558                           ;Main V4.0.c: 1075: if (count > 20){
  1559  0FDC  1283               	bcf	3,5	;RP0=0, select bank0
  1560  0FDD  1303               	bcf	3,6	;RP1=0, select bank0
  1561  0FDE  0860               	movf	main@count+3,w
  1562  0FDF  3A80               	xorlw	128
  1563  0FE0  00FF               	movwf	127
  1564  0FE1  3000               	movlw	0
  1565  0FE2  3A80               	xorlw	128
  1566  0FE3  027F               	subwf	127,w
  1567  0FE4  1D03               	skipz
  1568  0FE5  2FF0               	goto	u2563
  1569  0FE6  3000               	movlw	0
  1570  0FE7  025F               	subwf	main@count+2,w
  1571  0FE8  1D03               	skipz
  1572  0FE9  2FF0               	goto	u2563
  1573  0FEA  3000               	movlw	0
  1574  0FEB  025E               	subwf	main@count+1,w
  1575  0FEC  1D03               	skipz
  1576  0FED  2FF0               	goto	u2563
  1577  0FEE  3015               	movlw	21
  1578  0FEF  025D               	subwf	main@count,w
  1579  0FF0                     u2563:	
  1580  0FF0  1C03               	skipc
  1581  0FF1  2F98               	goto	l2915
  1582                           
  1583                           ;Main V4.0.c: 1076: *data_pointer = 1;
  1584  0FF2  0865               	movf	main@data_pointer,w
  1585  0FF3  0084               	movwf	4
  1586  0FF4  1383               	bcf	3,7	;select IRP bank0
  1587  0FF5  0180               	clrf	0
  1588  0FF6  0A80               	incf	0,f
  1589                           
  1590                           ;Main V4.0.c: 1077: count = 0;
  1591  0FF7  3000               	movlw	0
  1592  0FF8  00E0               	movwf	main@count+3
  1593  0FF9  3000               	movlw	0
  1594  0FFA  00DF               	movwf	main@count+2
  1595  0FFB  3000               	movlw	0
  1596  0FFC  00DE               	movwf	main@count+1
  1597  0FFD  3000               	movlw	0
  1598  0FFE  00DD               	movwf	main@count
  1599  0FFF  2F98               	goto	l2915
  1600  1000                     __end_of_main:	
  1601                           
  1602                           	psect	text1
  1603  08C1                     __ptext1:	
  1604 ;; *************** function _spi_init *****************
  1605 ;; Defined at:
  1606 ;;		line 63 in file "Main V4.0.c"
  1607 ;; Parameters:    Size  Location     Type
  1608 ;;		None
  1609 ;; Auto vars:     Size  Location     Type
  1610 ;;		None
  1611 ;; Return value:  Size  Location     Type
  1612 ;;		None               void
  1613 ;; Registers used:
  1614 ;;		None
  1615 ;; Tracked objects:
  1616 ;;		On entry : 0/0
  1617 ;;		On exit  : 0/0
  1618 ;;		Unchanged: 0/0
  1619 ;; Data sizes:     COMMON   BANK0   BANK1   BANK3   BANK2
  1620 ;;      Params:         0       0       0       0       0
  1621 ;;      Locals:         0       0       0       0       0
  1622 ;;      Temps:          0       0       0       0       0
  1623 ;;      Totals:         0       0       0       0       0
  1624 ;;Total ram usage:        0 bytes
  1625 ;; Hardware stack levels used:    1
  1626 ;; This function calls:
  1627 ;;		Nothing
  1628 ;; This function is called by:
  1629 ;;		_main
  1630 ;; This function uses a non-reentrant model
  1631 ;;
  1632                           
  1633                           
  1634                           ;psect for function _spi_init
  1635  08C1                     _spi_init:	
  1636                           
  1637                           ;Main V4.0.c: 64: SSPEN = 1;
  1638                           
  1639                           ;incstack = 0
  1640                           ; Regs used in _spi_init: []
  1641  08C1  1283               	bcf	3,5	;RP0=0, select bank0
  1642  08C2  1303               	bcf	3,6	;RP1=0, select bank0
  1643  08C3  1694               	bsf	20,5	;volatile
  1644                           
  1645                           ;Main V4.0.c: 65: SSPM0 = 0;
  1646  08C4  1014               	bcf	20,0	;volatile
  1647                           
  1648                           ;Main V4.0.c: 66: SSPM1 = 1;
  1649  08C5  1494               	bsf	20,1	;volatile
  1650                           
  1651                           ;Main V4.0.c: 67: SSPM2 = 0;
  1652  08C6  1114               	bcf	20,2	;volatile
  1653                           
  1654                           ;Main V4.0.c: 68: SSPM3 = 0;
  1655  08C7  1194               	bcf	20,3	;volatile
  1656                           
  1657                           ;Main V4.0.c: 69: CKE = 1;
  1658  08C8  1683               	bsf	3,5	;RP0=1, select bank1
  1659  08C9  1303               	bcf	3,6	;RP1=0, select bank1
  1660  08CA  1714               	bsf	20,6	;volatile
  1661                           
  1662                           ;Main V4.0.c: 70: CKP = 0;
  1663  08CB  1283               	bcf	3,5	;RP0=0, select bank0
  1664  08CC  1303               	bcf	3,6	;RP1=0, select bank0
  1665  08CD  1214               	bcf	20,4	;volatile
  1666  08CE  0008               	return
  1667  08CF                     __end_of_spi_init:	
  1668                           
  1669                           	psect	text2
  1670  0CB7                     __ptext2:	
  1671 ;; *************** function _move_temp_to_send *****************
  1672 ;; Defined at:
  1673 ;;		line 918 in file "Main V4.0.c"
  1674 ;; Parameters:    Size  Location     Type
  1675 ;;  data_pointer    1    wreg     PTR unsigned char 
  1676 ;;		 -> main@spi_data(22), 
  1677 ;; Auto vars:     Size  Location     Type
  1678 ;;  data_pointer    1   12[COMMON] PTR unsigned char 
  1679 ;;		 -> main@spi_data(22), 
  1680 ;;  x               2    9[COMMON] int 
  1681 ;;  working_regi    2    6[COMMON] int 
  1682 ;;  reg             1   11[COMMON] PTR unsigned char 
  1683 ;;		 -> main@spi_data(22), NULL(0), 
  1684 ;;  byte_to_send    1    8[COMMON] unsigned char 
  1685 ;; Return value:  Size  Location     Type
  1686 ;;		None               void
  1687 ;; Registers used:
  1688 ;;		wreg, fsr0l, fsr0h, status,2, status,0, btemp+1, pclath, cstack
  1689 ;; Tracked objects:
  1690 ;;		On entry : 0/0
  1691 ;;		On exit  : 0/0
  1692 ;;		Unchanged: 0/0
  1693 ;; Data sizes:     COMMON   BANK0   BANK1   BANK3   BANK2
  1694 ;;      Params:         0       0       0       0       0
  1695 ;;      Locals:         7       0       0       0       0
  1696 ;;      Temps:          2       0       0       0       0
  1697 ;;      Totals:         9       0       0       0       0
  1698 ;;Total ram usage:        9 bytes
  1699 ;; Hardware stack levels used:    1
  1700 ;; Hardware stack levels required when called:    1
  1701 ;; This function calls:
  1702 ;;		___bmul
  1703 ;; This function is called by:
  1704 ;;		_main
  1705 ;; This function uses a non-reentrant model
  1706 ;;
  1707                           
  1708                           
  1709                           ;psect for function _move_temp_to_send
  1710  0CB7                     _move_temp_to_send:	
  1711                           
  1712                           ;incstack = 0
  1713                           ; Regs used in _move_temp_to_send: [wreg-fsr0h+status,2+status,0+btemp+1+pclath+cstack]
  1714                           ;move_temp_to_send@data_pointer stored from wreg
  1715  0CB7  00FD               	movwf	move_temp_to_send@data_pointer
  1716                           
  1717                           ;Main V4.0.c: 919: int x = 0;
  1718  0CB8  01FA               	clrf	move_temp_to_send@x
  1719  0CB9  01FB               	clrf	move_temp_to_send@x+1
  1720                           
  1721                           ;Main V4.0.c: 920: char *reg = 0;
  1722  0CBA  01FC               	clrf	move_temp_to_send@reg
  1723                           
  1724                           ;Main V4.0.c: 921: int working_register = 0;
  1725  0CBB  01F7               	clrf	move_temp_to_send@working_register
  1726  0CBC  01F8               	clrf	move_temp_to_send@working_register+1
  1727                           
  1728                           ;Main V4.0.c: 922: char byte_to_send = 0;
  1729  0CBD  01F9               	clrf	move_temp_to_send@byte_to_send
  1730                           
  1731                           ;Main V4.0.c: 923: if (*data_pointer == 0){
  1732  0CBE  087D               	movf	move_temp_to_send@data_pointer,w
  1733  0CBF  0084               	movwf	4
  1734  0CC0  1383               	bcf	3,7	;select IRP bank0
  1735  0CC1  0880               	movf	0,f
  1736  0CC2  1D03               	skipz
  1737  0CC3  0008               	return
  1738                           
  1739                           ;Main V4.0.c: 924: *data_pointer = 1;
  1740  0CC4  087D               	movf	move_temp_to_send@data_pointer,w
  1741  0CC5  0084               	movwf	4
  1742  0CC6  0180               	clrf	0
  1743  0CC7  0A80               	incf	0,f
  1744                           
  1745                           ;Main V4.0.c: 925: reg = data_pointer + 1;
  1746  0CC8  087D               	movf	move_temp_to_send@data_pointer,w
  1747  0CC9  3E01               	addlw	1
  1748  0CCA  00F5               	movwf	??_move_temp_to_send
  1749  0CCB  0875               	movf	??_move_temp_to_send,w
  1750  0CCC  00FC               	movwf	move_temp_to_send@reg
  1751                           
  1752                           ;Main V4.0.c: 926: *reg = 0x81;
  1753  0CCD  3081               	movlw	129
  1754  0CCE  00F5               	movwf	??_move_temp_to_send
  1755  0CCF  087C               	movf	move_temp_to_send@reg,w
  1756  0CD0  0084               	movwf	4
  1757  0CD1  0875               	movf	??_move_temp_to_send,w
  1758  0CD2  0080               	movwf	0
  1759                           
  1760                           ;Main V4.0.c: 927: reg = data_pointer + 2;
  1761  0CD3  087D               	movf	move_temp_to_send@data_pointer,w
  1762  0CD4  3E02               	addlw	2
  1763  0CD5  00F5               	movwf	??_move_temp_to_send
  1764  0CD6  0875               	movf	??_move_temp_to_send,w
  1765  0CD7  00FC               	movwf	move_temp_to_send@reg
  1766                           
  1767                           ;Main V4.0.c: 928: x = *reg;
  1768  0CD8  087C               	movf	move_temp_to_send@reg,w
  1769  0CD9  0084               	movwf	4
  1770  0CDA  0800               	movf	0,w
  1771  0CDB  00F5               	movwf	??_move_temp_to_send
  1772  0CDC  01F6               	clrf	??_move_temp_to_send+1
  1773  0CDD  0875               	movf	??_move_temp_to_send,w
  1774  0CDE  00FA               	movwf	move_temp_to_send@x
  1775  0CDF  0876               	movf	??_move_temp_to_send+1,w
  1776  0CE0  00FB               	movwf	move_temp_to_send@x+1
  1777                           
  1778                           ;Main V4.0.c: 929: x++;
  1779  0CE1  3001               	movlw	1
  1780  0CE2  07FA               	addwf	move_temp_to_send@x,f
  1781  0CE3  1803               	skipnc
  1782  0CE4  0AFB               	incf	move_temp_to_send@x+1,f
  1783  0CE5  3000               	movlw	0
  1784  0CE6  07FB               	addwf	move_temp_to_send@x+1,f
  1785                           
  1786                           ;Main V4.0.c: 930: if (x > 3){
  1787  0CE7  087B               	movf	move_temp_to_send@x+1,w
  1788  0CE8  3A80               	xorlw	128
  1789  0CE9  00FF               	movwf	127
  1790  0CEA  3080               	movlw	128
  1791  0CEB  027F               	subwf	127,w
  1792  0CEC  1D03               	skipz
  1793  0CED  2CF0               	goto	u2325
  1794  0CEE  3004               	movlw	4
  1795  0CEF  027A               	subwf	move_temp_to_send@x,w
  1796  0CF0                     u2325:	
  1797  0CF0  1C03               	skipc
  1798  0CF1  2CF6               	goto	l2577
  1799                           
  1800                           ;Main V4.0.c: 931: x = 1;
  1801  0CF2  3001               	movlw	1
  1802  0CF3  00FA               	movwf	move_temp_to_send@x
  1803  0CF4  3000               	movlw	0
  1804  0CF5  00FB               	movwf	move_temp_to_send@x+1
  1805  0CF6                     l2577:	
  1806                           
  1807                           ;Main V4.0.c: 933: }
  1808                           ;Main V4.0.c: 934: *reg = x;
  1809  0CF6  087A               	movf	move_temp_to_send@x,w
  1810  0CF7  00F5               	movwf	??_move_temp_to_send
  1811  0CF8  087C               	movf	move_temp_to_send@reg,w
  1812  0CF9  0084               	movwf	4
  1813  0CFA  0875               	movf	??_move_temp_to_send,w
  1814  0CFB  1383               	bcf	3,7	;select IRP bank0
  1815  0CFC  0080               	movwf	0
  1816                           
  1817                           ;Main V4.0.c: 935: reg = data_pointer + 4;
  1818  0CFD  087D               	movf	move_temp_to_send@data_pointer,w
  1819  0CFE  3E04               	addlw	4
  1820  0CFF  00F5               	movwf	??_move_temp_to_send
  1821  0D00  0875               	movf	??_move_temp_to_send,w
  1822  0D01  00FC               	movwf	move_temp_to_send@reg
  1823                           
  1824                           ;Main V4.0.c: 936: byte_to_send = thermocouple_temp[x][0] & 0xff;
  1825  0D02  3006               	movlw	6
  1826  0D03  00F5               	movwf	??_move_temp_to_send
  1827  0D04  0875               	movf	??_move_temp_to_send,w
  1828  0D05  00F1               	movwf	___bmul@multiplicand
  1829  0D06  087A               	movf	move_temp_to_send@x,w
  1830  0D07  120A  158A  20CF  120A  158A  	fcall	___bmul
  1831  0D0C  3E90               	addlw	_thermocouple_temp& (0+255)
  1832  0D0D  0084               	movwf	4
  1833  0D0E  1783               	bsf	3,7	;select IRP bank3
  1834  0D0F  0800               	movf	0,w
  1835  0D10  00F6               	movwf	??_move_temp_to_send+1
  1836  0D11  0876               	movf	??_move_temp_to_send+1,w
  1837  0D12  00F9               	movwf	move_temp_to_send@byte_to_send
  1838                           
  1839                           ;Main V4.0.c: 937: *reg = byte_to_send;
  1840  0D13  0879               	movf	move_temp_to_send@byte_to_send,w
  1841  0D14  00F5               	movwf	??_move_temp_to_send
  1842  0D15  087C               	movf	move_temp_to_send@reg,w
  1843  0D16  0084               	movwf	4
  1844  0D17  0875               	movf	??_move_temp_to_send,w
  1845  0D18  1383               	bcf	3,7	;select IRP bank0
  1846  0D19  0080               	movwf	0
  1847                           
  1848                           ;Main V4.0.c: 938: reg = data_pointer + 3;
  1849  0D1A  087D               	movf	move_temp_to_send@data_pointer,w
  1850  0D1B  3E03               	addlw	3
  1851  0D1C  00F5               	movwf	??_move_temp_to_send
  1852  0D1D  0875               	movf	??_move_temp_to_send,w
  1853  0D1E  00FC               	movwf	move_temp_to_send@reg
  1854                           
  1855                           ;Main V4.0.c: 939: working_register = thermocouple_temp[x][0];
  1856  0D1F  3006               	movlw	6
  1857  0D20  00F5               	movwf	??_move_temp_to_send
  1858  0D21  0875               	movf	??_move_temp_to_send,w
  1859  0D22  00F1               	movwf	___bmul@multiplicand
  1860  0D23  087A               	movf	move_temp_to_send@x,w
  1861  0D24  120A  158A  20CF  120A  158A  	fcall	___bmul
  1862  0D29  3E90               	addlw	_thermocouple_temp& (0+255)
  1863  0D2A  0084               	movwf	4
  1864  0D2B  1783               	bsf	3,7	;select IRP bank3
  1865  0D2C  0800               	movf	0,w
  1866  0D2D  00F7               	movwf	move_temp_to_send@working_register
  1867  0D2E  0A84               	incf	4,f
  1868  0D2F  0800               	movf	0,w
  1869  0D30  00F8               	movwf	move_temp_to_send@working_register+1
  1870                           
  1871                           ;Main V4.0.c: 940: working_register = working_register >> 8;
  1872  0D31  0878               	movf	move_temp_to_send@working_register+1,w
  1873  0D32  00F6               	movwf	??_move_temp_to_send+1
  1874  0D33  0877               	movf	move_temp_to_send@working_register,w
  1875  0D34  00F5               	movwf	??_move_temp_to_send
  1876  0D35  3008               	movlw	8
  1877  0D36  00FF               	movwf	127
  1878  0D37                     u2335:	
  1879  0D37  0D76               	rlf	??_move_temp_to_send+1,w
  1880  0D38  0CF6               	rrf	??_move_temp_to_send+1,f
  1881  0D39  0CF5               	rrf	??_move_temp_to_send,f
  1882  0D3A  0BFF               	decfsz	127,f
  1883  0D3B  2D37               	goto	u2335
  1884  0D3C  0875               	movf	??_move_temp_to_send,w
  1885  0D3D  00F7               	movwf	move_temp_to_send@working_register
  1886  0D3E  0876               	movf	??_move_temp_to_send+1,w
  1887  0D3F  00F8               	movwf	move_temp_to_send@working_register+1
  1888                           
  1889                           ;Main V4.0.c: 941: byte_to_send = working_register & 0xff;
  1890  0D40  0877               	movf	move_temp_to_send@working_register,w
  1891  0D41  00F5               	movwf	??_move_temp_to_send
  1892  0D42  0875               	movf	??_move_temp_to_send,w
  1893  0D43  00F9               	movwf	move_temp_to_send@byte_to_send
  1894                           
  1895                           ;Main V4.0.c: 942: *reg = byte_to_send;
  1896  0D44  0879               	movf	move_temp_to_send@byte_to_send,w
  1897  0D45  00F5               	movwf	??_move_temp_to_send
  1898  0D46  087C               	movf	move_temp_to_send@reg,w
  1899  0D47  0084               	movwf	4
  1900  0D48  0875               	movf	??_move_temp_to_send,w
  1901  0D49  1383               	bcf	3,7	;select IRP bank0
  1902  0D4A  0080               	movwf	0
  1903  0D4B  0008               	return
  1904  0D4C                     __end_of_move_temp_to_send:	
  1905                           
  1906                           	psect	text3
  1907  001A                     __ptext3:	
  1908 ;; *************** function _get_temp_from_right_tcs *****************
  1909 ;; Defined at:
  1910 ;;		line 657 in file "Main V4.0.c"
  1911 ;; Parameters:    Size  Location     Type
  1912 ;;		None
  1913 ;; Auto vars:     Size  Location     Type
  1914 ;;  position        4   23[BANK0 ] int [2]
  1915 ;;  x               2   28[BANK0 ] int 
  1916 ;;  byte_to_send    1   27[BANK0 ] unsigned char 
  1917 ;;  byte4           1   22[BANK0 ] unsigned char 
  1918 ;;  byte3           1   21[BANK0 ] unsigned char 
  1919 ;;  byte2           1   20[BANK0 ] unsigned char 
  1920 ;;  byte1           1   19[BANK0 ] unsigned char 
  1921 ;;  byte_receive    1   18[BANK0 ] unsigned char 
  1922 ;; Return value:  Size  Location     Type
  1923 ;;		None               void
  1924 ;; Registers used:
  1925 ;;		wreg, fsr0l, fsr0h, status,2, status,0, btemp+1, pclath, cstack
  1926 ;; Tracked objects:
  1927 ;;		On entry : 0/0
  1928 ;;		On exit  : 0/0
  1929 ;;		Unchanged: 0/0
  1930 ;; Data sizes:     COMMON   BANK0   BANK1   BANK3   BANK2
  1931 ;;      Params:         0       0       0       0       0
  1932 ;;      Locals:         0      12       0       0       0
  1933 ;;      Temps:          0       6       0       0       0
  1934 ;;      Totals:         0      18       0       0       0
  1935 ;;Total ram usage:       18 bytes
  1936 ;; Hardware stack levels used:    1
  1937 ;; Hardware stack levels required when called:    3
  1938 ;; This function calls:
  1939 ;;		_LCDWriteCharacter
  1940 ;;		_SPI_TRANSFER
  1941 ;;		___bmul
  1942 ;;		_char_to_decimal_print
  1943 ;;		_location
  1944 ;; This function is called by:
  1945 ;;		_main
  1946 ;; This function uses a non-reentrant model
  1947 ;;
  1948                           
  1949                           
  1950                           ;psect for function _get_temp_from_right_tcs
  1951  001A                     _get_temp_from_right_tcs:	
  1952                           
  1953                           ;Main V4.0.c: 658: char byte_to_send = 0;
  1954                           
  1955                           ;incstack = 0
  1956                           ; Regs used in _get_temp_from_right_tcs: [wreg-fsr0h+status,2+status,0+btemp+1+pclath+cs
      +                          tack]
  1957  001A  1283               	bcf	3,5	;RP0=0, select bank0
  1958  001B  1303               	bcf	3,6	;RP1=0, select bank0
  1959  001C  01BB               	clrf	get_temp_from_right_tcs@byte_to_send
  1960                           
  1961                           ;Main V4.0.c: 659: char byte_received = 0;
  1962  001D  01B2               	clrf	get_temp_from_right_tcs@byte_received
  1963                           
  1964                           ;Main V4.0.c: 660: char byte1 = 0;
  1965  001E  01B3               	clrf	get_temp_from_right_tcs@byte1
  1966                           
  1967                           ;Main V4.0.c: 661: char byte2 = 0;
  1968  001F  01B4               	clrf	get_temp_from_right_tcs@byte2
  1969                           
  1970                           ;Main V4.0.c: 662: char byte3 = 0;
  1971  0020  01B5               	clrf	get_temp_from_right_tcs@byte3
  1972                           
  1973                           ;Main V4.0.c: 663: char byte4 = 0;
  1974  0021  01B6               	clrf	get_temp_from_right_tcs@byte4
  1975                           
  1976                           ;Main V4.0.c: 664: int x = 1;
  1977  0022  3001               	movlw	1
  1978  0023  00BC               	movwf	get_temp_from_right_tcs@x
  1979  0024  3000               	movlw	0
  1980  0025  00BD               	movwf	get_temp_from_right_tcs@x+1
  1981                           
  1982                           ;Main V4.0.c: 665: int position[2];
  1983                           ;Main V4.0.c: 667: position[0] = 00;
  1984  0026  01B7               	clrf	get_temp_from_right_tcs@position
  1985  0027  01B8               	clrf	get_temp_from_right_tcs@position+1
  1986                           
  1987                           ;Main V4.0.c: 668: position[1] = 16;
  1988  0028  3010               	movlw	16
  1989  0029  00B9               	movwf	get_temp_from_right_tcs@position+2
  1990  002A  3000               	movlw	0
  1991  002B  00BA               	movwf	get_temp_from_right_tcs@position+3
  1992                           
  1993                           ;Main V4.0.c: 669: RA1 = 0;
  1994  002C  1085               	bcf	5,1	;volatile
  1995                           
  1996                           ;Main V4.0.c: 670: _delay((unsigned long)((100)*(16000000/4000000.0)));
  1997  002D  3085               	movlw	133
  1998  002E  00AC               	movwf	??_get_temp_from_right_tcs
  1999  002F                     u2657:	
  2000  002F  0BAC               	decfsz	??_get_temp_from_right_tcs,f
  2001  0030  282F               	goto	u2657
  2002                           
  2003                           ;Main V4.0.c: 671: RA1 = 1;
  2004  0031  1283               	bcf	3,5	;RP0=0, select bank0
  2005  0032  1303               	bcf	3,6	;RP1=0, select bank0
  2006  0033  1485               	bsf	5,1	;volatile
  2007  0034                     l2269:	
  2008                           ;Main V4.0.c: 672: while (x <= 3){
  2009                           
  2010  0034  1283               	bcf	3,5	;RP0=0, select bank0
  2011  0035  1303               	bcf	3,6	;RP1=0, select bank0
  2012  0036  083D               	movf	get_temp_from_right_tcs@x+1,w
  2013  0037  3A80               	xorlw	128
  2014  0038  00FF               	movwf	127
  2015  0039  3080               	movlw	128
  2016  003A  027F               	subwf	127,w
  2017  003B  1D03               	skipz
  2018  003C  283F               	goto	u1965
  2019  003D  3004               	movlw	4
  2020  003E  023C               	subwf	get_temp_from_right_tcs@x,w
  2021  003F                     u1965:	
  2022  003F  1803               	btfsc	3,0
  2023  0040  29DD               	goto	l2271
  2024                           
  2025                           ;Main V4.0.c: 673: RA2 = 0;
  2026  0041  1283               	bcf	3,5	;RP0=0, select bank0
  2027  0042  1303               	bcf	3,6	;RP1=0, select bank0
  2028  0043  1105               	bcf	5,2	;volatile
  2029                           
  2030                           ;Main V4.0.c: 674: _delay((unsigned long)((100)*(16000000/4000000.0)));
  2031  0044  3085               	movlw	133
  2032  0045  00AC               	movwf	??_get_temp_from_right_tcs
  2033  0046                     u2667:	
  2034  0046  0BAC               	decfsz	??_get_temp_from_right_tcs,f
  2035  0047  2846               	goto	u2667
  2036                           
  2037                           ;Main V4.0.c: 676: byte1= SPI_TRANSFER(byte_to_send);
  2038  0048  1283               	bcf	3,5	;RP0=0, select bank0
  2039  0049  1303               	bcf	3,6	;RP1=0, select bank0
  2040  004A  083B               	movf	get_temp_from_right_tcs@byte_to_send,w
  2041  004B  120A  158A  2178  120A  118A  	fcall	_SPI_TRANSFER
  2042  0050  1283               	bcf	3,5	;RP0=0, select bank0
  2043  0051  1303               	bcf	3,6	;RP1=0, select bank0
  2044  0052  00AC               	movwf	??_get_temp_from_right_tcs
  2045  0053  082C               	movf	??_get_temp_from_right_tcs,w
  2046  0054  00B3               	movwf	get_temp_from_right_tcs@byte1
  2047                           
  2048                           ;Main V4.0.c: 677: byte2 = SPI_TRANSFER(byte_to_send);
  2049  0055  083B               	movf	get_temp_from_right_tcs@byte_to_send,w
  2050  0056  120A  158A  2178  120A  118A  	fcall	_SPI_TRANSFER
  2051  005B  1283               	bcf	3,5	;RP0=0, select bank0
  2052  005C  1303               	bcf	3,6	;RP1=0, select bank0
  2053  005D  00AC               	movwf	??_get_temp_from_right_tcs
  2054  005E  082C               	movf	??_get_temp_from_right_tcs,w
  2055  005F  00B4               	movwf	get_temp_from_right_tcs@byte2
  2056                           
  2057                           ;Main V4.0.c: 678: byte3 = SPI_TRANSFER(byte_to_send);
  2058  0060  083B               	movf	get_temp_from_right_tcs@byte_to_send,w
  2059  0061  120A  158A  2178  120A  118A  	fcall	_SPI_TRANSFER
  2060  0066  1283               	bcf	3,5	;RP0=0, select bank0
  2061  0067  1303               	bcf	3,6	;RP1=0, select bank0
  2062  0068  00AC               	movwf	??_get_temp_from_right_tcs
  2063  0069  082C               	movf	??_get_temp_from_right_tcs,w
  2064  006A  00B5               	movwf	get_temp_from_right_tcs@byte3
  2065                           
  2066                           ;Main V4.0.c: 679: byte4 = SPI_TRANSFER(byte_to_send);
  2067  006B  083B               	movf	get_temp_from_right_tcs@byte_to_send,w
  2068  006C  120A  158A  2178  120A  118A  	fcall	_SPI_TRANSFER
  2069  0071  1283               	bcf	3,5	;RP0=0, select bank0
  2070  0072  1303               	bcf	3,6	;RP1=0, select bank0
  2071  0073  00AC               	movwf	??_get_temp_from_right_tcs
  2072  0074  082C               	movf	??_get_temp_from_right_tcs,w
  2073  0075  00B6               	movwf	get_temp_from_right_tcs@byte4
  2074                           
  2075                           ;Main V4.0.c: 680: thermocouple_temp[x][0] = (byte1 & 0x00FF);
  2076  0076  0833               	movf	get_temp_from_right_tcs@byte1,w
  2077  0077  00AC               	movwf	??_get_temp_from_right_tcs
  2078  0078  01AD               	clrf	??_get_temp_from_right_tcs+1
  2079  0079  3006               	movlw	6
  2080  007A  00AE               	movwf	??_get_temp_from_right_tcs+2
  2081  007B  082E               	movf	??_get_temp_from_right_tcs+2,w
  2082  007C  00F1               	movwf	___bmul@multiplicand
  2083  007D  083C               	movf	get_temp_from_right_tcs@x,w
  2084  007E  120A  158A  20CF  120A  118A  	fcall	___bmul
  2085  0083  3E90               	addlw	_thermocouple_temp& (0+255)
  2086  0084  0084               	movwf	4
  2087  0085  1283               	bcf	3,5	;RP0=0, select bank0
  2088  0086  1303               	bcf	3,6	;RP1=0, select bank0
  2089  0087  082C               	movf	??_get_temp_from_right_tcs,w
  2090  0088  1783               	bsf	3,7	;select IRP bank3
  2091  0089  0080               	movwf	0
  2092  008A  0A84               	incf	4,f
  2093  008B  082D               	movf	??_get_temp_from_right_tcs+1,w
  2094  008C  0080               	movwf	0
  2095                           
  2096                           ;Main V4.0.c: 681: thermocouple_temp[x][0] = thermocouple_temp[x][0] << 8;
  2097  008D  3006               	movlw	6
  2098  008E  00AC               	movwf	??_get_temp_from_right_tcs
  2099  008F  082C               	movf	??_get_temp_from_right_tcs,w
  2100  0090  00F1               	movwf	___bmul@multiplicand
  2101  0091  083C               	movf	get_temp_from_right_tcs@x,w
  2102  0092  120A  158A  20CF  120A  118A  	fcall	___bmul
  2103  0097  3E90               	addlw	_thermocouple_temp& (0+255)
  2104  0098  0084               	movwf	4
  2105  0099  1783               	bsf	3,7	;select IRP bank3
  2106  009A  0800               	movf	0,w
  2107  009B  1283               	bcf	3,5	;RP0=0, select bank0
  2108  009C  1303               	bcf	3,6	;RP1=0, select bank0
  2109  009D  00AD               	movwf	??_get_temp_from_right_tcs+1
  2110  009E  0A84               	incf	4,f
  2111  009F  0800               	movf	0,w
  2112  00A0  00AE               	movwf	??_get_temp_from_right_tcs+2
  2113  00A1  082D               	movf	??_get_temp_from_right_tcs+1,w
  2114  00A2  00AE               	movwf	??_get_temp_from_right_tcs+2
  2115  00A3  01AD               	clrf	??_get_temp_from_right_tcs+1
  2116  00A4  3006               	movlw	6
  2117  00A5  00AF               	movwf	??_get_temp_from_right_tcs+3
  2118  00A6  082F               	movf	??_get_temp_from_right_tcs+3,w
  2119  00A7  00F1               	movwf	___bmul@multiplicand
  2120  00A8  083C               	movf	get_temp_from_right_tcs@x,w
  2121  00A9  120A  158A  20CF  120A  118A  	fcall	___bmul
  2122  00AE  3E90               	addlw	_thermocouple_temp& (0+255)
  2123  00AF  0084               	movwf	4
  2124  00B0  1283               	bcf	3,5	;RP0=0, select bank0
  2125  00B1  1303               	bcf	3,6	;RP1=0, select bank0
  2126  00B2  082D               	movf	??_get_temp_from_right_tcs+1,w
  2127  00B3  1783               	bsf	3,7	;select IRP bank3
  2128  00B4  0080               	movwf	0
  2129  00B5  0A84               	incf	4,f
  2130  00B6  082E               	movf	??_get_temp_from_right_tcs+2,w
  2131  00B7  0080               	movwf	0
  2132                           
  2133                           ;Main V4.0.c: 682: thermocouple_temp[x][0] = (thermocouple_temp[x][0] | byte2);
  2134  00B8  3006               	movlw	6
  2135  00B9  00AC               	movwf	??_get_temp_from_right_tcs
  2136  00BA  082C               	movf	??_get_temp_from_right_tcs,w
  2137  00BB  00F1               	movwf	___bmul@multiplicand
  2138  00BC  083C               	movf	get_temp_from_right_tcs@x,w
  2139  00BD  120A  158A  20CF  120A  118A  	fcall	___bmul
  2140  00C2  3E90               	addlw	_thermocouple_temp& (0+255)
  2141  00C3  0084               	movwf	4
  2142  00C4  1783               	bsf	3,7	;select IRP bank3
  2143  00C5  0800               	movf	0,w
  2144  00C6  1283               	bcf	3,5	;RP0=0, select bank0
  2145  00C7  1303               	bcf	3,6	;RP1=0, select bank0
  2146  00C8  00AD               	movwf	??_get_temp_from_right_tcs+1
  2147  00C9  0A84               	incf	4,f
  2148  00CA  0800               	movf	0,w
  2149  00CB  00AE               	movwf	??_get_temp_from_right_tcs+2
  2150  00CC  082D               	movf	??_get_temp_from_right_tcs+1,w
  2151  00CD  0434               	iorwf	get_temp_from_right_tcs@byte2,w
  2152  00CE  00AF               	movwf	??_get_temp_from_right_tcs+3
  2153  00CF  082E               	movf	??_get_temp_from_right_tcs+2,w
  2154  00D0  00B0               	movwf	??_get_temp_from_right_tcs+4
  2155  00D1  3006               	movlw	6
  2156  00D2  00B1               	movwf	??_get_temp_from_right_tcs+5
  2157  00D3  0831               	movf	??_get_temp_from_right_tcs+5,w
  2158  00D4  00F1               	movwf	___bmul@multiplicand
  2159  00D5  083C               	movf	get_temp_from_right_tcs@x,w
  2160  00D6  120A  158A  20CF  120A  118A  	fcall	___bmul
  2161  00DB  3E90               	addlw	_thermocouple_temp& (0+255)
  2162  00DC  0084               	movwf	4
  2163  00DD  1283               	bcf	3,5	;RP0=0, select bank0
  2164  00DE  1303               	bcf	3,6	;RP1=0, select bank0
  2165  00DF  082F               	movf	??_get_temp_from_right_tcs+3,w
  2166  00E0  1783               	bsf	3,7	;select IRP bank3
  2167  00E1  0080               	movwf	0
  2168  00E2  0A84               	incf	4,f
  2169  00E3  0830               	movf	??_get_temp_from_right_tcs+4,w
  2170  00E4  0080               	movwf	0
  2171                           
  2172                           ;Main V4.0.c: 683: thermocouple_temp[x][0] = thermocouple_temp[x][0] >> 2;
  2173  00E5  3006               	movlw	6
  2174  00E6  00AC               	movwf	??_get_temp_from_right_tcs
  2175  00E7  082C               	movf	??_get_temp_from_right_tcs,w
  2176  00E8  00F1               	movwf	___bmul@multiplicand
  2177  00E9  083C               	movf	get_temp_from_right_tcs@x,w
  2178  00EA  120A  158A  20CF  120A  118A  	fcall	___bmul
  2179  00EF  3E90               	addlw	_thermocouple_temp& (0+255)
  2180  00F0  0084               	movwf	4
  2181  00F1  1783               	bsf	3,7	;select IRP bank3
  2182  00F2  0800               	movf	0,w
  2183  00F3  1283               	bcf	3,5	;RP0=0, select bank0
  2184  00F4  1303               	bcf	3,6	;RP1=0, select bank0
  2185  00F5  00AD               	movwf	??_get_temp_from_right_tcs+1
  2186  00F6  0A84               	incf	4,f
  2187  00F7  0800               	movf	0,w
  2188  00F8  00AE               	movwf	??_get_temp_from_right_tcs+2
  2189  00F9  0D2E               	rlf	??_get_temp_from_right_tcs+2,w
  2190  00FA  0CAE               	rrf	??_get_temp_from_right_tcs+2,f
  2191  00FB  0CAD               	rrf	??_get_temp_from_right_tcs+1,f
  2192  00FC  0D2E               	rlf	??_get_temp_from_right_tcs+2,w
  2193  00FD  0CAE               	rrf	??_get_temp_from_right_tcs+2,f
  2194  00FE  0CAD               	rrf	??_get_temp_from_right_tcs+1,f
  2195  00FF  3006               	movlw	6
  2196  0100  00AF               	movwf	??_get_temp_from_right_tcs+3
  2197  0101  082F               	movf	??_get_temp_from_right_tcs+3,w
  2198  0102  00F1               	movwf	___bmul@multiplicand
  2199  0103  083C               	movf	get_temp_from_right_tcs@x,w
  2200  0104  120A  158A  20CF  120A  118A  	fcall	___bmul
  2201  0109  3E90               	addlw	_thermocouple_temp& (0+255)
  2202  010A  0084               	movwf	4
  2203  010B  1283               	bcf	3,5	;RP0=0, select bank0
  2204  010C  1303               	bcf	3,6	;RP1=0, select bank0
  2205  010D  082D               	movf	??_get_temp_from_right_tcs+1,w
  2206  010E  1783               	bsf	3,7	;select IRP bank3
  2207  010F  0080               	movwf	0
  2208  0110  0A84               	incf	4,f
  2209  0111  082E               	movf	??_get_temp_from_right_tcs+2,w
  2210  0112  0080               	movwf	0
  2211                           
  2212                           ;Main V4.0.c: 685: thermocouple_temp[x][1] = (byte3 & 0x00FF);
  2213  0113  0835               	movf	get_temp_from_right_tcs@byte3,w
  2214  0114  00AC               	movwf	??_get_temp_from_right_tcs
  2215  0115  01AD               	clrf	??_get_temp_from_right_tcs+1
  2216  0116  3006               	movlw	6
  2217  0117  00AE               	movwf	??_get_temp_from_right_tcs+2
  2218  0118  082E               	movf	??_get_temp_from_right_tcs+2,w
  2219  0119  00F1               	movwf	___bmul@multiplicand
  2220  011A  083C               	movf	get_temp_from_right_tcs@x,w
  2221  011B  120A  158A  20CF  120A  118A  	fcall	___bmul
  2222  0120  3E02               	addlw	2
  2223  0121  3E90               	addlw	_thermocouple_temp& (0+255)
  2224  0122  0084               	movwf	4
  2225  0123  1283               	bcf	3,5	;RP0=0, select bank0
  2226  0124  1303               	bcf	3,6	;RP1=0, select bank0
  2227  0125  082C               	movf	??_get_temp_from_right_tcs,w
  2228  0126  1783               	bsf	3,7	;select IRP bank3
  2229  0127  0080               	movwf	0
  2230  0128  0A84               	incf	4,f
  2231  0129  082D               	movf	??_get_temp_from_right_tcs+1,w
  2232  012A  0080               	movwf	0
  2233                           
  2234                           ;Main V4.0.c: 686: thermocouple_temp[x][1] = thermocouple_temp[x][1] << 8;
  2235  012B  3006               	movlw	6
  2236  012C  00AC               	movwf	??_get_temp_from_right_tcs
  2237  012D  082C               	movf	??_get_temp_from_right_tcs,w
  2238  012E  00F1               	movwf	___bmul@multiplicand
  2239  012F  083C               	movf	get_temp_from_right_tcs@x,w
  2240  0130  120A  158A  20CF  120A  118A  	fcall	___bmul
  2241  0135  3E02               	addlw	2
  2242  0136  3E90               	addlw	_thermocouple_temp& (0+255)
  2243  0137  0084               	movwf	4
  2244  0138  1783               	bsf	3,7	;select IRP bank3
  2245  0139  0800               	movf	0,w
  2246  013A  1283               	bcf	3,5	;RP0=0, select bank0
  2247  013B  1303               	bcf	3,6	;RP1=0, select bank0
  2248  013C  00AD               	movwf	??_get_temp_from_right_tcs+1
  2249  013D  0A84               	incf	4,f
  2250  013E  0800               	movf	0,w
  2251  013F  00AE               	movwf	??_get_temp_from_right_tcs+2
  2252  0140  082D               	movf	??_get_temp_from_right_tcs+1,w
  2253  0141  00AE               	movwf	??_get_temp_from_right_tcs+2
  2254  0142  01AD               	clrf	??_get_temp_from_right_tcs+1
  2255  0143  3006               	movlw	6
  2256  0144  00AF               	movwf	??_get_temp_from_right_tcs+3
  2257  0145  082F               	movf	??_get_temp_from_right_tcs+3,w
  2258  0146  00F1               	movwf	___bmul@multiplicand
  2259  0147  083C               	movf	get_temp_from_right_tcs@x,w
  2260  0148  120A  158A  20CF  120A  118A  	fcall	___bmul
  2261  014D  3E02               	addlw	2
  2262  014E  3E90               	addlw	_thermocouple_temp& (0+255)
  2263  014F  0084               	movwf	4
  2264  0150  1283               	bcf	3,5	;RP0=0, select bank0
  2265  0151  1303               	bcf	3,6	;RP1=0, select bank0
  2266  0152  082D               	movf	??_get_temp_from_right_tcs+1,w
  2267  0153  1783               	bsf	3,7	;select IRP bank3
  2268  0154  0080               	movwf	0
  2269  0155  0A84               	incf	4,f
  2270  0156  082E               	movf	??_get_temp_from_right_tcs+2,w
  2271  0157  0080               	movwf	0
  2272                           
  2273                           ;Main V4.0.c: 687: thermocouple_temp[x][1] = (thermocouple_temp[x][1] | byte4);
  2274  0158  3006               	movlw	6
  2275  0159  00AC               	movwf	??_get_temp_from_right_tcs
  2276  015A  082C               	movf	??_get_temp_from_right_tcs,w
  2277  015B  00F1               	movwf	___bmul@multiplicand
  2278  015C  083C               	movf	get_temp_from_right_tcs@x,w
  2279  015D  120A  158A  20CF  120A  118A  	fcall	___bmul
  2280  0162  3E02               	addlw	2
  2281  0163  3E90               	addlw	_thermocouple_temp& (0+255)
  2282  0164  0084               	movwf	4
  2283  0165  1783               	bsf	3,7	;select IRP bank3
  2284  0166  0800               	movf	0,w
  2285  0167  1283               	bcf	3,5	;RP0=0, select bank0
  2286  0168  1303               	bcf	3,6	;RP1=0, select bank0
  2287  0169  00AD               	movwf	??_get_temp_from_right_tcs+1
  2288  016A  0A84               	incf	4,f
  2289  016B  0800               	movf	0,w
  2290  016C  00AE               	movwf	??_get_temp_from_right_tcs+2
  2291  016D  082D               	movf	??_get_temp_from_right_tcs+1,w
  2292  016E  0436               	iorwf	get_temp_from_right_tcs@byte4,w
  2293  016F  00AF               	movwf	??_get_temp_from_right_tcs+3
  2294  0170  082E               	movf	??_get_temp_from_right_tcs+2,w
  2295  0171  00B0               	movwf	??_get_temp_from_right_tcs+4
  2296  0172  3006               	movlw	6
  2297  0173  00B1               	movwf	??_get_temp_from_right_tcs+5
  2298  0174  0831               	movf	??_get_temp_from_right_tcs+5,w
  2299  0175  00F1               	movwf	___bmul@multiplicand
  2300  0176  083C               	movf	get_temp_from_right_tcs@x,w
  2301  0177  120A  158A  20CF  120A  118A  	fcall	___bmul
  2302  017C  3E02               	addlw	2
  2303  017D  3E90               	addlw	_thermocouple_temp& (0+255)
  2304  017E  0084               	movwf	4
  2305  017F  1283               	bcf	3,5	;RP0=0, select bank0
  2306  0180  1303               	bcf	3,6	;RP1=0, select bank0
  2307  0181  082F               	movf	??_get_temp_from_right_tcs+3,w
  2308  0182  1783               	bsf	3,7	;select IRP bank3
  2309  0183  0080               	movwf	0
  2310  0184  0A84               	incf	4,f
  2311  0185  0830               	movf	??_get_temp_from_right_tcs+4,w
  2312  0186  0080               	movwf	0
  2313                           
  2314                           ;Main V4.0.c: 688: thermocouple_temp[x][1] = thermocouple_temp[x][1] >> 4;
  2315  0187  3006               	movlw	6
  2316  0188  00AC               	movwf	??_get_temp_from_right_tcs
  2317  0189  082C               	movf	??_get_temp_from_right_tcs,w
  2318  018A  00F1               	movwf	___bmul@multiplicand
  2319  018B  083C               	movf	get_temp_from_right_tcs@x,w
  2320  018C  120A  158A  20CF  120A  118A  	fcall	___bmul
  2321  0191  3E02               	addlw	2
  2322  0192  3E90               	addlw	_thermocouple_temp& (0+255)
  2323  0193  0084               	movwf	4
  2324  0194  1783               	bsf	3,7	;select IRP bank3
  2325  0195  0800               	movf	0,w
  2326  0196  1283               	bcf	3,5	;RP0=0, select bank0
  2327  0197  1303               	bcf	3,6	;RP1=0, select bank0
  2328  0198  00AD               	movwf	??_get_temp_from_right_tcs+1
  2329  0199  0A84               	incf	4,f
  2330  019A  0800               	movf	0,w
  2331  019B  00AE               	movwf	??_get_temp_from_right_tcs+2
  2332  019C  3004               	movlw	4
  2333  019D  00FF               	movwf	127
  2334  019E                     u1955:	
  2335  019E  0D2E               	rlf	??_get_temp_from_right_tcs+2,w
  2336  019F  0CAE               	rrf	??_get_temp_from_right_tcs+2,f
  2337  01A0  0CAD               	rrf	??_get_temp_from_right_tcs+1,f
  2338  01A1  0BFF               	decfsz	127,f
  2339  01A2  299E               	goto	u1955
  2340  01A3  3006               	movlw	6
  2341  01A4  00AF               	movwf	??_get_temp_from_right_tcs+3
  2342  01A5  082F               	movf	??_get_temp_from_right_tcs+3,w
  2343  01A6  00F1               	movwf	___bmul@multiplicand
  2344  01A7  083C               	movf	get_temp_from_right_tcs@x,w
  2345  01A8  120A  158A  20CF  120A  118A  	fcall	___bmul
  2346  01AD  3E02               	addlw	2
  2347  01AE  3E90               	addlw	_thermocouple_temp& (0+255)
  2348  01AF  0084               	movwf	4
  2349  01B0  1283               	bcf	3,5	;RP0=0, select bank0
  2350  01B1  1303               	bcf	3,6	;RP1=0, select bank0
  2351  01B2  082D               	movf	??_get_temp_from_right_tcs+1,w
  2352  01B3  1783               	bsf	3,7	;select IRP bank3
  2353  01B4  0080               	movwf	0
  2354  01B5  0A84               	incf	4,f
  2355  01B6  082E               	movf	??_get_temp_from_right_tcs+2,w
  2356  01B7  0080               	movwf	0
  2357                           
  2358                           ;Main V4.0.c: 690: thermocouple_temp[x][2] = (byte4 & 0x000F);
  2359  01B8  0836               	movf	get_temp_from_right_tcs@byte4,w
  2360  01B9  390F               	andlw	15
  2361  01BA  00AC               	movwf	??_get_temp_from_right_tcs
  2362  01BB  01AD               	clrf	??_get_temp_from_right_tcs+1
  2363  01BC  3006               	movlw	6
  2364  01BD  00AE               	movwf	??_get_temp_from_right_tcs+2
  2365  01BE  082E               	movf	??_get_temp_from_right_tcs+2,w
  2366  01BF  00F1               	movwf	___bmul@multiplicand
  2367  01C0  083C               	movf	get_temp_from_right_tcs@x,w
  2368  01C1  120A  158A  20CF  120A  118A  	fcall	___bmul
  2369  01C6  3E04               	addlw	4
  2370  01C7  3E90               	addlw	_thermocouple_temp& (0+255)
  2371  01C8  0084               	movwf	4
  2372  01C9  1283               	bcf	3,5	;RP0=0, select bank0
  2373  01CA  1303               	bcf	3,6	;RP1=0, select bank0
  2374  01CB  082C               	movf	??_get_temp_from_right_tcs,w
  2375  01CC  1783               	bsf	3,7	;select IRP bank3
  2376  01CD  0080               	movwf	0
  2377  01CE  0A84               	incf	4,f
  2378  01CF  082D               	movf	??_get_temp_from_right_tcs+1,w
  2379  01D0  0080               	movwf	0
  2380                           
  2381                           ;Main V4.0.c: 692: x++;
  2382  01D1  3001               	movlw	1
  2383  01D2  07BC               	addwf	get_temp_from_right_tcs@x,f
  2384  01D3  1803               	skipnc
  2385  01D4  0ABD               	incf	get_temp_from_right_tcs@x+1,f
  2386  01D5  3000               	movlw	0
  2387  01D6  07BD               	addwf	get_temp_from_right_tcs@x+1,f
  2388                           
  2389                           ;Main V4.0.c: 693: RA2 = 1;
  2390  01D7  1505               	bsf	5,2	;volatile
  2391                           
  2392                           ;Main V4.0.c: 694: _delay((unsigned long)((100)*(16000000/4000000.0)));
  2393  01D8  3085               	movlw	133
  2394  01D9  00AC               	movwf	??_get_temp_from_right_tcs
  2395  01DA                     u2677:	
  2396  01DA  0BAC               	decfsz	??_get_temp_from_right_tcs,f
  2397  01DB  29DA               	goto	u2677
  2398  01DC  2834               	goto	l2269
  2399  01DD                     l2271:	
  2400                           
  2401                           ;Main V4.0.c: 695: }
  2402                           ;Main V4.0.c: 697: char_to_decimal_print(byte1);
  2403  01DD  1283               	bcf	3,5	;RP0=0, select bank0
  2404  01DE  1303               	bcf	3,6	;RP1=0, select bank0
  2405  01DF  0833               	movf	get_temp_from_right_tcs@byte1,w
  2406  01E0  00AC               	movwf	??_get_temp_from_right_tcs
  2407  01E1  01AD               	clrf	??_get_temp_from_right_tcs+1
  2408  01E2  082C               	movf	??_get_temp_from_right_tcs,w
  2409  01E3  00F9               	movwf	char_to_decimal_print@value
  2410  01E4  082D               	movf	??_get_temp_from_right_tcs+1,w
  2411  01E5  00FA               	movwf	char_to_decimal_print@value+1
  2412  01E6  120A  158A  2330  120A  118A  	fcall	_char_to_decimal_print
  2413                           
  2414                           ;Main V4.0.c: 698: LCDWriteCharacter(' ');
  2415  01EB  3020               	movlw	32
  2416  01EC  120A  158A  239C  120A  118A  	fcall	_LCDWriteCharacter
  2417                           
  2418                           ;Main V4.0.c: 699: char_to_decimal_print(byte2);
  2419  01F1  1283               	bcf	3,5	;RP0=0, select bank0
  2420  01F2  1303               	bcf	3,6	;RP1=0, select bank0
  2421  01F3  0834               	movf	get_temp_from_right_tcs@byte2,w
  2422  01F4  00AC               	movwf	??_get_temp_from_right_tcs
  2423  01F5  01AD               	clrf	??_get_temp_from_right_tcs+1
  2424  01F6  082C               	movf	??_get_temp_from_right_tcs,w
  2425  01F7  00F9               	movwf	char_to_decimal_print@value
  2426  01F8  082D               	movf	??_get_temp_from_right_tcs+1,w
  2427  01F9  00FA               	movwf	char_to_decimal_print@value+1
  2428  01FA  120A  158A  2330  120A  118A  	fcall	_char_to_decimal_print
  2429                           
  2430                           ;Main V4.0.c: 700: LCDWriteCharacter(' ');
  2431  01FF  3020               	movlw	32
  2432  0200  120A  158A  239C  120A  118A  	fcall	_LCDWriteCharacter
  2433                           
  2434                           ;Main V4.0.c: 701: char_to_decimal_print(byte3);
  2435  0205  1283               	bcf	3,5	;RP0=0, select bank0
  2436  0206  1303               	bcf	3,6	;RP1=0, select bank0
  2437  0207  0835               	movf	get_temp_from_right_tcs@byte3,w
  2438  0208  00AC               	movwf	??_get_temp_from_right_tcs
  2439  0209  01AD               	clrf	??_get_temp_from_right_tcs+1
  2440  020A  082C               	movf	??_get_temp_from_right_tcs,w
  2441  020B  00F9               	movwf	char_to_decimal_print@value
  2442  020C  082D               	movf	??_get_temp_from_right_tcs+1,w
  2443  020D  00FA               	movwf	char_to_decimal_print@value+1
  2444  020E  120A  158A  2330  120A  118A  	fcall	_char_to_decimal_print
  2445                           
  2446                           ;Main V4.0.c: 702: LCDWriteCharacter(' ');
  2447  0213  3020               	movlw	32
  2448  0214  120A  158A  239C  120A  118A  	fcall	_LCDWriteCharacter
  2449                           
  2450                           ;Main V4.0.c: 703: char_to_decimal_print(byte4);
  2451  0219  1283               	bcf	3,5	;RP0=0, select bank0
  2452  021A  1303               	bcf	3,6	;RP1=0, select bank0
  2453  021B  0836               	movf	get_temp_from_right_tcs@byte4,w
  2454  021C  00AC               	movwf	??_get_temp_from_right_tcs
  2455  021D  01AD               	clrf	??_get_temp_from_right_tcs+1
  2456  021E  082C               	movf	??_get_temp_from_right_tcs,w
  2457  021F  00F9               	movwf	char_to_decimal_print@value
  2458  0220  082D               	movf	??_get_temp_from_right_tcs+1,w
  2459  0221  00FA               	movwf	char_to_decimal_print@value+1
  2460  0222  120A  158A  2330  120A  118A  	fcall	_char_to_decimal_print
  2461                           
  2462                           ;Main V4.0.c: 704: LCDWriteCharacter(' ');
  2463  0227  3020               	movlw	32
  2464  0228  120A  158A  239C  120A  118A  	fcall	_LCDWriteCharacter
  2465                           
  2466                           ;Main V4.0.c: 707: location(position);
  2467  022D  3037               	movlw	get_temp_from_right_tcs@position& (0+255)
  2468  022E  120A  158A  254C  120A  118A  	fcall	_location
  2469                           
  2470                           ;Main V4.0.c: 708: char_to_decimal_print(thermocouple_temp[1][0]);
  2471  0233  1683               	bsf	3,5	;RP0=1, select bank3
  2472  0234  1703               	bsf	3,6	;RP1=1, select bank3
  2473  0235  0817               	movf	((_thermocouple_temp+1)^(0+384)+6),w
  2474  0236  01FA               	clrf	char_to_decimal_print@value+1
  2475  0237  07FA               	addwf	char_to_decimal_print@value+1,f
  2476  0238  0816               	movf	(_thermocouple_temp^(0+384)+6),w
  2477  0239  01F9               	clrf	char_to_decimal_print@value
  2478  023A  07F9               	addwf	char_to_decimal_print@value,f
  2479  023B  120A  158A  2330  120A  118A  	fcall	_char_to_decimal_print
  2480                           
  2481                           ;Main V4.0.c: 709: LCDWriteCharacter(' ');
  2482  0240  3020               	movlw	32
  2483  0241  120A  158A  239C  120A  118A  	fcall	_LCDWriteCharacter
  2484                           
  2485                           ;Main V4.0.c: 710: char_to_decimal_print(thermocouple_temp[1][1]);
  2486  0246  1683               	bsf	3,5	;RP0=1, select bank3
  2487  0247  1703               	bsf	3,6	;RP1=1, select bank3
  2488  0248  0819               	movf	((_thermocouple_temp+1)^(0+384)+8),w
  2489  0249  01FA               	clrf	char_to_decimal_print@value+1
  2490  024A  07FA               	addwf	char_to_decimal_print@value+1,f
  2491  024B  0818               	movf	(_thermocouple_temp^(0+384)+8),w
  2492  024C  01F9               	clrf	char_to_decimal_print@value
  2493  024D  07F9               	addwf	char_to_decimal_print@value,f
  2494  024E  120A  158A  2330  120A  118A  	fcall	_char_to_decimal_print
  2495                           
  2496                           ;Main V4.0.c: 711: LCDWriteCharacter(' ');
  2497  0253  3020               	movlw	32
  2498  0254  120A  158A  239C  120A  118A  	fcall	_LCDWriteCharacter
  2499                           
  2500                           ;Main V4.0.c: 712: char_to_decimal_print(thermocouple_temp[1][2]);
  2501  0259  1683               	bsf	3,5	;RP0=1, select bank3
  2502  025A  1703               	bsf	3,6	;RP1=1, select bank3
  2503  025B  081B               	movf	((_thermocouple_temp+1)^(0+384)+10),w
  2504  025C  01FA               	clrf	char_to_decimal_print@value+1
  2505  025D  07FA               	addwf	char_to_decimal_print@value+1,f
  2506  025E  081A               	movf	(_thermocouple_temp^(0+384)+10),w
  2507  025F  01F9               	clrf	char_to_decimal_print@value
  2508  0260  07F9               	addwf	char_to_decimal_print@value,f
  2509  0261  120A  158A  2330  120A  118A  	fcall	_char_to_decimal_print
  2510                           
  2511                           ;Main V4.0.c: 713: position[1] = 8;
  2512  0266  3008               	movlw	8
  2513  0267  1283               	bcf	3,5	;RP0=0, select bank0
  2514  0268  1303               	bcf	3,6	;RP1=0, select bank0
  2515  0269  00B9               	movwf	get_temp_from_right_tcs@position+2
  2516  026A  3000               	movlw	0
  2517  026B  00BA               	movwf	get_temp_from_right_tcs@position+3
  2518                           
  2519                           ;Main V4.0.c: 714: location(position);
  2520  026C  3037               	movlw	get_temp_from_right_tcs@position& (0+255)
  2521  026D  120A  158A  254C  120A  118A  	fcall	_location
  2522                           
  2523                           ;Main V4.0.c: 715: char_to_decimal_print(thermocouple_temp[2][0]);
  2524  0272  1683               	bsf	3,5	;RP0=1, select bank3
  2525  0273  1703               	bsf	3,6	;RP1=1, select bank3
  2526  0274  081D               	movf	((_thermocouple_temp+1)^(0+384)+12),w
  2527  0275  01FA               	clrf	char_to_decimal_print@value+1
  2528  0276  07FA               	addwf	char_to_decimal_print@value+1,f
  2529  0277  081C               	movf	(_thermocouple_temp^(0+384)+12),w
  2530  0278  01F9               	clrf	char_to_decimal_print@value
  2531  0279  07F9               	addwf	char_to_decimal_print@value,f
  2532  027A  120A  158A  2330  120A  118A  	fcall	_char_to_decimal_print
  2533                           
  2534                           ;Main V4.0.c: 716: LCDWriteCharacter(' ');
  2535  027F  3020               	movlw	32
  2536  0280  120A  158A  239C  120A  118A  	fcall	_LCDWriteCharacter
  2537                           
  2538                           ;Main V4.0.c: 717: char_to_decimal_print(thermocouple_temp[2][1]);
  2539  0285  1683               	bsf	3,5	;RP0=1, select bank3
  2540  0286  1703               	bsf	3,6	;RP1=1, select bank3
  2541  0287  081F               	movf	((_thermocouple_temp+1)^(0+384)+14),w
  2542  0288  01FA               	clrf	char_to_decimal_print@value+1
  2543  0289  07FA               	addwf	char_to_decimal_print@value+1,f
  2544  028A  081E               	movf	(_thermocouple_temp^(0+384)+14),w
  2545  028B  01F9               	clrf	char_to_decimal_print@value
  2546  028C  07F9               	addwf	char_to_decimal_print@value,f
  2547  028D  120A  158A  2330  120A  118A  	fcall	_char_to_decimal_print
  2548                           
  2549                           ;Main V4.0.c: 718: LCDWriteCharacter(' ');
  2550  0292  3020               	movlw	32
  2551  0293  120A  158A  239C  120A  118A  	fcall	_LCDWriteCharacter
  2552                           
  2553                           ;Main V4.0.c: 719: char_to_decimal_print(thermocouple_temp[2][2]);
  2554  0298  1683               	bsf	3,5	;RP0=1, select bank3
  2555  0299  1703               	bsf	3,6	;RP1=1, select bank3
  2556  029A  0821               	movf	((_thermocouple_temp+1)^(0+384)+16),w
  2557  029B  01FA               	clrf	char_to_decimal_print@value+1
  2558  029C  07FA               	addwf	char_to_decimal_print@value+1,f
  2559  029D  0820               	movf	(_thermocouple_temp^(0+384)+16),w
  2560  029E  01F9               	clrf	char_to_decimal_print@value
  2561  029F  07F9               	addwf	char_to_decimal_print@value,f
  2562  02A0  120A  158A  2330  120A  118A  	fcall	_char_to_decimal_print
  2563                           
  2564                           ;Main V4.0.c: 720: position[1] = 0;
  2565  02A5  1283               	bcf	3,5	;RP0=0, select bank0
  2566  02A6  1303               	bcf	3,6	;RP1=0, select bank0
  2567  02A7  01B9               	clrf	get_temp_from_right_tcs@position+2
  2568  02A8  01BA               	clrf	get_temp_from_right_tcs@position+3
  2569                           
  2570                           ;Main V4.0.c: 721: location(position);
  2571  02A9  3037               	movlw	get_temp_from_right_tcs@position& (0+255)
  2572  02AA  120A  158A  254C  120A  118A  	fcall	_location
  2573                           
  2574                           ;Main V4.0.c: 722: char_to_decimal_print(thermocouple_temp[3][0]);
  2575  02AF  1683               	bsf	3,5	;RP0=1, select bank3
  2576  02B0  1703               	bsf	3,6	;RP1=1, select bank3
  2577  02B1  0823               	movf	((_thermocouple_temp+1)^(0+384)+18),w
  2578  02B2  01FA               	clrf	char_to_decimal_print@value+1
  2579  02B3  07FA               	addwf	char_to_decimal_print@value+1,f
  2580  02B4  0822               	movf	(_thermocouple_temp^(0+384)+18),w
  2581  02B5  01F9               	clrf	char_to_decimal_print@value
  2582  02B6  07F9               	addwf	char_to_decimal_print@value,f
  2583  02B7  120A  158A  2330  120A  118A  	fcall	_char_to_decimal_print
  2584                           
  2585                           ;Main V4.0.c: 723: LCDWriteCharacter(' ');
  2586  02BC  3020               	movlw	32
  2587  02BD  120A  158A  239C  120A  118A  	fcall	_LCDWriteCharacter
  2588                           
  2589                           ;Main V4.0.c: 724: char_to_decimal_print(thermocouple_temp[3][1]);
  2590  02C2  1683               	bsf	3,5	;RP0=1, select bank3
  2591  02C3  1703               	bsf	3,6	;RP1=1, select bank3
  2592  02C4  0825               	movf	((_thermocouple_temp+1)^(0+384)+20),w
  2593  02C5  01FA               	clrf	char_to_decimal_print@value+1
  2594  02C6  07FA               	addwf	char_to_decimal_print@value+1,f
  2595  02C7  0824               	movf	(_thermocouple_temp^(0+384)+20),w
  2596  02C8  01F9               	clrf	char_to_decimal_print@value
  2597  02C9  07F9               	addwf	char_to_decimal_print@value,f
  2598  02CA  120A  158A  2330  120A  118A  	fcall	_char_to_decimal_print
  2599                           
  2600                           ;Main V4.0.c: 725: LCDWriteCharacter(' ');
  2601  02CF  3020               	movlw	32
  2602  02D0  120A  158A  239C  120A  118A  	fcall	_LCDWriteCharacter
  2603                           
  2604                           ;Main V4.0.c: 726: char_to_decimal_print(thermocouple_temp[3][2]);
  2605  02D5  1683               	bsf	3,5	;RP0=1, select bank3
  2606  02D6  1703               	bsf	3,6	;RP1=1, select bank3
  2607  02D7  0827               	movf	((_thermocouple_temp+1)^(0+384)+22),w
  2608  02D8  01FA               	clrf	char_to_decimal_print@value+1
  2609  02D9  07FA               	addwf	char_to_decimal_print@value+1,f
  2610  02DA  0826               	movf	(_thermocouple_temp^(0+384)+22),w
  2611  02DB  01F9               	clrf	char_to_decimal_print@value
  2612  02DC  07F9               	addwf	char_to_decimal_print@value,f
  2613  02DD  120A  158A  2330  120A  118A  	fcall	_char_to_decimal_print
  2614                           
  2615                           ;Main V4.0.c: 731: _delay((unsigned long)((200)*(16000000/4000000.0)));
  2616  02E2  30C7               	movlw	199
  2617  02E3  1283               	bcf	3,5	;RP0=0, select bank0
  2618  02E4  1303               	bcf	3,6	;RP1=0, select bank0
  2619  02E5  00AC               	movwf	??_get_temp_from_right_tcs
  2620  02E6                     u2687:	
  2621  02E6  0000               	nop
  2622  02E7  0BAC               	decfsz	??_get_temp_from_right_tcs,f
  2623  02E8  2AE6               	goto	u2687
  2624  02E9  2AEA               	nop2	;nop
  2625  02EA  0000               	nop
  2626                           
  2627                           ;Main V4.0.c: 737: RA1 = 0;
  2628  02EB  1283               	bcf	3,5	;RP0=0, select bank0
  2629  02EC  1303               	bcf	3,6	;RP1=0, select bank0
  2630  02ED  1085               	bcf	5,1	;volatile
  2631                           
  2632                           ;Main V4.0.c: 738: _delay((unsigned long)((100)*(16000000/4000000.0)));
  2633  02EE  3085               	movlw	133
  2634  02EF  00AC               	movwf	??_get_temp_from_right_tcs
  2635  02F0                     u2697:	
  2636  02F0  0BAC               	decfsz	??_get_temp_from_right_tcs,f
  2637  02F1  2AF0               	goto	u2697
  2638                           
  2639                           ;Main V4.0.c: 739: RA1 = 1;
  2640  02F2  1283               	bcf	3,5	;RP0=0, select bank0
  2641  02F3  1303               	bcf	3,6	;RP1=0, select bank0
  2642  02F4  1485               	bsf	5,1	;volatile
  2643  02F5  0008               	return
  2644  02F6                     __end_of_get_temp_from_right_tcs:	
  2645                           
  2646                           	psect	text4
  2647  08CF                     __ptext4:	
  2648 ;; *************** function ___bmul *****************
  2649 ;; Defined at:
  2650 ;;		line 4 in file "C:\Program Files (x86)\Microchip\xc8\v1.32\sources\common\Umul8.c"
  2651 ;; Parameters:    Size  Location     Type
  2652 ;;  multiplier      1    wreg     unsigned char 
  2653 ;;  multiplicand    1    0[COMMON] unsigned char 
  2654 ;; Auto vars:     Size  Location     Type
  2655 ;;  multiplier      1    3[COMMON] unsigned char 
  2656 ;;  product         1    2[COMMON] unsigned char 
  2657 ;; Return value:  Size  Location     Type
  2658 ;;                  1    wreg      unsigned char 
  2659 ;; Registers used:
  2660 ;;		wreg, status,2, status,0
  2661 ;; Tracked objects:
  2662 ;;		On entry : 0/0
  2663 ;;		On exit  : 0/0
  2664 ;;		Unchanged: 0/0
  2665 ;; Data sizes:     COMMON   BANK0   BANK1   BANK3   BANK2
  2666 ;;      Params:         1       0       0       0       0
  2667 ;;      Locals:         2       0       0       0       0
  2668 ;;      Temps:          1       0       0       0       0
  2669 ;;      Totals:         4       0       0       0       0
  2670 ;;Total ram usage:        4 bytes
  2671 ;; Hardware stack levels used:    1
  2672 ;; This function calls:
  2673 ;;		Nothing
  2674 ;; This function is called by:
  2675 ;;		_get_temp_from_right_tcs
  2676 ;;		_move_temp_to_send
  2677 ;; This function uses a non-reentrant model
  2678 ;;
  2679                           
  2680                           
  2681                           ;psect for function ___bmul
  2682  08CF                     ___bmul:	
  2683                           
  2684                           ;incstack = 0
  2685                           ; Regs used in ___bmul: [wreg+status,2+status,0]
  2686                           ;___bmul@multiplier stored from wreg
  2687  08CF  00F4               	movwf	___bmul@multiplier
  2688  08D0  01F3               	clrf	___bmul@product
  2689  08D1                     l2003:	
  2690  08D1  1C74               	btfss	___bmul@multiplier,0
  2691  08D2  28D7               	goto	l2007
  2692  08D3  0871               	movf	___bmul@multiplicand,w
  2693  08D4  00F2               	movwf	??___bmul
  2694  08D5  0872               	movf	??___bmul,w
  2695  08D6  07F3               	addwf	___bmul@product,f
  2696  08D7                     l2007:	
  2697  08D7  1003               	clrc
  2698  08D8  0DF1               	rlf	___bmul@multiplicand,f
  2699  08D9  1003               	clrc
  2700  08DA  0CF4               	rrf	___bmul@multiplier,f
  2701  08DB  08F4               	movf	___bmul@multiplier,f
  2702  08DC  1D03               	skipz
  2703  08DD  28D1               	goto	l2003
  2704  08DE  0873               	movf	___bmul@product,w
  2705  08DF  0008               	return
  2706  08E0                     __end_of___bmul:	
  2707                           
  2708                           	psect	text5
  2709  02F6                     __ptext5:	
  2710 ;; *************** function _display_temps_to_screen *****************
  2711 ;; Defined at:
  2712 ;;		line 744 in file "Main V4.0.c"
  2713 ;; Parameters:    Size  Location     Type
  2714 ;;		None
  2715 ;; Auto vars:     Size  Location     Type
  2716 ;;  shortgnd_str   11   29[BANK1 ] unsigned char [11]
  2717 ;;  shortvcc_str   11   18[BANK1 ] unsigned char [11]
  2718 ;;  celsius_stri    9   40[BANK1 ] unsigned char [9]
  2719 ;;  fault_string    7   49[BANK1 ] unsigned char [7]
  2720 ;;  open_string     6   56[BANK1 ] unsigned char [6]
  2721 ;;  sensor_three    6   12[BANK1 ] unsigned char [6]
  2722 ;;  sensor_two_s    6    6[BANK1 ] unsigned char [6]
  2723 ;;  sensor_one_s    6    0[BANK1 ] unsigned char [6]
  2724 ;;  position        4   69[BANK1 ] int [2]
  2725 ;;  working_regi    4   65[BANK1 ] long 
  2726 ;;  fault_string    1   77[BANK1 ] PTR unsigned char 
  2727 ;;		 -> display_temps_to_screen@fault_string(7), 
  2728 ;;  shortgnd_str    1   76[BANK1 ] PTR unsigned char 
  2729 ;;		 -> display_temps_to_screen@shortgnd_string(11), 
  2730 ;;  shortvcc_str    1   75[BANK1 ] PTR unsigned char 
  2731 ;;		 -> display_temps_to_screen@shortvcc_string(11), 
  2732 ;;  open_string_    1   74[BANK1 ] PTR unsigned char 
  2733 ;;		 -> display_temps_to_screen@open_string(6), 
  2734 ;;  celsius_stri    1   73[BANK1 ] PTR unsigned char 
  2735 ;;		 -> display_temps_to_screen@celsius_string(9), 
  2736 ;;  sensor_three    1   64[BANK1 ] PTR unsigned char 
  2737 ;;		 -> display_temps_to_screen@sensor_three_string(6), 
  2738 ;;  sensor_two_s    1   63[BANK1 ] PTR unsigned char 
  2739 ;;		 -> display_temps_to_screen@sensor_two_string(6), 
  2740 ;;  sensor_one_s    1   62[BANK1 ] PTR unsigned char 
  2741 ;;		 -> display_temps_to_screen@sensor_one_string(6), 
  2742 ;; Return value:  Size  Location     Type
  2743 ;;		None               void
  2744 ;; Registers used:
  2745 ;;		wreg, fsr0l, fsr0h, status,2, status,0, btemp+1, pclath, cstack
  2746 ;; Tracked objects:
  2747 ;;		On entry : 0/0
  2748 ;;		On exit  : 0/0
  2749 ;;		Unchanged: 0/0
  2750 ;; Data sizes:     COMMON   BANK0   BANK1   BANK3   BANK2
  2751 ;;      Params:         0       0       0       0       0
  2752 ;;      Locals:         0       0      78       0       0
  2753 ;;      Temps:          0       4       0       0       0
  2754 ;;      Totals:         0       4      78       0       0
  2755 ;;Total ram usage:       82 bytes
  2756 ;; Hardware stack levels used:    1
  2757 ;; Hardware stack levels required when called:    3
  2758 ;; This function calls:
  2759 ;;		_LCDWriteCharacter
  2760 ;;		___awtoft
  2761 ;;		___ftmul
  2762 ;;		___fttol
  2763 ;;		_char_to_decimal_print
  2764 ;;		_location
  2765 ;; This function is called by:
  2766 ;;		_main
  2767 ;; This function uses a non-reentrant model
  2768 ;;
  2769                           
  2770                           
  2771                           ;psect for function _display_temps_to_screen
  2772  02F6                     _display_temps_to_screen:	
  2773                           
  2774                           ;Main V4.0.c: 745: int position[2];
  2775                           ;Main V4.0.c: 746: long int working_register = 0;
  2776                           
  2777                           ;incstack = 0
  2778                           ; Regs used in _display_temps_to_screen: [wreg-fsr0h+status,2+status,0+btemp+1+pclath+cs
      +                          tack]
  2779  02F6  3000               	movlw	0
  2780  02F7  1683               	bsf	3,5	;RP0=1, select bank1
  2781  02F8  1303               	bcf	3,6	;RP1=0, select bank1
  2782  02F9  00E4               	movwf	(display_temps_to_screen@working_register+3)^(0+128)
  2783  02FA  3000               	movlw	0
  2784  02FB  00E3               	movwf	(display_temps_to_screen@working_register+2)^(0+128)
  2785  02FC  3000               	movlw	0
  2786  02FD  00E2               	movwf	(display_temps_to_screen@working_register+1)^(0+128)
  2787  02FE  3000               	movlw	0
  2788  02FF  00E1               	movwf	display_temps_to_screen@working_register^(0+128)
  2789                           
  2790                           ;Main V4.0.c: 747: char sensor_one_string [] = "S1 = ";
  2791  0300  30A0               	movlw	display_temps_to_screen@sensor_one_string& (0+255)
  2792  0301  0084               	movwf	4
  2793  0302  1283               	bcf	3,5	;RP0=0, select bank0
  2794  0303  1303               	bcf	3,6	;RP1=0, select bank0
  2795  0304  0866               	movf	display_temps_to_screen@F1447,w
  2796  0305  1383               	bcf	3,7	;select IRP bank1
  2797  0306  0080               	movwf	0
  2798  0307  0A84               	incf	4,f
  2799  0308  0867               	movf	display_temps_to_screen@F1447+1,w
  2800  0309  0080               	movwf	0
  2801  030A  0A84               	incf	4,f
  2802  030B  0868               	movf	display_temps_to_screen@F1447+2,w
  2803  030C  0080               	movwf	0
  2804  030D  0A84               	incf	4,f
  2805  030E  0869               	movf	display_temps_to_screen@F1447+3,w
  2806  030F  0080               	movwf	0
  2807  0310  0A84               	incf	4,f
  2808  0311  086A               	movf	display_temps_to_screen@F1447+4,w
  2809  0312  0080               	movwf	0
  2810  0313  0A84               	incf	4,f
  2811  0314  086B               	movf	display_temps_to_screen@F1447+5,w
  2812  0315  0080               	movwf	0
  2813                           
  2814                           ;Main V4.0.c: 748: char *sensor_one_string_pointer;
  2815                           ;Main V4.0.c: 749: sensor_one_string_pointer = &sensor_one_string;
  2816  0316  30A0               	movlw	display_temps_to_screen@sensor_one_string& (0+255)
  2817  0317  00BF               	movwf	??_display_temps_to_screen
  2818  0318  083F               	movf	??_display_temps_to_screen,w
  2819  0319  1683               	bsf	3,5	;RP0=1, select bank1
  2820  031A  1303               	bcf	3,6	;RP1=0, select bank1
  2821  031B  00DE               	movwf	display_temps_to_screen@sensor_one_string_pointer^(0+128)
  2822                           
  2823                           ;Main V4.0.c: 750: char sensor_two_string [] = "S2 = ";
  2824  031C  30A6               	movlw	display_temps_to_screen@sensor_two_string& (0+255)
  2825  031D  0084               	movwf	4
  2826  031E  1683               	bsf	3,5	;RP0=1, select bank3
  2827  031F  1703               	bsf	3,6	;RP1=1, select bank3
  2828  0320  0858               	movf	display_temps_to_screen@F1450^(0+384),w
  2829  0321  0080               	movwf	0
  2830  0322  0A84               	incf	4,f
  2831  0323  0859               	movf	(display_temps_to_screen@F1450^(0+384)+1),w
  2832  0324  0080               	movwf	0
  2833  0325  0A84               	incf	4,f
  2834  0326  085A               	movf	(display_temps_to_screen@F1450^(0+384)+2),w
  2835  0327  0080               	movwf	0
  2836  0328  0A84               	incf	4,f
  2837  0329  085B               	movf	(display_temps_to_screen@F1450^(0+384)+3),w
  2838  032A  0080               	movwf	0
  2839  032B  0A84               	incf	4,f
  2840  032C  085C               	movf	(display_temps_to_screen@F1450^(0+384)+4),w
  2841  032D  0080               	movwf	0
  2842  032E  0A84               	incf	4,f
  2843  032F  085D               	movf	(display_temps_to_screen@F1450^(0+384)+5),w
  2844  0330  0080               	movwf	0
  2845                           
  2846                           ;Main V4.0.c: 751: char *sensor_two_string_pointer;
  2847                           ;Main V4.0.c: 752: sensor_two_string_pointer = &sensor_two_string;
  2848  0331  30A6               	movlw	display_temps_to_screen@sensor_two_string& (0+255)
  2849  0332  1283               	bcf	3,5	;RP0=0, select bank0
  2850  0333  1303               	bcf	3,6	;RP1=0, select bank0
  2851  0334  00BF               	movwf	??_display_temps_to_screen
  2852  0335  083F               	movf	??_display_temps_to_screen,w
  2853  0336  1683               	bsf	3,5	;RP0=1, select bank1
  2854  0337  1303               	bcf	3,6	;RP1=0, select bank1
  2855  0338  00DF               	movwf	display_temps_to_screen@sensor_two_string_pointer^(0+128)
  2856                           
  2857                           ;Main V4.0.c: 753: char sensor_three_string [] = "S3 = ";
  2858  0339  30AC               	movlw	display_temps_to_screen@sensor_three_string& (0+255)
  2859  033A  0084               	movwf	4
  2860  033B  1683               	bsf	3,5	;RP0=1, select bank3
  2861  033C  1703               	bsf	3,6	;RP1=1, select bank3
  2862  033D  085E               	movf	display_temps_to_screen@F1453^(0+384),w
  2863  033E  0080               	movwf	0
  2864  033F  0A84               	incf	4,f
  2865  0340  085F               	movf	(display_temps_to_screen@F1453^(0+384)+1),w
  2866  0341  0080               	movwf	0
  2867  0342  0A84               	incf	4,f
  2868  0343  0860               	movf	(display_temps_to_screen@F1453^(0+384)+2),w
  2869  0344  0080               	movwf	0
  2870  0345  0A84               	incf	4,f
  2871  0346  0861               	movf	(display_temps_to_screen@F1453^(0+384)+3),w
  2872  0347  0080               	movwf	0
  2873  0348  0A84               	incf	4,f
  2874  0349  0862               	movf	(display_temps_to_screen@F1453^(0+384)+4),w
  2875  034A  0080               	movwf	0
  2876  034B  0A84               	incf	4,f
  2877  034C  0863               	movf	(display_temps_to_screen@F1453^(0+384)+5),w
  2878  034D  0080               	movwf	0
  2879                           
  2880                           ;Main V4.0.c: 754: char *sensor_three_string_pointer;
  2881                           ;Main V4.0.c: 755: sensor_three_string_pointer = &sensor_three_string;
  2882  034E  30AC               	movlw	display_temps_to_screen@sensor_three_string& (0+255)
  2883  034F  1283               	bcf	3,5	;RP0=0, select bank0
  2884  0350  1303               	bcf	3,6	;RP1=0, select bank0
  2885  0351  00BF               	movwf	??_display_temps_to_screen
  2886  0352  083F               	movf	??_display_temps_to_screen,w
  2887  0353  1683               	bsf	3,5	;RP0=1, select bank1
  2888  0354  1303               	bcf	3,6	;RP1=0, select bank1
  2889  0355  00E0               	movwf	display_temps_to_screen@sensor_three_string_pointer^(0+128)
  2890                           
  2891                           ;Main V4.0.c: 756: char celsius_string [] = " Celsius";
  2892  0356  30C8               	movlw	display_temps_to_screen@celsius_string& (0+255)
  2893  0357  0084               	movwf	4
  2894  0358  3033               	movlw	low display_temps_to_screen@F1456
  2895  0359  1283               	bcf	3,5	;RP0=0, select bank0
  2896  035A  1303               	bcf	3,6	;RP1=0, select bank0
  2897  035B  00BF               	movwf	??_display_temps_to_screen
  2898  035C  0804               	movf	4,w
  2899  035D  00C0               	movwf	??_display_temps_to_screen+1
  2900  035E  3009               	movlw	9
  2901  035F  00C1               	movwf	??_display_temps_to_screen+2
  2902  0360                     u1970:	
  2903  0360  083F               	movf	??_display_temps_to_screen,w
  2904  0361  0084               	movwf	4
  2905  0362  1783               	bsf	3,7	;select IRP bank2
  2906  0363  0800               	movf	0,w
  2907  0364  00C2               	movwf	??_display_temps_to_screen+3
  2908  0365  0ABF               	incf	??_display_temps_to_screen,f
  2909  0366  0840               	movf	??_display_temps_to_screen+1,w
  2910  0367  0084               	movwf	4
  2911  0368  1383               	bcf	3,7	;select IRP bank1
  2912  0369  0842               	movf	??_display_temps_to_screen+3,w
  2913  036A  0080               	movwf	0
  2914  036B  0AC0               	incf	??_display_temps_to_screen+1,f
  2915  036C  0BC1               	decfsz	??_display_temps_to_screen+2,f
  2916  036D  2B60               	goto	u1970
  2917                           
  2918                           ;Main V4.0.c: 757: char *celsius_string_pointer;
  2919                           ;Main V4.0.c: 758: celsius_string_pointer = &celsius_string;
  2920  036E  30C8               	movlw	display_temps_to_screen@celsius_string& (0+255)
  2921  036F  00BF               	movwf	??_display_temps_to_screen
  2922  0370  083F               	movf	??_display_temps_to_screen,w
  2923  0371  1683               	bsf	3,5	;RP0=1, select bank1
  2924  0372  1303               	bcf	3,6	;RP1=0, select bank1
  2925  0373  00E9               	movwf	display_temps_to_screen@celsius_string_pointer^(0+128)
  2926                           
  2927                           ;Main V4.0.c: 759: char open_string [] = "OPEN ";
  2928  0374  30D8               	movlw	display_temps_to_screen@open_string& (0+255)
  2929  0375  0084               	movwf	4
  2930  0376  1283               	bcf	3,5	;RP0=0, select bank2
  2931  0377  1703               	bsf	3,6	;RP1=1, select bank2
  2932  0378  0843               	movf	display_temps_to_screen@F1459^(0+256),w
  2933  0379  0080               	movwf	0
  2934  037A  0A84               	incf	4,f
  2935  037B  0844               	movf	(display_temps_to_screen@F1459^(0+256)+1),w
  2936  037C  0080               	movwf	0
  2937  037D  0A84               	incf	4,f
  2938  037E  0845               	movf	(display_temps_to_screen@F1459^(0+256)+2),w
  2939  037F  0080               	movwf	0
  2940  0380  0A84               	incf	4,f
  2941  0381  0846               	movf	(display_temps_to_screen@F1459^(0+256)+3),w
  2942  0382  0080               	movwf	0
  2943  0383  0A84               	incf	4,f
  2944  0384  0847               	movf	(display_temps_to_screen@F1459^(0+256)+4),w
  2945  0385  0080               	movwf	0
  2946  0386  0A84               	incf	4,f
  2947  0387  0848               	movf	(display_temps_to_screen@F1459^(0+256)+5),w
  2948  0388  0080               	movwf	0
  2949                           
  2950                           ;Main V4.0.c: 760: char *open_string_pointer;
  2951                           ;Main V4.0.c: 761: open_string_pointer = &open_string;
  2952  0389  30D8               	movlw	display_temps_to_screen@open_string& (0+255)
  2953  038A  1283               	bcf	3,5	;RP0=0, select bank0
  2954  038B  1303               	bcf	3,6	;RP1=0, select bank0
  2955  038C  00BF               	movwf	??_display_temps_to_screen
  2956  038D  083F               	movf	??_display_temps_to_screen,w
  2957  038E  1683               	bsf	3,5	;RP0=1, select bank1
  2958  038F  1303               	bcf	3,6	;RP1=0, select bank1
  2959  0390  00EA               	movwf	display_temps_to_screen@open_string_pointer^(0+128)
  2960                           
  2961                           ;Main V4.0.c: 762: char shortvcc_string [] = "SHORT VCC ";
  2962  0391  30B2               	movlw	display_temps_to_screen@shortvcc_string& (0+255)
  2963  0392  0084               	movwf	4
  2964  0393  301D               	movlw	low display_temps_to_screen@F1462
  2965  0394  1283               	bcf	3,5	;RP0=0, select bank0
  2966  0395  1303               	bcf	3,6	;RP1=0, select bank0
  2967  0396  00BF               	movwf	??_display_temps_to_screen
  2968  0397  0804               	movf	4,w
  2969  0398  00C0               	movwf	??_display_temps_to_screen+1
  2970  0399  300B               	movlw	11
  2971  039A  00C1               	movwf	??_display_temps_to_screen+2
  2972  039B                     u1980:	
  2973  039B  083F               	movf	??_display_temps_to_screen,w
  2974  039C  0084               	movwf	4
  2975  039D  1783               	bsf	3,7	;select IRP bank2
  2976  039E  0800               	movf	0,w
  2977  039F  00C2               	movwf	??_display_temps_to_screen+3
  2978  03A0  0ABF               	incf	??_display_temps_to_screen,f
  2979  03A1  0840               	movf	??_display_temps_to_screen+1,w
  2980  03A2  0084               	movwf	4
  2981  03A3  1383               	bcf	3,7	;select IRP bank1
  2982  03A4  0842               	movf	??_display_temps_to_screen+3,w
  2983  03A5  0080               	movwf	0
  2984  03A6  0AC0               	incf	??_display_temps_to_screen+1,f
  2985  03A7  0BC1               	decfsz	??_display_temps_to_screen+2,f
  2986  03A8  2B9B               	goto	u1980
  2987                           
  2988                           ;Main V4.0.c: 763: char *shortvcc_string_pointer;
  2989                           ;Main V4.0.c: 764: shortvcc_string_pointer = &shortvcc_string;
  2990  03A9  30B2               	movlw	display_temps_to_screen@shortvcc_string& (0+255)
  2991  03AA  00BF               	movwf	??_display_temps_to_screen
  2992  03AB  083F               	movf	??_display_temps_to_screen,w
  2993  03AC  1683               	bsf	3,5	;RP0=1, select bank1
  2994  03AD  1303               	bcf	3,6	;RP1=0, select bank1
  2995  03AE  00EB               	movwf	display_temps_to_screen@shortvcc_string_pointer^(0+128)
  2996                           
  2997                           ;Main V4.0.c: 765: char shortgnd_string [] = "SHORT GND ";
  2998  03AF  30BD               	movlw	display_temps_to_screen@shortgnd_string& (0+255)
  2999  03B0  0084               	movwf	4
  3000  03B1  3028               	movlw	low display_temps_to_screen@F1465
  3001  03B2  1283               	bcf	3,5	;RP0=0, select bank0
  3002  03B3  1303               	bcf	3,6	;RP1=0, select bank0
  3003  03B4  00BF               	movwf	??_display_temps_to_screen
  3004  03B5  0804               	movf	4,w
  3005  03B6  00C0               	movwf	??_display_temps_to_screen+1
  3006  03B7  300B               	movlw	11
  3007  03B8  00C1               	movwf	??_display_temps_to_screen+2
  3008  03B9                     u1990:	
  3009  03B9  083F               	movf	??_display_temps_to_screen,w
  3010  03BA  0084               	movwf	4
  3011  03BB  1783               	bsf	3,7	;select IRP bank2
  3012  03BC  0800               	movf	0,w
  3013  03BD  00C2               	movwf	??_display_temps_to_screen+3
  3014  03BE  0ABF               	incf	??_display_temps_to_screen,f
  3015  03BF  0840               	movf	??_display_temps_to_screen+1,w
  3016  03C0  0084               	movwf	4
  3017  03C1  1383               	bcf	3,7	;select IRP bank1
  3018  03C2  0842               	movf	??_display_temps_to_screen+3,w
  3019  03C3  0080               	movwf	0
  3020  03C4  0AC0               	incf	??_display_temps_to_screen+1,f
  3021  03C5  0BC1               	decfsz	??_display_temps_to_screen+2,f
  3022  03C6  2BB9               	goto	u1990
  3023                           
  3024                           ;Main V4.0.c: 766: char *shortgnd_string_pointer;
  3025                           ;Main V4.0.c: 767: shortgnd_string_pointer = &shortgnd_string;
  3026  03C7  30BD               	movlw	display_temps_to_screen@shortgnd_string& (0+255)
  3027  03C8  00BF               	movwf	??_display_temps_to_screen
  3028  03C9  083F               	movf	??_display_temps_to_screen,w
  3029  03CA  1683               	bsf	3,5	;RP0=1, select bank1
  3030  03CB  1303               	bcf	3,6	;RP1=0, select bank1
  3031  03CC  00EC               	movwf	display_temps_to_screen@shortgnd_string_pointer^(0+128)
  3032                           
  3033                           ;Main V4.0.c: 768: char fault_string [] = "FAULT ";
  3034  03CD  30D1               	movlw	display_temps_to_screen@fault_string& (0+255)
  3035  03CE  0084               	movwf	4
  3036  03CF  303C               	movlw	low display_temps_to_screen@F1468
  3037  03D0  1283               	bcf	3,5	;RP0=0, select bank0
  3038  03D1  1303               	bcf	3,6	;RP1=0, select bank0
  3039  03D2  00BF               	movwf	??_display_temps_to_screen
  3040  03D3  0804               	movf	4,w
  3041  03D4  00C0               	movwf	??_display_temps_to_screen+1
  3042  03D5  3007               	movlw	7
  3043  03D6  00C1               	movwf	??_display_temps_to_screen+2
  3044  03D7                     u2000:	
  3045  03D7  083F               	movf	??_display_temps_to_screen,w
  3046  03D8  0084               	movwf	4
  3047  03D9  1783               	bsf	3,7	;select IRP bank2
  3048  03DA  0800               	movf	0,w
  3049  03DB  00C2               	movwf	??_display_temps_to_screen+3
  3050  03DC  0ABF               	incf	??_display_temps_to_screen,f
  3051  03DD  0840               	movf	??_display_temps_to_screen+1,w
  3052  03DE  0084               	movwf	4
  3053  03DF  1383               	bcf	3,7	;select IRP bank1
  3054  03E0  0842               	movf	??_display_temps_to_screen+3,w
  3055  03E1  0080               	movwf	0
  3056  03E2  0AC0               	incf	??_display_temps_to_screen+1,f
  3057  03E3  0BC1               	decfsz	??_display_temps_to_screen+2,f
  3058  03E4  2BD7               	goto	u2000
  3059                           
  3060                           ;Main V4.0.c: 769: char *fault_string_pointer;
  3061                           ;Main V4.0.c: 770: fault_string_pointer = &fault_string;
  3062  03E5  30D1               	movlw	display_temps_to_screen@fault_string& (0+255)
  3063  03E6  00BF               	movwf	??_display_temps_to_screen
  3064  03E7  083F               	movf	??_display_temps_to_screen,w
  3065  03E8  1683               	bsf	3,5	;RP0=1, select bank1
  3066  03E9  1303               	bcf	3,6	;RP1=0, select bank1
  3067  03EA  00ED               	movwf	display_temps_to_screen@fault_string_pointer^(0+128)
  3068                           
  3069                           ;Main V4.0.c: 773: position[0] = 64;
  3070  03EB  3040               	movlw	64
  3071  03EC  00E5               	movwf	display_temps_to_screen@position^(0+128)
  3072  03ED  3000               	movlw	0
  3073  03EE  00E6               	movwf	(display_temps_to_screen@position^(0+128)+1)
  3074                           
  3075                           ;Main V4.0.c: 774: position[1] = 24;
  3076  03EF  3018               	movlw	24
  3077  03F0  00E7               	movwf	(display_temps_to_screen@position^(0+128)+2)
  3078  03F1  3000               	movlw	0
  3079  03F2  00E8               	movwf	(display_temps_to_screen@position^(0+128)+3)
  3080                           
  3081                           ;Main V4.0.c: 775: location(position);
  3082  03F3  30E5               	movlw	display_temps_to_screen@position& (0+255)
  3083  03F4  120A  158A  254C  120A  118A  	fcall	_location
  3084  03F9                     l2361:	
  3085                           ;Main V4.0.c: 776: while (*sensor_one_string_pointer != 0){
  3086                           
  3087  03F9  1683               	bsf	3,5	;RP0=1, select bank1
  3088  03FA  1303               	bcf	3,6	;RP1=0, select bank1
  3089  03FB  085E               	movf	display_temps_to_screen@sensor_one_string_pointer^(0+128),w
  3090  03FC  0084               	movwf	4
  3091  03FD  1383               	bcf	3,7	;select IRP bank0
  3092  03FE  0880               	movf	0,f
  3093  03FF  1903               	btfsc	3,2
  3094  0400  2C15               	goto	l2363
  3095                           
  3096                           ;Main V4.0.c: 777: LCDWriteCharacter(*sensor_one_string_pointer);
  3097  0401  1683               	bsf	3,5	;RP0=1, select bank1
  3098  0402  1303               	bcf	3,6	;RP1=0, select bank1
  3099  0403  085E               	movf	display_temps_to_screen@sensor_one_string_pointer^(0+128),w
  3100  0404  0084               	movwf	4
  3101  0405  1383               	bcf	3,7	;select IRP bank0
  3102  0406  0800               	movf	0,w
  3103  0407  120A  158A  239C  120A  118A  	fcall	_LCDWriteCharacter
  3104                           
  3105                           ;Main V4.0.c: 778: sensor_one_string_pointer++;
  3106  040C  3001               	movlw	1
  3107  040D  1283               	bcf	3,5	;RP0=0, select bank0
  3108  040E  1303               	bcf	3,6	;RP1=0, select bank0
  3109  040F  00BF               	movwf	??_display_temps_to_screen
  3110  0410  083F               	movf	??_display_temps_to_screen,w
  3111  0411  1683               	bsf	3,5	;RP0=1, select bank1
  3112  0412  1303               	bcf	3,6	;RP1=0, select bank1
  3113  0413  07DE               	addwf	display_temps_to_screen@sensor_one_string_pointer^(0+128),f
  3114  0414  2BF9               	goto	l2361
  3115  0415                     l2363:	
  3116                           
  3117                           ;Main V4.0.c: 779: }
  3118                           ;Main V4.0.c: 780: if (thermocouple_temp[1][2] == 1){
  3119  0415  3001               	movlw	1
  3120  0416  1683               	bsf	3,5	;RP0=1, select bank3
  3121  0417  1703               	bsf	3,6	;RP1=1, select bank3
  3122  0418  061A               	xorwf	(_thermocouple_temp^(0+384)+10),w
  3123  0419  041B               	iorwf	((_thermocouple_temp+1)^(0+384)+10),w
  3124  041A  1903               	btfsc	3,2
  3125  041B  2C2E               	goto	l2371
  3126  041C  2C3E               	goto	l2375
  3127  041D                     l2367:	
  3128                           ;Main V4.0.c: 781: while (*open_string_pointer != 0){
  3129                           
  3130                           
  3131                           ;Main V4.0.c: 782: LCDWriteCharacter(*open_string_pointer);
  3132  041D  1303               	bcf	3,6	;RP1=0, select bank1
  3133  041E  086A               	movf	display_temps_to_screen@open_string_pointer^(0+128),w
  3134  041F  0084               	movwf	4
  3135  0420  0800               	movf	0,w
  3136  0421  120A  158A  239C  120A  118A  	fcall	_LCDWriteCharacter
  3137                           
  3138                           ;Main V4.0.c: 783: open_string_pointer++;
  3139  0426  3001               	movlw	1
  3140  0427  1283               	bcf	3,5	;RP0=0, select bank0
  3141  0428  1303               	bcf	3,6	;RP1=0, select bank0
  3142  0429  00BF               	movwf	??_display_temps_to_screen
  3143  042A  083F               	movf	??_display_temps_to_screen,w
  3144  042B  1683               	bsf	3,5	;RP0=1, select bank1
  3145  042C  1303               	bcf	3,6	;RP1=0, select bank1
  3146  042D  07EA               	addwf	display_temps_to_screen@open_string_pointer^(0+128),f
  3147  042E                     l2371:	
  3148  042E  1303               	bcf	3,6	;RP1=0, select bank1
  3149  042F  086A               	movf	display_temps_to_screen@open_string_pointer^(0+128),w
  3150  0430  0084               	movwf	4
  3151  0431  1383               	bcf	3,7	;select IRP bank0
  3152  0432  0880               	movf	0,f
  3153  0433  1D03               	skipz
  3154  0434  2C1D               	goto	l2367
  3155                           
  3156                           ;Main V4.0.c: 784: }
  3157                           ;Main V4.0.c: 785: open_string_pointer = &open_string;
  3158  0435  30D8               	movlw	display_temps_to_screen@open_string& (0+255)
  3159  0436  1283               	bcf	3,5	;RP0=0, select bank0
  3160  0437  1303               	bcf	3,6	;RP1=0, select bank0
  3161  0438  00BF               	movwf	??_display_temps_to_screen
  3162  0439  083F               	movf	??_display_temps_to_screen,w
  3163  043A  1683               	bsf	3,5	;RP0=1, select bank1
  3164  043B  1303               	bcf	3,6	;RP1=0, select bank1
  3165  043C  00EA               	movwf	display_temps_to_screen@open_string_pointer^(0+128)
  3166                           
  3167                           ;Main V4.0.c: 786: }
  3168  043D  2D36               	goto	l238
  3169  043E                     l2375:	
  3170                           
  3171                           ;Main V4.0.c: 787: else if (thermocouple_temp[1][2] == 4){
  3172  043E  3004               	movlw	4
  3173  043F  1683               	bsf	3,5	;RP0=1, select bank3
  3174  0440  1703               	bsf	3,6	;RP1=1, select bank3
  3175  0441  061A               	xorwf	(_thermocouple_temp^(0+384)+10),w
  3176  0442  041B               	iorwf	((_thermocouple_temp+1)^(0+384)+10),w
  3177  0443  1903               	btfsc	3,2
  3178  0444  2C57               	goto	l2383
  3179  0445  2C67               	goto	l2387
  3180  0446                     l2379:	
  3181                           ;Main V4.0.c: 788: while (*shortvcc_string_pointer != 0){
  3182                           
  3183                           
  3184                           ;Main V4.0.c: 789: LCDWriteCharacter(*shortvcc_string_pointer);
  3185  0446  1303               	bcf	3,6	;RP1=0, select bank1
  3186  0447  086B               	movf	display_temps_to_screen@shortvcc_string_pointer^(0+128),w
  3187  0448  0084               	movwf	4
  3188  0449  0800               	movf	0,w
  3189  044A  120A  158A  239C  120A  118A  	fcall	_LCDWriteCharacter
  3190                           
  3191                           ;Main V4.0.c: 790: shortvcc_string_pointer++;
  3192  044F  3001               	movlw	1
  3193  0450  1283               	bcf	3,5	;RP0=0, select bank0
  3194  0451  1303               	bcf	3,6	;RP1=0, select bank0
  3195  0452  00BF               	movwf	??_display_temps_to_screen
  3196  0453  083F               	movf	??_display_temps_to_screen,w
  3197  0454  1683               	bsf	3,5	;RP0=1, select bank1
  3198  0455  1303               	bcf	3,6	;RP1=0, select bank1
  3199  0456  07EB               	addwf	display_temps_to_screen@shortvcc_string_pointer^(0+128),f
  3200  0457                     l2383:	
  3201  0457  1303               	bcf	3,6	;RP1=0, select bank1
  3202  0458  086B               	movf	display_temps_to_screen@shortvcc_string_pointer^(0+128),w
  3203  0459  0084               	movwf	4
  3204  045A  1383               	bcf	3,7	;select IRP bank0
  3205  045B  0880               	movf	0,f
  3206  045C  1D03               	skipz
  3207  045D  2C46               	goto	l2379
  3208                           
  3209                           ;Main V4.0.c: 791: }
  3210                           ;Main V4.0.c: 792: shortvcc_string_pointer = &shortvcc_string;
  3211  045E  30B2               	movlw	display_temps_to_screen@shortvcc_string& (0+255)
  3212  045F  1283               	bcf	3,5	;RP0=0, select bank0
  3213  0460  1303               	bcf	3,6	;RP1=0, select bank0
  3214  0461  00BF               	movwf	??_display_temps_to_screen
  3215  0462  083F               	movf	??_display_temps_to_screen,w
  3216  0463  1683               	bsf	3,5	;RP0=1, select bank1
  3217  0464  1303               	bcf	3,6	;RP1=0, select bank1
  3218  0465  00EB               	movwf	display_temps_to_screen@shortvcc_string_pointer^(0+128)
  3219                           
  3220                           ;Main V4.0.c: 793: }
  3221  0466  2D36               	goto	l238
  3222  0467                     l2387:	
  3223                           
  3224                           ;Main V4.0.c: 794: else if (thermocouple_temp[1][2] == 2){
  3225  0467  3002               	movlw	2
  3226  0468  1683               	bsf	3,5	;RP0=1, select bank3
  3227  0469  1703               	bsf	3,6	;RP1=1, select bank3
  3228  046A  061A               	xorwf	(_thermocouple_temp^(0+384)+10),w
  3229  046B  041B               	iorwf	((_thermocouple_temp+1)^(0+384)+10),w
  3230  046C  1903               	btfsc	3,2
  3231  046D  2C80               	goto	l2395
  3232  046E  2C90               	goto	l2399
  3233  046F                     l2391:	
  3234                           ;Main V4.0.c: 795: while (*shortgnd_string_pointer != 0){
  3235                           
  3236                           
  3237                           ;Main V4.0.c: 796: LCDWriteCharacter(*shortgnd_string_pointer);
  3238  046F  1303               	bcf	3,6	;RP1=0, select bank1
  3239  0470  086C               	movf	display_temps_to_screen@shortgnd_string_pointer^(0+128),w
  3240  0471  0084               	movwf	4
  3241  0472  0800               	movf	0,w
  3242  0473  120A  158A  239C  120A  118A  	fcall	_LCDWriteCharacter
  3243                           
  3244                           ;Main V4.0.c: 797: shortgnd_string_pointer++;
  3245  0478  3001               	movlw	1
  3246  0479  1283               	bcf	3,5	;RP0=0, select bank0
  3247  047A  1303               	bcf	3,6	;RP1=0, select bank0
  3248  047B  00BF               	movwf	??_display_temps_to_screen
  3249  047C  083F               	movf	??_display_temps_to_screen,w
  3250  047D  1683               	bsf	3,5	;RP0=1, select bank1
  3251  047E  1303               	bcf	3,6	;RP1=0, select bank1
  3252  047F  07EC               	addwf	display_temps_to_screen@shortgnd_string_pointer^(0+128),f
  3253  0480                     l2395:	
  3254  0480  1303               	bcf	3,6	;RP1=0, select bank1
  3255  0481  086C               	movf	display_temps_to_screen@shortgnd_string_pointer^(0+128),w
  3256  0482  0084               	movwf	4
  3257  0483  1383               	bcf	3,7	;select IRP bank0
  3258  0484  0880               	movf	0,f
  3259  0485  1D03               	skipz
  3260  0486  2C6F               	goto	l2391
  3261                           
  3262                           ;Main V4.0.c: 798: }
  3263                           ;Main V4.0.c: 799: shortgnd_string_pointer = &shortgnd_string;
  3264  0487  30BD               	movlw	display_temps_to_screen@shortgnd_string& (0+255)
  3265  0488  1283               	bcf	3,5	;RP0=0, select bank0
  3266  0489  1303               	bcf	3,6	;RP1=0, select bank0
  3267  048A  00BF               	movwf	??_display_temps_to_screen
  3268  048B  083F               	movf	??_display_temps_to_screen,w
  3269  048C  1683               	bsf	3,5	;RP0=1, select bank1
  3270  048D  1303               	bcf	3,6	;RP1=0, select bank1
  3271  048E  00EC               	movwf	display_temps_to_screen@shortgnd_string_pointer^(0+128)
  3272                           
  3273                           ;Main V4.0.c: 800: }
  3274  048F  2D36               	goto	l238
  3275  0490                     l2399:	
  3276                           
  3277                           ;Main V4.0.c: 801: else if (thermocouple_temp[1][2] > 4){
  3278  0490  1683               	bsf	3,5	;RP0=1, select bank3
  3279  0491  1703               	bsf	3,6	;RP1=1, select bank3
  3280  0492  081B               	movf	((_thermocouple_temp+1)^(0+384)+10),w
  3281  0493  3A80               	xorlw	128
  3282  0494  00FF               	movwf	127
  3283  0495  3080               	movlw	128
  3284  0496  027F               	subwf	127,w
  3285  0497  1D03               	skipz
  3286  0498  2C9B               	goto	u2085
  3287  0499  3005               	movlw	5
  3288  049A  021A               	subwf	(_thermocouple_temp^(0+384)+10),w
  3289  049B                     u2085:	
  3290  049B  1803               	btfsc	3,0
  3291  049C  2CB1               	goto	l2407
  3292  049D  2CC2               	goto	l2411
  3293  049E                     l2403:	
  3294                           ;Main V4.0.c: 802: while (*fault_string_pointer != 0){
  3295                           
  3296                           
  3297                           ;Main V4.0.c: 803: LCDWriteCharacter(*fault_string_pointer);
  3298  049E  1683               	bsf	3,5	;RP0=1, select bank1
  3299  049F  1303               	bcf	3,6	;RP1=0, select bank1
  3300  04A0  086D               	movf	display_temps_to_screen@fault_string_pointer^(0+128),w
  3301  04A1  0084               	movwf	4
  3302  04A2  1383               	bcf	3,7	;select IRP bank0
  3303  04A3  0800               	movf	0,w
  3304  04A4  120A  158A  239C  120A  118A  	fcall	_LCDWriteCharacter
  3305                           
  3306                           ;Main V4.0.c: 804: fault_string_pointer++;
  3307  04A9  3001               	movlw	1
  3308  04AA  1283               	bcf	3,5	;RP0=0, select bank0
  3309  04AB  1303               	bcf	3,6	;RP1=0, select bank0
  3310  04AC  00BF               	movwf	??_display_temps_to_screen
  3311  04AD  083F               	movf	??_display_temps_to_screen,w
  3312  04AE  1683               	bsf	3,5	;RP0=1, select bank1
  3313  04AF  1303               	bcf	3,6	;RP1=0, select bank1
  3314  04B0  07ED               	addwf	display_temps_to_screen@fault_string_pointer^(0+128),f
  3315  04B1                     l2407:	
  3316  04B1  1683               	bsf	3,5	;RP0=1, select bank1
  3317  04B2  1303               	bcf	3,6	;RP1=0, select bank1
  3318  04B3  086D               	movf	display_temps_to_screen@fault_string_pointer^(0+128),w
  3319  04B4  0084               	movwf	4
  3320  04B5  1383               	bcf	3,7	;select IRP bank0
  3321  04B6  0880               	movf	0,f
  3322  04B7  1D03               	skipz
  3323  04B8  2C9E               	goto	l2403
  3324                           
  3325                           ;Main V4.0.c: 805: }
  3326                           ;Main V4.0.c: 806: fault_string_pointer = &fault_string;
  3327  04B9  30D1               	movlw	display_temps_to_screen@fault_string& (0+255)
  3328  04BA  1283               	bcf	3,5	;RP0=0, select bank0
  3329  04BB  1303               	bcf	3,6	;RP1=0, select bank0
  3330  04BC  00BF               	movwf	??_display_temps_to_screen
  3331  04BD  083F               	movf	??_display_temps_to_screen,w
  3332  04BE  1683               	bsf	3,5	;RP0=1, select bank1
  3333  04BF  1303               	bcf	3,6	;RP1=0, select bank1
  3334  04C0  00ED               	movwf	display_temps_to_screen@fault_string_pointer^(0+128)
  3335                           
  3336                           ;Main V4.0.c: 807: }
  3337  04C1  2D36               	goto	l238
  3338  04C2                     l2411:	
  3339                           
  3340                           ;Main V4.0.c: 808: else{
  3341                           ;Main V4.0.c: 809: working_register = (thermocouple_temp[1][0]) * .25;
  3342  04C2  1683               	bsf	3,5	;RP0=1, select bank3
  3343  04C3  1703               	bsf	3,6	;RP1=1, select bank3
  3344  04C4  0817               	movf	((_thermocouple_temp+1)^(0+384)+6),w
  3345  04C5  01FA               	clrf	___awtoft@c+1
  3346  04C6  07FA               	addwf	___awtoft@c+1,f
  3347  04C7  0816               	movf	(_thermocouple_temp^(0+384)+6),w
  3348  04C8  01F9               	clrf	___awtoft@c
  3349  04C9  07F9               	addwf	___awtoft@c,f
  3350  04CA  120A  158A  2128  120A  118A  	fcall	___awtoft
  3351  04CF  0879               	movf	?___awtoft,w
  3352  04D0  1283               	bcf	3,5	;RP0=0, select bank0
  3353  04D1  1303               	bcf	3,6	;RP1=0, select bank0
  3354  04D2  00A4               	movwf	___ftmul@f2
  3355  04D3  087A               	movf	?___awtoft+1,w
  3356  04D4  00A5               	movwf	___ftmul@f2+1
  3357  04D5  087B               	movf	?___awtoft+2,w
  3358  04D6  00A6               	movwf	___ftmul@f2+2
  3359  04D7  3000               	movlw	0
  3360  04D8  00A1               	movwf	___ftmul@f1
  3361  04D9  3080               	movlw	128
  3362  04DA  00A2               	movwf	___ftmul@f1+1
  3363  04DB  303E               	movlw	62
  3364  04DC  00A3               	movwf	___ftmul@f1+2
  3365  04DD  120A  158A  25E8  120A  118A  	fcall	___ftmul
  3366  04E2  1283               	bcf	3,5	;RP0=0, select bank0
  3367  04E3  1303               	bcf	3,6	;RP1=0, select bank0
  3368  04E4  0821               	movf	?___ftmul,w
  3369  04E5  00B1               	movwf	___fttol@f1
  3370  04E6  0822               	movf	?___ftmul+1,w
  3371  04E7  00B2               	movwf	___fttol@f1+1
  3372  04E8  0823               	movf	?___ftmul+2,w
  3373  04E9  00B3               	movwf	___fttol@f1+2
  3374  04EA  120A  158A  2429  120A  118A  	fcall	___fttol
  3375  04EF  1283               	bcf	3,5	;RP0=0, select bank0
  3376  04F0  1303               	bcf	3,6	;RP1=0, select bank0
  3377  04F1  0834               	movf	?___fttol+3,w
  3378  04F2  1683               	bsf	3,5	;RP0=1, select bank1
  3379  04F3  1303               	bcf	3,6	;RP1=0, select bank1
  3380  04F4  00E4               	movwf	(display_temps_to_screen@working_register+3)^(0+128)
  3381  04F5  1283               	bcf	3,5	;RP0=0, select bank0
  3382  04F6  1303               	bcf	3,6	;RP1=0, select bank0
  3383  04F7  0833               	movf	?___fttol+2,w
  3384  04F8  1683               	bsf	3,5	;RP0=1, select bank1
  3385  04F9  1303               	bcf	3,6	;RP1=0, select bank1
  3386  04FA  00E3               	movwf	(display_temps_to_screen@working_register+2)^(0+128)
  3387  04FB  1283               	bcf	3,5	;RP0=0, select bank0
  3388  04FC  1303               	bcf	3,6	;RP1=0, select bank0
  3389  04FD  0832               	movf	?___fttol+1,w
  3390  04FE  1683               	bsf	3,5	;RP0=1, select bank1
  3391  04FF  1303               	bcf	3,6	;RP1=0, select bank1
  3392  0500  00E2               	movwf	(display_temps_to_screen@working_register+1)^(0+128)
  3393  0501  1283               	bcf	3,5	;RP0=0, select bank0
  3394  0502  1303               	bcf	3,6	;RP1=0, select bank0
  3395  0503  0831               	movf	?___fttol,w
  3396  0504  1683               	bsf	3,5	;RP0=1, select bank1
  3397  0505  1303               	bcf	3,6	;RP1=0, select bank1
  3398  0506  00E1               	movwf	display_temps_to_screen@working_register^(0+128)
  3399                           
  3400                           ;Main V4.0.c: 810: char_to_decimal_print(working_register);
  3401  0507  0862               	movf	(display_temps_to_screen@working_register+1)^(0+128),w
  3402  0508  01FA               	clrf	char_to_decimal_print@value+1
  3403  0509  07FA               	addwf	char_to_decimal_print@value+1,f
  3404  050A  0861               	movf	display_temps_to_screen@working_register^(0+128),w
  3405  050B  01F9               	clrf	char_to_decimal_print@value
  3406  050C  07F9               	addwf	char_to_decimal_print@value,f
  3407  050D  120A  158A  2330  120A  118A  	fcall	_char_to_decimal_print
  3408  0512                     l2419:	
  3409                           ;Main V4.0.c: 811: while (*celsius_string_pointer != 0){
  3410                           
  3411  0512  1683               	bsf	3,5	;RP0=1, select bank1
  3412  0513  1303               	bcf	3,6	;RP1=0, select bank1
  3413  0514  0869               	movf	display_temps_to_screen@celsius_string_pointer^(0+128),w
  3414  0515  0084               	movwf	4
  3415  0516  1383               	bcf	3,7	;select IRP bank0
  3416  0517  0880               	movf	0,f
  3417  0518  1903               	btfsc	3,2
  3418  0519  2D2E               	goto	l2421
  3419                           
  3420                           ;Main V4.0.c: 812: LCDWriteCharacter(*celsius_string_pointer);
  3421  051A  1683               	bsf	3,5	;RP0=1, select bank1
  3422  051B  1303               	bcf	3,6	;RP1=0, select bank1
  3423  051C  0869               	movf	display_temps_to_screen@celsius_string_pointer^(0+128),w
  3424  051D  0084               	movwf	4
  3425  051E  1383               	bcf	3,7	;select IRP bank0
  3426  051F  0800               	movf	0,w
  3427  0520  120A  158A  239C  120A  118A  	fcall	_LCDWriteCharacter
  3428                           
  3429                           ;Main V4.0.c: 813: celsius_string_pointer++;
  3430  0525  3001               	movlw	1
  3431  0526  1283               	bcf	3,5	;RP0=0, select bank0
  3432  0527  1303               	bcf	3,6	;RP1=0, select bank0
  3433  0528  00BF               	movwf	??_display_temps_to_screen
  3434  0529  083F               	movf	??_display_temps_to_screen,w
  3435  052A  1683               	bsf	3,5	;RP0=1, select bank1
  3436  052B  1303               	bcf	3,6	;RP1=0, select bank1
  3437  052C  07E9               	addwf	display_temps_to_screen@celsius_string_pointer^(0+128),f
  3438  052D  2D12               	goto	l2419
  3439  052E                     l2421:	
  3440                           
  3441                           ;Main V4.0.c: 814: }
  3442                           ;Main V4.0.c: 815: celsius_string_pointer = &celsius_string;
  3443  052E  30C8               	movlw	display_temps_to_screen@celsius_string& (0+255)
  3444  052F  1283               	bcf	3,5	;RP0=0, select bank0
  3445  0530  1303               	bcf	3,6	;RP1=0, select bank0
  3446  0531  00BF               	movwf	??_display_temps_to_screen
  3447  0532  083F               	movf	??_display_temps_to_screen,w
  3448  0533  1683               	bsf	3,5	;RP0=1, select bank1
  3449  0534  1303               	bcf	3,6	;RP1=0, select bank1
  3450  0535  00E9               	movwf	display_temps_to_screen@celsius_string_pointer^(0+128)
  3451  0536                     l238:	
  3452                           
  3453                           ;Main V4.0.c: 816: }
  3454                           ;Main V4.0.c: 820: position[0] = 64;
  3455  0536  3040               	movlw	64
  3456  0537  00E5               	movwf	display_temps_to_screen@position^(0+128)
  3457  0538  3000               	movlw	0
  3458  0539  00E6               	movwf	(display_temps_to_screen@position^(0+128)+1)
  3459                           
  3460                           ;Main V4.0.c: 821: position[1] = 16;
  3461  053A  3010               	movlw	16
  3462  053B  00E7               	movwf	(display_temps_to_screen@position^(0+128)+2)
  3463  053C  3000               	movlw	0
  3464  053D  00E8               	movwf	(display_temps_to_screen@position^(0+128)+3)
  3465                           
  3466                           ;Main V4.0.c: 822: location(position);
  3467  053E  30E5               	movlw	display_temps_to_screen@position& (0+255)
  3468  053F  120A  158A  254C  120A  118A  	fcall	_location
  3469  0544                     l2429:	
  3470                           ;Main V4.0.c: 823: while (*sensor_two_string_pointer != 0){
  3471                           
  3472  0544  1683               	bsf	3,5	;RP0=1, select bank1
  3473  0545  1303               	bcf	3,6	;RP1=0, select bank1
  3474  0546  085F               	movf	display_temps_to_screen@sensor_two_string_pointer^(0+128),w
  3475  0547  0084               	movwf	4
  3476  0548  1383               	bcf	3,7	;select IRP bank0
  3477  0549  0880               	movf	0,f
  3478  054A  1903               	btfsc	3,2
  3479  054B  2D60               	goto	l2431
  3480                           
  3481                           ;Main V4.0.c: 824: LCDWriteCharacter(*sensor_two_string_pointer);
  3482  054C  1683               	bsf	3,5	;RP0=1, select bank1
  3483  054D  1303               	bcf	3,6	;RP1=0, select bank1
  3484  054E  085F               	movf	display_temps_to_screen@sensor_two_string_pointer^(0+128),w
  3485  054F  0084               	movwf	4
  3486  0550  1383               	bcf	3,7	;select IRP bank0
  3487  0551  0800               	movf	0,w
  3488  0552  120A  158A  239C  120A  118A  	fcall	_LCDWriteCharacter
  3489                           
  3490                           ;Main V4.0.c: 825: sensor_two_string_pointer++;
  3491  0557  3001               	movlw	1
  3492  0558  1283               	bcf	3,5	;RP0=0, select bank0
  3493  0559  1303               	bcf	3,6	;RP1=0, select bank0
  3494  055A  00BF               	movwf	??_display_temps_to_screen
  3495  055B  083F               	movf	??_display_temps_to_screen,w
  3496  055C  1683               	bsf	3,5	;RP0=1, select bank1
  3497  055D  1303               	bcf	3,6	;RP1=0, select bank1
  3498  055E  07DF               	addwf	display_temps_to_screen@sensor_two_string_pointer^(0+128),f
  3499  055F  2D44               	goto	l2429
  3500  0560                     l2431:	
  3501                           
  3502                           ;Main V4.0.c: 826: }
  3503                           ;Main V4.0.c: 827: if (thermocouple_temp[2][2] == 1){
  3504  0560  3001               	movlw	1
  3505  0561  1683               	bsf	3,5	;RP0=1, select bank3
  3506  0562  1703               	bsf	3,6	;RP1=1, select bank3
  3507  0563  0620               	xorwf	(_thermocouple_temp^(0+384)+16),w
  3508  0564  0421               	iorwf	((_thermocouple_temp+1)^(0+384)+16),w
  3509  0565  1903               	btfsc	3,2
  3510  0566  2D79               	goto	l2439
  3511  0567  2D89               	goto	l2443
  3512  0568                     l2435:	
  3513                           ;Main V4.0.c: 828: while (*open_string_pointer != 0){
  3514                           
  3515                           
  3516                           ;Main V4.0.c: 829: LCDWriteCharacter(*open_string_pointer);
  3517  0568  1303               	bcf	3,6	;RP1=0, select bank1
  3518  0569  086A               	movf	display_temps_to_screen@open_string_pointer^(0+128),w
  3519  056A  0084               	movwf	4
  3520  056B  0800               	movf	0,w
  3521  056C  120A  158A  239C  120A  118A  	fcall	_LCDWriteCharacter
  3522                           
  3523                           ;Main V4.0.c: 830: open_string_pointer++;
  3524  0571  3001               	movlw	1
  3525  0572  1283               	bcf	3,5	;RP0=0, select bank0
  3526  0573  1303               	bcf	3,6	;RP1=0, select bank0
  3527  0574  00BF               	movwf	??_display_temps_to_screen
  3528  0575  083F               	movf	??_display_temps_to_screen,w
  3529  0576  1683               	bsf	3,5	;RP0=1, select bank1
  3530  0577  1303               	bcf	3,6	;RP1=0, select bank1
  3531  0578  07EA               	addwf	display_temps_to_screen@open_string_pointer^(0+128),f
  3532  0579                     l2439:	
  3533  0579  1303               	bcf	3,6	;RP1=0, select bank1
  3534  057A  086A               	movf	display_temps_to_screen@open_string_pointer^(0+128),w
  3535  057B  0084               	movwf	4
  3536  057C  1383               	bcf	3,7	;select IRP bank0
  3537  057D  0880               	movf	0,f
  3538  057E  1D03               	skipz
  3539  057F  2D68               	goto	l2435
  3540                           
  3541                           ;Main V4.0.c: 831: }
  3542                           ;Main V4.0.c: 832: open_string_pointer = &open_string;
  3543  0580  30D8               	movlw	display_temps_to_screen@open_string& (0+255)
  3544  0581  1283               	bcf	3,5	;RP0=0, select bank0
  3545  0582  1303               	bcf	3,6	;RP1=0, select bank0
  3546  0583  00BF               	movwf	??_display_temps_to_screen
  3547  0584  083F               	movf	??_display_temps_to_screen,w
  3548  0585  1683               	bsf	3,5	;RP0=1, select bank1
  3549  0586  1303               	bcf	3,6	;RP1=0, select bank1
  3550  0587  00EA               	movwf	display_temps_to_screen@open_string_pointer^(0+128)
  3551                           
  3552                           ;Main V4.0.c: 833: }
  3553  0588  2E81               	goto	l264
  3554  0589                     l2443:	
  3555                           
  3556                           ;Main V4.0.c: 834: else if (thermocouple_temp[2][2] == 4){
  3557  0589  3004               	movlw	4
  3558  058A  1683               	bsf	3,5	;RP0=1, select bank3
  3559  058B  1703               	bsf	3,6	;RP1=1, select bank3
  3560  058C  0620               	xorwf	(_thermocouple_temp^(0+384)+16),w
  3561  058D  0421               	iorwf	((_thermocouple_temp+1)^(0+384)+16),w
  3562  058E  1903               	btfsc	3,2
  3563  058F  2DA2               	goto	l2451
  3564  0590  2DB2               	goto	l2455
  3565  0591                     l2447:	
  3566                           ;Main V4.0.c: 835: while (*shortvcc_string_pointer != 0){
  3567                           
  3568                           
  3569                           ;Main V4.0.c: 836: LCDWriteCharacter(*shortvcc_string_pointer);
  3570  0591  1303               	bcf	3,6	;RP1=0, select bank1
  3571  0592  086B               	movf	display_temps_to_screen@shortvcc_string_pointer^(0+128),w
  3572  0593  0084               	movwf	4
  3573  0594  0800               	movf	0,w
  3574  0595  120A  158A  239C  120A  118A  	fcall	_LCDWriteCharacter
  3575                           
  3576                           ;Main V4.0.c: 837: shortvcc_string_pointer++;
  3577  059A  3001               	movlw	1
  3578  059B  1283               	bcf	3,5	;RP0=0, select bank0
  3579  059C  1303               	bcf	3,6	;RP1=0, select bank0
  3580  059D  00BF               	movwf	??_display_temps_to_screen
  3581  059E  083F               	movf	??_display_temps_to_screen,w
  3582  059F  1683               	bsf	3,5	;RP0=1, select bank1
  3583  05A0  1303               	bcf	3,6	;RP1=0, select bank1
  3584  05A1  07EB               	addwf	display_temps_to_screen@shortvcc_string_pointer^(0+128),f
  3585  05A2                     l2451:	
  3586  05A2  1303               	bcf	3,6	;RP1=0, select bank1
  3587  05A3  086B               	movf	display_temps_to_screen@shortvcc_string_pointer^(0+128),w
  3588  05A4  0084               	movwf	4
  3589  05A5  1383               	bcf	3,7	;select IRP bank0
  3590  05A6  0880               	movf	0,f
  3591  05A7  1D03               	skipz
  3592  05A8  2D91               	goto	l2447
  3593                           
  3594                           ;Main V4.0.c: 838: }
  3595                           ;Main V4.0.c: 839: shortvcc_string_pointer = &shortvcc_string;
  3596  05A9  30B2               	movlw	display_temps_to_screen@shortvcc_string& (0+255)
  3597  05AA  1283               	bcf	3,5	;RP0=0, select bank0
  3598  05AB  1303               	bcf	3,6	;RP1=0, select bank0
  3599  05AC  00BF               	movwf	??_display_temps_to_screen
  3600  05AD  083F               	movf	??_display_temps_to_screen,w
  3601  05AE  1683               	bsf	3,5	;RP0=1, select bank1
  3602  05AF  1303               	bcf	3,6	;RP1=0, select bank1
  3603  05B0  00EB               	movwf	display_temps_to_screen@shortvcc_string_pointer^(0+128)
  3604                           
  3605                           ;Main V4.0.c: 840: }
  3606  05B1  2E81               	goto	l264
  3607  05B2                     l2455:	
  3608                           
  3609                           ;Main V4.0.c: 841: else if (thermocouple_temp[2][2] == 2){
  3610  05B2  3002               	movlw	2
  3611  05B3  1683               	bsf	3,5	;RP0=1, select bank3
  3612  05B4  1703               	bsf	3,6	;RP1=1, select bank3
  3613  05B5  0620               	xorwf	(_thermocouple_temp^(0+384)+16),w
  3614  05B6  0421               	iorwf	((_thermocouple_temp+1)^(0+384)+16),w
  3615  05B7  1903               	btfsc	3,2
  3616  05B8  2DCB               	goto	l2463
  3617  05B9  2DDB               	goto	l2467
  3618  05BA                     l2459:	
  3619                           ;Main V4.0.c: 842: while (*shortgnd_string_pointer != 0){
  3620                           
  3621                           
  3622                           ;Main V4.0.c: 843: LCDWriteCharacter(*shortgnd_string_pointer);
  3623  05BA  1303               	bcf	3,6	;RP1=0, select bank1
  3624  05BB  086C               	movf	display_temps_to_screen@shortgnd_string_pointer^(0+128),w
  3625  05BC  0084               	movwf	4
  3626  05BD  0800               	movf	0,w
  3627  05BE  120A  158A  239C  120A  118A  	fcall	_LCDWriteCharacter
  3628                           
  3629                           ;Main V4.0.c: 844: shortgnd_string_pointer++;
  3630  05C3  3001               	movlw	1
  3631  05C4  1283               	bcf	3,5	;RP0=0, select bank0
  3632  05C5  1303               	bcf	3,6	;RP1=0, select bank0
  3633  05C6  00BF               	movwf	??_display_temps_to_screen
  3634  05C7  083F               	movf	??_display_temps_to_screen,w
  3635  05C8  1683               	bsf	3,5	;RP0=1, select bank1
  3636  05C9  1303               	bcf	3,6	;RP1=0, select bank1
  3637  05CA  07EC               	addwf	display_temps_to_screen@shortgnd_string_pointer^(0+128),f
  3638  05CB                     l2463:	
  3639  05CB  1303               	bcf	3,6	;RP1=0, select bank1
  3640  05CC  086C               	movf	display_temps_to_screen@shortgnd_string_pointer^(0+128),w
  3641  05CD  0084               	movwf	4
  3642  05CE  1383               	bcf	3,7	;select IRP bank0
  3643  05CF  0880               	movf	0,f
  3644  05D0  1D03               	skipz
  3645  05D1  2DBA               	goto	l2459
  3646                           
  3647                           ;Main V4.0.c: 845: }
  3648                           ;Main V4.0.c: 846: shortgnd_string_pointer = &shortgnd_string;
  3649  05D2  30BD               	movlw	display_temps_to_screen@shortgnd_string& (0+255)
  3650  05D3  1283               	bcf	3,5	;RP0=0, select bank0
  3651  05D4  1303               	bcf	3,6	;RP1=0, select bank0
  3652  05D5  00BF               	movwf	??_display_temps_to_screen
  3653  05D6  083F               	movf	??_display_temps_to_screen,w
  3654  05D7  1683               	bsf	3,5	;RP0=1, select bank1
  3655  05D8  1303               	bcf	3,6	;RP1=0, select bank1
  3656  05D9  00EC               	movwf	display_temps_to_screen@shortgnd_string_pointer^(0+128)
  3657                           
  3658                           ;Main V4.0.c: 847: }
  3659  05DA  2E81               	goto	l264
  3660  05DB                     l2467:	
  3661                           
  3662                           ;Main V4.0.c: 848: else if (thermocouple_temp[2][2] > 4){
  3663  05DB  1683               	bsf	3,5	;RP0=1, select bank3
  3664  05DC  1703               	bsf	3,6	;RP1=1, select bank3
  3665  05DD  0821               	movf	((_thermocouple_temp+1)^(0+384)+16),w
  3666  05DE  3A80               	xorlw	128
  3667  05DF  00FF               	movwf	127
  3668  05E0  3080               	movlw	128
  3669  05E1  027F               	subwf	127,w
  3670  05E2  1D03               	skipz
  3671  05E3  2DE6               	goto	u2185
  3672  05E4  3005               	movlw	5
  3673  05E5  0220               	subwf	(_thermocouple_temp^(0+384)+16),w
  3674  05E6                     u2185:	
  3675  05E6  1803               	btfsc	3,0
  3676  05E7  2DFC               	goto	l2475
  3677  05E8  2E0D               	goto	l2479
  3678  05E9                     l2471:	
  3679                           ;Main V4.0.c: 849: while (*fault_string_pointer != 0){
  3680                           
  3681                           
  3682                           ;Main V4.0.c: 850: LCDWriteCharacter(*fault_string_pointer);
  3683  05E9  1683               	bsf	3,5	;RP0=1, select bank1
  3684  05EA  1303               	bcf	3,6	;RP1=0, select bank1
  3685  05EB  086D               	movf	display_temps_to_screen@fault_string_pointer^(0+128),w
  3686  05EC  0084               	movwf	4
  3687  05ED  1383               	bcf	3,7	;select IRP bank0
  3688  05EE  0800               	movf	0,w
  3689  05EF  120A  158A  239C  120A  118A  	fcall	_LCDWriteCharacter
  3690                           
  3691                           ;Main V4.0.c: 851: fault_string_pointer++;
  3692  05F4  3001               	movlw	1
  3693  05F5  1283               	bcf	3,5	;RP0=0, select bank0
  3694  05F6  1303               	bcf	3,6	;RP1=0, select bank0
  3695  05F7  00BF               	movwf	??_display_temps_to_screen
  3696  05F8  083F               	movf	??_display_temps_to_screen,w
  3697  05F9  1683               	bsf	3,5	;RP0=1, select bank1
  3698  05FA  1303               	bcf	3,6	;RP1=0, select bank1
  3699  05FB  07ED               	addwf	display_temps_to_screen@fault_string_pointer^(0+128),f
  3700  05FC                     l2475:	
  3701  05FC  1683               	bsf	3,5	;RP0=1, select bank1
  3702  05FD  1303               	bcf	3,6	;RP1=0, select bank1
  3703  05FE  086D               	movf	display_temps_to_screen@fault_string_pointer^(0+128),w
  3704  05FF  0084               	movwf	4
  3705  0600  1383               	bcf	3,7	;select IRP bank0
  3706  0601  0880               	movf	0,f
  3707  0602  1D03               	skipz
  3708  0603  2DE9               	goto	l2471
  3709                           
  3710                           ;Main V4.0.c: 852: }
  3711                           ;Main V4.0.c: 853: fault_string_pointer = &fault_string;
  3712  0604  30D1               	movlw	display_temps_to_screen@fault_string& (0+255)
  3713  0605  1283               	bcf	3,5	;RP0=0, select bank0
  3714  0606  1303               	bcf	3,6	;RP1=0, select bank0
  3715  0607  00BF               	movwf	??_display_temps_to_screen
  3716  0608  083F               	movf	??_display_temps_to_screen,w
  3717  0609  1683               	bsf	3,5	;RP0=1, select bank1
  3718  060A  1303               	bcf	3,6	;RP1=0, select bank1
  3719  060B  00ED               	movwf	display_temps_to_screen@fault_string_pointer^(0+128)
  3720                           
  3721                           ;Main V4.0.c: 854: }
  3722  060C  2E81               	goto	l264
  3723  060D                     l2479:	
  3724                           
  3725                           ;Main V4.0.c: 855: else{
  3726                           ;Main V4.0.c: 856: working_register = (thermocouple_temp[2][0]) * .25;
  3727  060D  1683               	bsf	3,5	;RP0=1, select bank3
  3728  060E  1703               	bsf	3,6	;RP1=1, select bank3
  3729  060F  081D               	movf	((_thermocouple_temp+1)^(0+384)+12),w
  3730  0610  01FA               	clrf	___awtoft@c+1
  3731  0611  07FA               	addwf	___awtoft@c+1,f
  3732  0612  081C               	movf	(_thermocouple_temp^(0+384)+12),w
  3733  0613  01F9               	clrf	___awtoft@c
  3734  0614  07F9               	addwf	___awtoft@c,f
  3735  0615  120A  158A  2128  120A  118A  	fcall	___awtoft
  3736  061A  0879               	movf	?___awtoft,w
  3737  061B  1283               	bcf	3,5	;RP0=0, select bank0
  3738  061C  1303               	bcf	3,6	;RP1=0, select bank0
  3739  061D  00A4               	movwf	___ftmul@f2
  3740  061E  087A               	movf	?___awtoft+1,w
  3741  061F  00A5               	movwf	___ftmul@f2+1
  3742  0620  087B               	movf	?___awtoft+2,w
  3743  0621  00A6               	movwf	___ftmul@f2+2
  3744  0622  3000               	movlw	0
  3745  0623  00A1               	movwf	___ftmul@f1
  3746  0624  3080               	movlw	128
  3747  0625  00A2               	movwf	___ftmul@f1+1
  3748  0626  303E               	movlw	62
  3749  0627  00A3               	movwf	___ftmul@f1+2
  3750  0628  120A  158A  25E8  120A  118A  	fcall	___ftmul
  3751  062D  1283               	bcf	3,5	;RP0=0, select bank0
  3752  062E  1303               	bcf	3,6	;RP1=0, select bank0
  3753  062F  0821               	movf	?___ftmul,w
  3754  0630  00B1               	movwf	___fttol@f1
  3755  0631  0822               	movf	?___ftmul+1,w
  3756  0632  00B2               	movwf	___fttol@f1+1
  3757  0633  0823               	movf	?___ftmul+2,w
  3758  0634  00B3               	movwf	___fttol@f1+2
  3759  0635  120A  158A  2429  120A  118A  	fcall	___fttol
  3760  063A  1283               	bcf	3,5	;RP0=0, select bank0
  3761  063B  1303               	bcf	3,6	;RP1=0, select bank0
  3762  063C  0834               	movf	?___fttol+3,w
  3763  063D  1683               	bsf	3,5	;RP0=1, select bank1
  3764  063E  1303               	bcf	3,6	;RP1=0, select bank1
  3765  063F  00E4               	movwf	(display_temps_to_screen@working_register+3)^(0+128)
  3766  0640  1283               	bcf	3,5	;RP0=0, select bank0
  3767  0641  1303               	bcf	3,6	;RP1=0, select bank0
  3768  0642  0833               	movf	?___fttol+2,w
  3769  0643  1683               	bsf	3,5	;RP0=1, select bank1
  3770  0644  1303               	bcf	3,6	;RP1=0, select bank1
  3771  0645  00E3               	movwf	(display_temps_to_screen@working_register+2)^(0+128)
  3772  0646  1283               	bcf	3,5	;RP0=0, select bank0
  3773  0647  1303               	bcf	3,6	;RP1=0, select bank0
  3774  0648  0832               	movf	?___fttol+1,w
  3775  0649  1683               	bsf	3,5	;RP0=1, select bank1
  3776  064A  1303               	bcf	3,6	;RP1=0, select bank1
  3777  064B  00E2               	movwf	(display_temps_to_screen@working_register+1)^(0+128)
  3778  064C  1283               	bcf	3,5	;RP0=0, select bank0
  3779  064D  1303               	bcf	3,6	;RP1=0, select bank0
  3780  064E  0831               	movf	?___fttol,w
  3781  064F  1683               	bsf	3,5	;RP0=1, select bank1
  3782  0650  1303               	bcf	3,6	;RP1=0, select bank1
  3783  0651  00E1               	movwf	display_temps_to_screen@working_register^(0+128)
  3784                           
  3785                           ;Main V4.0.c: 859: char_to_decimal_print(working_register);
  3786  0652  0862               	movf	(display_temps_to_screen@working_register+1)^(0+128),w
  3787  0653  01FA               	clrf	char_to_decimal_print@value+1
  3788  0654  07FA               	addwf	char_to_decimal_print@value+1,f
  3789  0655  0861               	movf	display_temps_to_screen@working_register^(0+128),w
  3790  0656  01F9               	clrf	char_to_decimal_print@value
  3791  0657  07F9               	addwf	char_to_decimal_print@value,f
  3792  0658  120A  158A  2330  120A  118A  	fcall	_char_to_decimal_print
  3793  065D                     l2487:	
  3794                           ;Main V4.0.c: 860: while (*celsius_string_pointer != 0){
  3795                           
  3796  065D  1683               	bsf	3,5	;RP0=1, select bank1
  3797  065E  1303               	bcf	3,6	;RP1=0, select bank1
  3798  065F  0869               	movf	display_temps_to_screen@celsius_string_pointer^(0+128),w
  3799  0660  0084               	movwf	4
  3800  0661  1383               	bcf	3,7	;select IRP bank0
  3801  0662  0880               	movf	0,f
  3802  0663  1903               	btfsc	3,2
  3803  0664  2E79               	goto	l2489
  3804                           
  3805                           ;Main V4.0.c: 861: LCDWriteCharacter(*celsius_string_pointer);
  3806  0665  1683               	bsf	3,5	;RP0=1, select bank1
  3807  0666  1303               	bcf	3,6	;RP1=0, select bank1
  3808  0667  0869               	movf	display_temps_to_screen@celsius_string_pointer^(0+128),w
  3809  0668  0084               	movwf	4
  3810  0669  1383               	bcf	3,7	;select IRP bank0
  3811  066A  0800               	movf	0,w
  3812  066B  120A  158A  239C  120A  118A  	fcall	_LCDWriteCharacter
  3813                           
  3814                           ;Main V4.0.c: 862: celsius_string_pointer++;
  3815  0670  3001               	movlw	1
  3816  0671  1283               	bcf	3,5	;RP0=0, select bank0
  3817  0672  1303               	bcf	3,6	;RP1=0, select bank0
  3818  0673  00BF               	movwf	??_display_temps_to_screen
  3819  0674  083F               	movf	??_display_temps_to_screen,w
  3820  0675  1683               	bsf	3,5	;RP0=1, select bank1
  3821  0676  1303               	bcf	3,6	;RP1=0, select bank1
  3822  0677  07E9               	addwf	display_temps_to_screen@celsius_string_pointer^(0+128),f
  3823  0678  2E5D               	goto	l2487
  3824  0679                     l2489:	
  3825                           
  3826                           ;Main V4.0.c: 863: }
  3827                           ;Main V4.0.c: 864: celsius_string_pointer = &celsius_string;
  3828  0679  30C8               	movlw	display_temps_to_screen@celsius_string& (0+255)
  3829  067A  1283               	bcf	3,5	;RP0=0, select bank0
  3830  067B  1303               	bcf	3,6	;RP1=0, select bank0
  3831  067C  00BF               	movwf	??_display_temps_to_screen
  3832  067D  083F               	movf	??_display_temps_to_screen,w
  3833  067E  1683               	bsf	3,5	;RP0=1, select bank1
  3834  067F  1303               	bcf	3,6	;RP1=0, select bank1
  3835  0680  00E9               	movwf	display_temps_to_screen@celsius_string_pointer^(0+128)
  3836  0681                     l264:	
  3837                           
  3838                           ;Main V4.0.c: 865: }
  3839                           ;Main V4.0.c: 869: position[0] = 64;
  3840  0681  3040               	movlw	64
  3841  0682  00E5               	movwf	display_temps_to_screen@position^(0+128)
  3842  0683  3000               	movlw	0
  3843  0684  00E6               	movwf	(display_temps_to_screen@position^(0+128)+1)
  3844                           
  3845                           ;Main V4.0.c: 870: position[1] = 8;
  3846  0685  3008               	movlw	8
  3847  0686  00E7               	movwf	(display_temps_to_screen@position^(0+128)+2)
  3848  0687  3000               	movlw	0
  3849  0688  00E8               	movwf	(display_temps_to_screen@position^(0+128)+3)
  3850                           
  3851                           ;Main V4.0.c: 871: location(position);
  3852  0689  30E5               	movlw	display_temps_to_screen@position& (0+255)
  3853  068A  120A  158A  254C  120A  118A  	fcall	_location
  3854  068F                     l2497:	
  3855                           ;Main V4.0.c: 872: while (*sensor_three_string_pointer != 0){
  3856                           
  3857  068F  1683               	bsf	3,5	;RP0=1, select bank1
  3858  0690  1303               	bcf	3,6	;RP1=0, select bank1
  3859  0691  0860               	movf	display_temps_to_screen@sensor_three_string_pointer^(0+128),w
  3860  0692  0084               	movwf	4
  3861  0693  1383               	bcf	3,7	;select IRP bank0
  3862  0694  0880               	movf	0,f
  3863  0695  1903               	btfsc	3,2
  3864  0696  2EAB               	goto	l2499
  3865                           
  3866                           ;Main V4.0.c: 873: LCDWriteCharacter(*sensor_three_string_pointer);
  3867  0697  1683               	bsf	3,5	;RP0=1, select bank1
  3868  0698  1303               	bcf	3,6	;RP1=0, select bank1
  3869  0699  0860               	movf	display_temps_to_screen@sensor_three_string_pointer^(0+128),w
  3870  069A  0084               	movwf	4
  3871  069B  1383               	bcf	3,7	;select IRP bank0
  3872  069C  0800               	movf	0,w
  3873  069D  120A  158A  239C  120A  118A  	fcall	_LCDWriteCharacter
  3874                           
  3875                           ;Main V4.0.c: 874: sensor_three_string_pointer++;
  3876  06A2  3001               	movlw	1
  3877  06A3  1283               	bcf	3,5	;RP0=0, select bank0
  3878  06A4  1303               	bcf	3,6	;RP1=0, select bank0
  3879  06A5  00BF               	movwf	??_display_temps_to_screen
  3880  06A6  083F               	movf	??_display_temps_to_screen,w
  3881  06A7  1683               	bsf	3,5	;RP0=1, select bank1
  3882  06A8  1303               	bcf	3,6	;RP1=0, select bank1
  3883  06A9  07E0               	addwf	display_temps_to_screen@sensor_three_string_pointer^(0+128),f
  3884  06AA  2E8F               	goto	l2497
  3885  06AB                     l2499:	
  3886                           
  3887                           ;Main V4.0.c: 875: }
  3888                           ;Main V4.0.c: 876: if (thermocouple_temp[3][2] == 1){
  3889  06AB  3001               	movlw	1
  3890  06AC  1683               	bsf	3,5	;RP0=1, select bank3
  3891  06AD  1703               	bsf	3,6	;RP1=1, select bank3
  3892  06AE  0626               	xorwf	(_thermocouple_temp^(0+384)+22),w
  3893  06AF  0427               	iorwf	((_thermocouple_temp+1)^(0+384)+22),w
  3894  06B0  1903               	btfsc	3,2
  3895  06B1  2EC4               	goto	l2507
  3896  06B2  2ED4               	goto	l2511
  3897  06B3                     l2503:	
  3898                           ;Main V4.0.c: 877: while (*open_string_pointer != 0){
  3899                           
  3900                           
  3901                           ;Main V4.0.c: 878: LCDWriteCharacter(*open_string_pointer);
  3902  06B3  1303               	bcf	3,6	;RP1=0, select bank1
  3903  06B4  086A               	movf	display_temps_to_screen@open_string_pointer^(0+128),w
  3904  06B5  0084               	movwf	4
  3905  06B6  0800               	movf	0,w
  3906  06B7  120A  158A  239C  120A  118A  	fcall	_LCDWriteCharacter
  3907                           
  3908                           ;Main V4.0.c: 879: open_string_pointer++;
  3909  06BC  3001               	movlw	1
  3910  06BD  1283               	bcf	3,5	;RP0=0, select bank0
  3911  06BE  1303               	bcf	3,6	;RP1=0, select bank0
  3912  06BF  00BF               	movwf	??_display_temps_to_screen
  3913  06C0  083F               	movf	??_display_temps_to_screen,w
  3914  06C1  1683               	bsf	3,5	;RP0=1, select bank1
  3915  06C2  1303               	bcf	3,6	;RP1=0, select bank1
  3916  06C3  07EA               	addwf	display_temps_to_screen@open_string_pointer^(0+128),f
  3917  06C4                     l2507:	
  3918  06C4  1303               	bcf	3,6	;RP1=0, select bank1
  3919  06C5  086A               	movf	display_temps_to_screen@open_string_pointer^(0+128),w
  3920  06C6  0084               	movwf	4
  3921  06C7  1383               	bcf	3,7	;select IRP bank0
  3922  06C8  0880               	movf	0,f
  3923  06C9  1D03               	skipz
  3924  06CA  2EB3               	goto	l2503
  3925                           
  3926                           ;Main V4.0.c: 880: }
  3927                           ;Main V4.0.c: 881: open_string_pointer = &open_string;
  3928  06CB  30D8               	movlw	display_temps_to_screen@open_string& (0+255)
  3929  06CC  1283               	bcf	3,5	;RP0=0, select bank0
  3930  06CD  1303               	bcf	3,6	;RP1=0, select bank0
  3931  06CE  00BF               	movwf	??_display_temps_to_screen
  3932  06CF  083F               	movf	??_display_temps_to_screen,w
  3933  06D0  1683               	bsf	3,5	;RP0=1, select bank1
  3934  06D1  1303               	bcf	3,6	;RP1=0, select bank1
  3935  06D2  00EA               	movwf	display_temps_to_screen@open_string_pointer^(0+128)
  3936                           
  3937                           ;Main V4.0.c: 882: }
  3938  06D3  0008               	return
  3939  06D4                     l2511:	
  3940                           
  3941                           ;Main V4.0.c: 883: else if (thermocouple_temp[3][2] == 4){
  3942  06D4  3004               	movlw	4
  3943  06D5  1683               	bsf	3,5	;RP0=1, select bank3
  3944  06D6  1703               	bsf	3,6	;RP1=1, select bank3
  3945  06D7  0626               	xorwf	(_thermocouple_temp^(0+384)+22),w
  3946  06D8  0427               	iorwf	((_thermocouple_temp+1)^(0+384)+22),w
  3947  06D9  1903               	btfsc	3,2
  3948  06DA  2EED               	goto	l2519
  3949  06DB  2EFD               	goto	l2523
  3950  06DC                     l2515:	
  3951                           ;Main V4.0.c: 884: while (*shortvcc_string_pointer != 0){
  3952                           
  3953                           
  3954                           ;Main V4.0.c: 885: LCDWriteCharacter(*shortvcc_string_pointer);
  3955  06DC  1303               	bcf	3,6	;RP1=0, select bank1
  3956  06DD  086B               	movf	display_temps_to_screen@shortvcc_string_pointer^(0+128),w
  3957  06DE  0084               	movwf	4
  3958  06DF  0800               	movf	0,w
  3959  06E0  120A  158A  239C  120A  118A  	fcall	_LCDWriteCharacter
  3960                           
  3961                           ;Main V4.0.c: 886: shortvcc_string_pointer++;
  3962  06E5  3001               	movlw	1
  3963  06E6  1283               	bcf	3,5	;RP0=0, select bank0
  3964  06E7  1303               	bcf	3,6	;RP1=0, select bank0
  3965  06E8  00BF               	movwf	??_display_temps_to_screen
  3966  06E9  083F               	movf	??_display_temps_to_screen,w
  3967  06EA  1683               	bsf	3,5	;RP0=1, select bank1
  3968  06EB  1303               	bcf	3,6	;RP1=0, select bank1
  3969  06EC  07EB               	addwf	display_temps_to_screen@shortvcc_string_pointer^(0+128),f
  3970  06ED                     l2519:	
  3971  06ED  1303               	bcf	3,6	;RP1=0, select bank1
  3972  06EE  086B               	movf	display_temps_to_screen@shortvcc_string_pointer^(0+128),w
  3973  06EF  0084               	movwf	4
  3974  06F0  1383               	bcf	3,7	;select IRP bank0
  3975  06F1  0880               	movf	0,f
  3976  06F2  1D03               	skipz
  3977  06F3  2EDC               	goto	l2515
  3978                           
  3979                           ;Main V4.0.c: 887: }
  3980                           ;Main V4.0.c: 888: shortvcc_string_pointer = &shortvcc_string;
  3981  06F4  30B2               	movlw	display_temps_to_screen@shortvcc_string& (0+255)
  3982  06F5  1283               	bcf	3,5	;RP0=0, select bank0
  3983  06F6  1303               	bcf	3,6	;RP1=0, select bank0
  3984  06F7  00BF               	movwf	??_display_temps_to_screen
  3985  06F8  083F               	movf	??_display_temps_to_screen,w
  3986  06F9  1683               	bsf	3,5	;RP0=1, select bank1
  3987  06FA  1303               	bcf	3,6	;RP1=0, select bank1
  3988  06FB  00EB               	movwf	display_temps_to_screen@shortvcc_string_pointer^(0+128)
  3989                           
  3990                           ;Main V4.0.c: 889: }
  3991  06FC  0008               	return
  3992  06FD                     l2523:	
  3993                           
  3994                           ;Main V4.0.c: 890: else if (thermocouple_temp[3][2] == 2){
  3995  06FD  3002               	movlw	2
  3996  06FE  1683               	bsf	3,5	;RP0=1, select bank3
  3997  06FF  1703               	bsf	3,6	;RP1=1, select bank3
  3998  0700  0626               	xorwf	(_thermocouple_temp^(0+384)+22),w
  3999  0701  0427               	iorwf	((_thermocouple_temp+1)^(0+384)+22),w
  4000  0702  1903               	btfsc	3,2
  4001  0703  2F16               	goto	l2531
  4002  0704  2F26               	goto	l2535
  4003  0705                     l2527:	
  4004                           ;Main V4.0.c: 891: while (*shortgnd_string_pointer != 0){
  4005                           
  4006                           
  4007                           ;Main V4.0.c: 892: LCDWriteCharacter(*shortgnd_string_pointer);
  4008  0705  1303               	bcf	3,6	;RP1=0, select bank1
  4009  0706  086C               	movf	display_temps_to_screen@shortgnd_string_pointer^(0+128),w
  4010  0707  0084               	movwf	4
  4011  0708  0800               	movf	0,w
  4012  0709  120A  158A  239C  120A  118A  	fcall	_LCDWriteCharacter
  4013                           
  4014                           ;Main V4.0.c: 893: shortgnd_string_pointer++;
  4015  070E  3001               	movlw	1
  4016  070F  1283               	bcf	3,5	;RP0=0, select bank0
  4017  0710  1303               	bcf	3,6	;RP1=0, select bank0
  4018  0711  00BF               	movwf	??_display_temps_to_screen
  4019  0712  083F               	movf	??_display_temps_to_screen,w
  4020  0713  1683               	bsf	3,5	;RP0=1, select bank1
  4021  0714  1303               	bcf	3,6	;RP1=0, select bank1
  4022  0715  07EC               	addwf	display_temps_to_screen@shortgnd_string_pointer^(0+128),f
  4023  0716                     l2531:	
  4024  0716  1303               	bcf	3,6	;RP1=0, select bank1
  4025  0717  086C               	movf	display_temps_to_screen@shortgnd_string_pointer^(0+128),w
  4026  0718  0084               	movwf	4
  4027  0719  1383               	bcf	3,7	;select IRP bank0
  4028  071A  0880               	movf	0,f
  4029  071B  1D03               	skipz
  4030  071C  2F05               	goto	l2527
  4031                           
  4032                           ;Main V4.0.c: 894: }
  4033                           ;Main V4.0.c: 895: shortgnd_string_pointer = &shortgnd_string;
  4034  071D  30BD               	movlw	display_temps_to_screen@shortgnd_string& (0+255)
  4035  071E  1283               	bcf	3,5	;RP0=0, select bank0
  4036  071F  1303               	bcf	3,6	;RP1=0, select bank0
  4037  0720  00BF               	movwf	??_display_temps_to_screen
  4038  0721  083F               	movf	??_display_temps_to_screen,w
  4039  0722  1683               	bsf	3,5	;RP0=1, select bank1
  4040  0723  1303               	bcf	3,6	;RP1=0, select bank1
  4041  0724  00EC               	movwf	display_temps_to_screen@shortgnd_string_pointer^(0+128)
  4042                           
  4043                           ;Main V4.0.c: 896: }
  4044  0725  0008               	return
  4045  0726                     l2535:	
  4046                           
  4047                           ;Main V4.0.c: 897: else if (thermocouple_temp[3][2] > 4){
  4048  0726  1683               	bsf	3,5	;RP0=1, select bank3
  4049  0727  1703               	bsf	3,6	;RP1=1, select bank3
  4050  0728  0827               	movf	((_thermocouple_temp+1)^(0+384)+22),w
  4051  0729  3A80               	xorlw	128
  4052  072A  00FF               	movwf	127
  4053  072B  3080               	movlw	128
  4054  072C  027F               	subwf	127,w
  4055  072D  1D03               	skipz
  4056  072E  2F31               	goto	u2285
  4057  072F  3005               	movlw	5
  4058  0730  0226               	subwf	(_thermocouple_temp^(0+384)+22),w
  4059  0731                     u2285:	
  4060  0731  1803               	btfsc	3,0
  4061  0732  2F47               	goto	l2543
  4062  0733  2F58               	goto	l2547
  4063  0734                     l2539:	
  4064                           ;Main V4.0.c: 898: while (*fault_string_pointer != 0){
  4065                           
  4066                           
  4067                           ;Main V4.0.c: 899: LCDWriteCharacter(*fault_string_pointer);
  4068  0734  1683               	bsf	3,5	;RP0=1, select bank1
  4069  0735  1303               	bcf	3,6	;RP1=0, select bank1
  4070  0736  086D               	movf	display_temps_to_screen@fault_string_pointer^(0+128),w
  4071  0737  0084               	movwf	4
  4072  0738  1383               	bcf	3,7	;select IRP bank0
  4073  0739  0800               	movf	0,w
  4074  073A  120A  158A  239C  120A  118A  	fcall	_LCDWriteCharacter
  4075                           
  4076                           ;Main V4.0.c: 900: fault_string_pointer++;
  4077  073F  3001               	movlw	1
  4078  0740  1283               	bcf	3,5	;RP0=0, select bank0
  4079  0741  1303               	bcf	3,6	;RP1=0, select bank0
  4080  0742  00BF               	movwf	??_display_temps_to_screen
  4081  0743  083F               	movf	??_display_temps_to_screen,w
  4082  0744  1683               	bsf	3,5	;RP0=1, select bank1
  4083  0745  1303               	bcf	3,6	;RP1=0, select bank1
  4084  0746  07ED               	addwf	display_temps_to_screen@fault_string_pointer^(0+128),f
  4085  0747                     l2543:	
  4086  0747  1683               	bsf	3,5	;RP0=1, select bank1
  4087  0748  1303               	bcf	3,6	;RP1=0, select bank1
  4088  0749  086D               	movf	display_temps_to_screen@fault_string_pointer^(0+128),w
  4089  074A  0084               	movwf	4
  4090  074B  1383               	bcf	3,7	;select IRP bank0
  4091  074C  0880               	movf	0,f
  4092  074D  1D03               	skipz
  4093  074E  2F34               	goto	l2539
  4094                           
  4095                           ;Main V4.0.c: 901: }
  4096                           ;Main V4.0.c: 902: fault_string_pointer = &fault_string;
  4097  074F  30D1               	movlw	display_temps_to_screen@fault_string& (0+255)
  4098  0750  1283               	bcf	3,5	;RP0=0, select bank0
  4099  0751  1303               	bcf	3,6	;RP1=0, select bank0
  4100  0752  00BF               	movwf	??_display_temps_to_screen
  4101  0753  083F               	movf	??_display_temps_to_screen,w
  4102  0754  1683               	bsf	3,5	;RP0=1, select bank1
  4103  0755  1303               	bcf	3,6	;RP1=0, select bank1
  4104  0756  00ED               	movwf	display_temps_to_screen@fault_string_pointer^(0+128)
  4105                           
  4106                           ;Main V4.0.c: 903: }
  4107  0757  0008               	return
  4108  0758                     l2547:	
  4109                           
  4110                           ;Main V4.0.c: 904: else{
  4111                           ;Main V4.0.c: 905: working_register = (thermocouple_temp[3][0]) * .25;
  4112  0758  1683               	bsf	3,5	;RP0=1, select bank3
  4113  0759  1703               	bsf	3,6	;RP1=1, select bank3
  4114  075A  0823               	movf	((_thermocouple_temp+1)^(0+384)+18),w
  4115  075B  01FA               	clrf	___awtoft@c+1
  4116  075C  07FA               	addwf	___awtoft@c+1,f
  4117  075D  0822               	movf	(_thermocouple_temp^(0+384)+18),w
  4118  075E  01F9               	clrf	___awtoft@c
  4119  075F  07F9               	addwf	___awtoft@c,f
  4120  0760  120A  158A  2128  120A  118A  	fcall	___awtoft
  4121  0765  0879               	movf	?___awtoft,w
  4122  0766  1283               	bcf	3,5	;RP0=0, select bank0
  4123  0767  1303               	bcf	3,6	;RP1=0, select bank0
  4124  0768  00A4               	movwf	___ftmul@f2
  4125  0769  087A               	movf	?___awtoft+1,w
  4126  076A  00A5               	movwf	___ftmul@f2+1
  4127  076B  087B               	movf	?___awtoft+2,w
  4128  076C  00A6               	movwf	___ftmul@f2+2
  4129  076D  3000               	movlw	0
  4130  076E  00A1               	movwf	___ftmul@f1
  4131  076F  3080               	movlw	128
  4132  0770  00A2               	movwf	___ftmul@f1+1
  4133  0771  303E               	movlw	62
  4134  0772  00A3               	movwf	___ftmul@f1+2
  4135  0773  120A  158A  25E8  120A  118A  	fcall	___ftmul
  4136  0778  1283               	bcf	3,5	;RP0=0, select bank0
  4137  0779  1303               	bcf	3,6	;RP1=0, select bank0
  4138  077A  0821               	movf	?___ftmul,w
  4139  077B  00B1               	movwf	___fttol@f1
  4140  077C  0822               	movf	?___ftmul+1,w
  4141  077D  00B2               	movwf	___fttol@f1+1
  4142  077E  0823               	movf	?___ftmul+2,w
  4143  077F  00B3               	movwf	___fttol@f1+2
  4144  0780  120A  158A  2429  120A  118A  	fcall	___fttol
  4145  0785  1283               	bcf	3,5	;RP0=0, select bank0
  4146  0786  1303               	bcf	3,6	;RP1=0, select bank0
  4147  0787  0834               	movf	?___fttol+3,w
  4148  0788  1683               	bsf	3,5	;RP0=1, select bank1
  4149  0789  1303               	bcf	3,6	;RP1=0, select bank1
  4150  078A  00E4               	movwf	(display_temps_to_screen@working_register+3)^(0+128)
  4151  078B  1283               	bcf	3,5	;RP0=0, select bank0
  4152  078C  1303               	bcf	3,6	;RP1=0, select bank0
  4153  078D  0833               	movf	?___fttol+2,w
  4154  078E  1683               	bsf	3,5	;RP0=1, select bank1
  4155  078F  1303               	bcf	3,6	;RP1=0, select bank1
  4156  0790  00E3               	movwf	(display_temps_to_screen@working_register+2)^(0+128)
  4157  0791  1283               	bcf	3,5	;RP0=0, select bank0
  4158  0792  1303               	bcf	3,6	;RP1=0, select bank0
  4159  0793  0832               	movf	?___fttol+1,w
  4160  0794  1683               	bsf	3,5	;RP0=1, select bank1
  4161  0795  1303               	bcf	3,6	;RP1=0, select bank1
  4162  0796  00E2               	movwf	(display_temps_to_screen@working_register+1)^(0+128)
  4163  0797  1283               	bcf	3,5	;RP0=0, select bank0
  4164  0798  1303               	bcf	3,6	;RP1=0, select bank0
  4165  0799  0831               	movf	?___fttol,w
  4166  079A  1683               	bsf	3,5	;RP0=1, select bank1
  4167  079B  1303               	bcf	3,6	;RP1=0, select bank1
  4168  079C  00E1               	movwf	display_temps_to_screen@working_register^(0+128)
  4169                           
  4170                           ;Main V4.0.c: 908: char_to_decimal_print(working_register);
  4171  079D  0862               	movf	(display_temps_to_screen@working_register+1)^(0+128),w
  4172  079E  01FA               	clrf	char_to_decimal_print@value+1
  4173  079F  07FA               	addwf	char_to_decimal_print@value+1,f
  4174  07A0  0861               	movf	display_temps_to_screen@working_register^(0+128),w
  4175  07A1  01F9               	clrf	char_to_decimal_print@value
  4176  07A2  07F9               	addwf	char_to_decimal_print@value,f
  4177  07A3  120A  158A  2330  120A  118A  	fcall	_char_to_decimal_print
  4178  07A8                     l2555:	
  4179                           ;Main V4.0.c: 909: while (*celsius_string_pointer != 0){
  4180                           
  4181  07A8  1683               	bsf	3,5	;RP0=1, select bank1
  4182  07A9  1303               	bcf	3,6	;RP1=0, select bank1
  4183  07AA  0869               	movf	display_temps_to_screen@celsius_string_pointer^(0+128),w
  4184  07AB  0084               	movwf	4
  4185  07AC  1383               	bcf	3,7	;select IRP bank0
  4186  07AD  0880               	movf	0,f
  4187  07AE  1903               	btfsc	3,2
  4188  07AF  2FC4               	goto	l2557
  4189                           
  4190                           ;Main V4.0.c: 910: LCDWriteCharacter(*celsius_string_pointer);
  4191  07B0  1683               	bsf	3,5	;RP0=1, select bank1
  4192  07B1  1303               	bcf	3,6	;RP1=0, select bank1
  4193  07B2  0869               	movf	display_temps_to_screen@celsius_string_pointer^(0+128),w
  4194  07B3  0084               	movwf	4
  4195  07B4  1383               	bcf	3,7	;select IRP bank0
  4196  07B5  0800               	movf	0,w
  4197  07B6  120A  158A  239C  120A  118A  	fcall	_LCDWriteCharacter
  4198                           
  4199                           ;Main V4.0.c: 911: celsius_string_pointer++;
  4200  07BB  3001               	movlw	1
  4201  07BC  1283               	bcf	3,5	;RP0=0, select bank0
  4202  07BD  1303               	bcf	3,6	;RP1=0, select bank0
  4203  07BE  00BF               	movwf	??_display_temps_to_screen
  4204  07BF  083F               	movf	??_display_temps_to_screen,w
  4205  07C0  1683               	bsf	3,5	;RP0=1, select bank1
  4206  07C1  1303               	bcf	3,6	;RP1=0, select bank1
  4207  07C2  07E9               	addwf	display_temps_to_screen@celsius_string_pointer^(0+128),f
  4208  07C3  2FA8               	goto	l2555
  4209  07C4                     l2557:	
  4210                           
  4211                           ;Main V4.0.c: 912: }
  4212                           ;Main V4.0.c: 913: celsius_string_pointer = &celsius_string;
  4213  07C4  30C8               	movlw	display_temps_to_screen@celsius_string& (0+255)
  4214  07C5  1283               	bcf	3,5	;RP0=0, select bank0
  4215  07C6  1303               	bcf	3,6	;RP1=0, select bank0
  4216  07C7  00BF               	movwf	??_display_temps_to_screen
  4217  07C8  083F               	movf	??_display_temps_to_screen,w
  4218  07C9  1683               	bsf	3,5	;RP0=1, select bank1
  4219  07CA  1303               	bcf	3,6	;RP1=0, select bank1
  4220  07CB  00E9               	movwf	display_temps_to_screen@celsius_string_pointer^(0+128)
  4221  07CC  0008               	return
  4222  07CD                     __end_of_display_temps_to_screen:	
  4223                           
  4224                           	psect	text6
  4225  0D4C                     __ptext6:	
  4226 ;; *************** function _location *****************
  4227 ;; Defined at:
  4228 ;;		line 336 in file "Main V4.0.c"
  4229 ;; Parameters:    Size  Location     Type
  4230 ;;  position        1    wreg     PTR int 
  4231 ;;		 -> main@position(4), display_temps_to_screen@position(4), get_temp_from_right_tcs@position(4), 
  4232 ;; Auto vars:     Size  Location     Type
  4233 ;;  position        1   11[BANK0 ] PTR int 
  4234 ;;		 -> main@position(4), display_temps_to_screen@position(4), get_temp_from_right_tcs@position(4), 
  4235 ;;  i               2    9[BANK0 ] unsigned int 
  4236 ;;  k               2    7[BANK0 ] unsigned int 
  4237 ;;  q               2    5[BANK0 ] unsigned int 
  4238 ;;  j               2    0[BANK0 ] unsigned int 
  4239 ;;  page            1    4[BANK0 ] unsigned char 
  4240 ;;  upnib           1    3[BANK0 ] unsigned char 
  4241 ;;  lownib          1    2[BANK0 ] unsigned char 
  4242 ;; Return value:  Size  Location     Type
  4243 ;;		None               void
  4244 ;; Registers used:
  4245 ;;		wreg, fsr0l, fsr0h, status,2, status,0, pclath, cstack
  4246 ;; Tracked objects:
  4247 ;;		On entry : 0/0
  4248 ;;		On exit  : 0/0
  4249 ;;		Unchanged: 0/0
  4250 ;; Data sizes:     COMMON   BANK0   BANK1   BANK3   BANK2
  4251 ;;      Params:         0       0       0       0       0
  4252 ;;      Locals:         0      12       0       0       0
  4253 ;;      Temps:          2       0       0       0       0
  4254 ;;      Totals:         2      12       0       0       0
  4255 ;;Total ram usage:       14 bytes
  4256 ;; Hardware stack levels used:    1
  4257 ;; Hardware stack levels required when called:    1
  4258 ;; This function calls:
  4259 ;;		_comm_out
  4260 ;; This function is called by:
  4261 ;;		_get_temp_from_right_tcs
  4262 ;;		_display_temps_to_screen
  4263 ;;		_main
  4264 ;; This function uses a non-reentrant model
  4265 ;;
  4266                           
  4267                           
  4268                           ;psect for function _location
  4269  0D4C                     _location:	
  4270                           
  4271                           ;incstack = 0
  4272                           ; Regs used in _location: [wreg-fsr0h+status,2+status,0+pclath+cstack]
  4273                           ;location@position stored from wreg
  4274  0D4C  1283               	bcf	3,5	;RP0=0, select bank0
  4275  0D4D  1303               	bcf	3,6	;RP1=0, select bank0
  4276  0D4E  00AB               	movwf	location@position
  4277                           
  4278                           ;Main V4.0.c: 337: unsigned int i,k,j;
  4279                           ;Main V4.0.c: 338: unsigned int q;
  4280                           ;Main V4.0.c: 339: char lownib,upnib;
  4281                           ;Main V4.0.c: 340: unsigned char page = 0xB0;
  4282  0D4F  30B0               	movlw	176
  4283  0D50  00F4               	movwf	??_location
  4284  0D51  0874               	movf	??_location,w
  4285  0D52  00A4               	movwf	location@page
  4286                           
  4287                           ;Main V4.0.c: 342: comm_out (0x40);
  4288  0D53  3040               	movlw	64
  4289  0D54  120A  118A  2006  120A  158A  	fcall	_comm_out
  4290                           
  4291                           ;Main V4.0.c: 343: upnib = 0x10;
  4292  0D59  3010               	movlw	16
  4293  0D5A  00F4               	movwf	??_location
  4294  0D5B  0874               	movf	??_location,w
  4295  0D5C  1283               	bcf	3,5	;RP0=0, select bank0
  4296  0D5D  1303               	bcf	3,6	;RP1=0, select bank0
  4297  0D5E  00A3               	movwf	location@upnib
  4298                           
  4299                           ;Main V4.0.c: 344: lownib = 0x00;
  4300  0D5F  01A2               	clrf	location@lownib
  4301                           
  4302                           ;Main V4.0.c: 345: for (i=0;i<128;i++){
  4303  0D60  01A9               	clrf	location@i
  4304  0D61  01AA               	clrf	location@i+1
  4305  0D62  3000               	movlw	0
  4306  0D63  022A               	subwf	location@i+1,w
  4307  0D64  3080               	movlw	128
  4308  0D65  1903               	skipnz
  4309  0D66  0229               	subwf	location@i,w
  4310  0D67  1803               	btfsc	3,0
  4311  0D68  2DA4               	goto	l1943
  4312  0D69                     l1933:	
  4313                           
  4314                           ;Main V4.0.c: 346: if (position[0] == i){
  4315  0D69  082B               	movf	location@position,w
  4316  0D6A  0084               	movwf	4
  4317  0D6B  1383               	bcf	3,7	;select IRP bank0
  4318  0D6C  0800               	movf	0,w
  4319  0D6D  00F4               	movwf	??_location
  4320  0D6E  0A84               	incf	4,f
  4321  0D6F  0800               	movf	0,w
  4322  0D70  00F5               	movwf	??_location+1
  4323  0D71  082A               	movf	location@i+1,w
  4324  0D72  0675               	xorwf	??_location+1,w
  4325  0D73  1D03               	skipz
  4326  0D74  2D77               	goto	u1505
  4327  0D75  0829               	movf	location@i,w
  4328  0D76  0674               	xorwf	??_location,w
  4329  0D77                     u1505:	
  4330  0D77  1D03               	skipz
  4331  0D78  2D97               	goto	l152
  4332                           
  4333                           ;Main V4.0.c: 347: k = i;
  4334  0D79  082A               	movf	location@i+1,w
  4335  0D7A  01A8               	clrf	location@k+1
  4336  0D7B  07A8               	addwf	location@k+1,f
  4337  0D7C  0829               	movf	location@i,w
  4338  0D7D  01A7               	clrf	location@k
  4339  0D7E  07A7               	addwf	location@k,f
  4340  0D7F                     l1939:	
  4341                           ;Main V4.0.c: 348: while (k > 15){
  4342                           
  4343  0D7F  3000               	movlw	0
  4344  0D80  0228               	subwf	location@k+1,w
  4345  0D81  3010               	movlw	16
  4346  0D82  1903               	skipnz
  4347  0D83  0227               	subwf	location@k,w
  4348  0D84  1C03               	btfss	3,0
  4349  0D85  2D93               	goto	l1941
  4350                           
  4351                           ;Main V4.0.c: 349: k = k - 16;
  4352  0D86  0827               	movf	location@k,w
  4353  0D87  3EF0               	addlw	240
  4354  0D88  00A7               	movwf	location@k
  4355  0D89  0828               	movf	location@k+1,w
  4356  0D8A  1803               	skipnc
  4357  0D8B  3E01               	addlw	1
  4358  0D8C  3EFF               	addlw	255
  4359  0D8D  00A8               	movwf	location@k+1
  4360                           
  4361                           ;Main V4.0.c: 350: upnib++;
  4362  0D8E  3001               	movlw	1
  4363  0D8F  00F4               	movwf	??_location
  4364  0D90  0874               	movf	??_location,w
  4365  0D91  07A3               	addwf	location@upnib,f
  4366  0D92  2D7F               	goto	l1939
  4367  0D93                     l1941:	
  4368                           
  4369                           ;Main V4.0.c: 351: }
  4370                           ;Main V4.0.c: 352: lownib = k;
  4371  0D93  0827               	movf	location@k,w
  4372  0D94  00F4               	movwf	??_location
  4373  0D95  0874               	movf	??_location,w
  4374  0D96  00A2               	movwf	location@lownib
  4375  0D97                     l152:	
  4376  0D97  3001               	movlw	1
  4377  0D98  07A9               	addwf	location@i,f
  4378  0D99  1803               	skipnc
  4379  0D9A  0AAA               	incf	location@i+1,f
  4380  0D9B  3000               	movlw	0
  4381  0D9C  07AA               	addwf	location@i+1,f
  4382  0D9D  3000               	movlw	0
  4383  0D9E  022A               	subwf	location@i+1,w
  4384  0D9F  3080               	movlw	128
  4385  0DA0  1903               	skipnz
  4386  0DA1  0229               	subwf	location@i,w
  4387  0DA2  1C03               	skipc
  4388  0DA3  2D69               	goto	l1933
  4389  0DA4                     l1943:	
  4390                           
  4391                           ;Main V4.0.c: 353: }
  4392                           ;Main V4.0.c: 354: }
  4393                           ;Main V4.0.c: 355: j = 0;
  4394  0DA4  01A0               	clrf	location@j
  4395  0DA5  01A1               	clrf	location@j+1
  4396  0DA6                     l1951:	
  4397                           
  4398                           ;Main V4.0.c: 362: q = 0x01;
  4399  0DA6  3001               	movlw	1
  4400  0DA7  00A5               	movwf	location@q
  4401  0DA8  3000               	movlw	0
  4402  0DA9  00A6               	movwf	location@q+1
  4403  0DAA                     l1953:	
  4404  0DAA  082B               	movf	location@position,w
  4405  0DAB  3E02               	addlw	2
  4406  0DAC  0084               	movwf	4
  4407  0DAD  1383               	bcf	3,7	;select IRP bank0
  4408  0DAE  0800               	movf	0,w
  4409  0DAF  00F4               	movwf	??_location
  4410  0DB0  0A84               	incf	4,f
  4411  0DB1  0800               	movf	0,w
  4412  0DB2  00F5               	movwf	??_location+1
  4413  0DB3  0821               	movf	location@j+1,w
  4414  0DB4  0675               	xorwf	??_location+1,w
  4415  0DB5  1D03               	skipz
  4416  0DB6  2DB9               	goto	u1545
  4417  0DB7  0820               	movf	location@j,w
  4418  0DB8  0674               	xorwf	??_location,w
  4419  0DB9                     u1545:	
  4420  0DB9  1903               	btfsc	3,2
  4421  0DBA  2DD3               	goto	l1955
  4422                           
  4423                           ;Main V4.0.c: 358: q = q << 1;
  4424                           
  4425                           ;Main V4.0.c: 357: while (position[1] != j){
  4426                           
  4427                           ;Main V4.0.c: 356: q = 0x0001;
  4428  0DBB  1003               	clrc
  4429  0DBC  0D25               	rlf	location@q,w
  4430  0DBD  00A5               	movwf	location@q
  4431  0DBE  0D26               	rlf	location@q+1,w
  4432  0DBF  00A6               	movwf	location@q+1
  4433                           
  4434                           ;Main V4.0.c: 359: j++;
  4435  0DC0  3001               	movlw	1
  4436  0DC1  07A0               	addwf	location@j,f
  4437  0DC2  1803               	skipnc
  4438  0DC3  0AA1               	incf	location@j+1,f
  4439  0DC4  3000               	movlw	0
  4440  0DC5  07A1               	addwf	location@j+1,f
  4441                           
  4442                           ;Main V4.0.c: 360: if (q == 0x100){
  4443  0DC6  3001               	movlw	1
  4444  0DC7  0626               	xorwf	location@q+1,w
  4445  0DC8  1D03               	skipz
  4446  0DC9  2DCC               	goto	u1535
  4447  0DCA  3000               	movlw	0
  4448  0DCB  0625               	xorwf	location@q,w
  4449  0DCC                     u1535:	
  4450  0DCC  1D03               	skipz
  4451  0DCD  2DAA               	goto	l1953
  4452                           
  4453                           ;Main V4.0.c: 361: page++;
  4454  0DCE  3001               	movlw	1
  4455  0DCF  00F4               	movwf	??_location
  4456  0DD0  0874               	movf	??_location,w
  4457  0DD1  07A4               	addwf	location@page,f
  4458  0DD2  2DA6               	goto	l1951
  4459  0DD3                     l1955:	
  4460                           
  4461                           ;Main V4.0.c: 363: }
  4462                           ;Main V4.0.c: 364: }
  4463                           ;Main V4.0.c: 365: comm_out (upnib);
  4464  0DD3  0823               	movf	location@upnib,w
  4465  0DD4  120A  118A  2006  120A  158A  	fcall	_comm_out
  4466                           
  4467                           ;Main V4.0.c: 366: comm_out (lownib);
  4468  0DD9  1283               	bcf	3,5	;RP0=0, select bank0
  4469  0DDA  1303               	bcf	3,6	;RP1=0, select bank0
  4470  0DDB  0822               	movf	location@lownib,w
  4471  0DDC  120A  118A  2006  120A  158A  	fcall	_comm_out
  4472                           
  4473                           ;Main V4.0.c: 367: comm_out (page);
  4474  0DE1  1283               	bcf	3,5	;RP0=0, select bank0
  4475  0DE2  1303               	bcf	3,6	;RP1=0, select bank0
  4476  0DE3  0824               	movf	location@page,w
  4477  0DE4  120A  118A  2006   	fcall	_comm_out
  4478  0DE7  0008               	return
  4479  0DE8                     __end_of_location:	
  4480                           
  4481                           	psect	text7
  4482  0B30                     __ptext7:	
  4483 ;; *************** function _char_to_decimal_print *****************
  4484 ;; Defined at:
  4485 ;;		line 591 in file "Main V4.0.c"
  4486 ;; Parameters:    Size  Location     Type
  4487 ;;  value           2    8[COMMON] int 
  4488 ;; Auto vars:     Size  Location     Type
  4489 ;;  x               1   11[COMMON] unsigned char 
  4490 ;; Return value:  Size  Location     Type
  4491 ;;		None               void
  4492 ;; Registers used:
  4493 ;;		wreg, fsr0l, fsr0h, status,2, status,0, btemp+1, pclath, cstack
  4494 ;; Tracked objects:
  4495 ;;		On entry : 0/0
  4496 ;;		On exit  : 0/0
  4497 ;;		Unchanged: 0/0
  4498 ;; Data sizes:     COMMON   BANK0   BANK1   BANK3   BANK2
  4499 ;;      Params:         2       0       0       0       0
  4500 ;;      Locals:         1       0       0       0       0
  4501 ;;      Temps:          1       0       0       0       0
  4502 ;;      Totals:         4       0       0       0       0
  4503 ;;Total ram usage:        4 bytes
  4504 ;; Hardware stack levels used:    1
  4505 ;; Hardware stack levels required when called:    2
  4506 ;; This function calls:
  4507 ;;		_LCDWriteCharacter
  4508 ;; This function is called by:
  4509 ;;		_get_temp_from_right_tcs
  4510 ;;		_display_temps_to_screen
  4511 ;; This function uses a non-reentrant model
  4512 ;;
  4513                           
  4514                           
  4515                           ;psect for function _char_to_decimal_print
  4516  0B30                     _char_to_decimal_print:	
  4517                           
  4518                           ;Main V4.0.c: 592: char x = 0;
  4519                           
  4520                           ;incstack = 0
  4521                           ; Regs used in _char_to_decimal_print: [wreg-fsr0h+status,2+status,0+btemp+1+pclath+csta
      +                          ck]
  4522  0B30  01FC               	clrf	char_to_decimal_print@x
  4523  0B31                     l1973:	
  4524                           ;Main V4.0.c: 593: while (value >= 100){
  4525                           
  4526  0B31  087A               	movf	char_to_decimal_print@value+1,w
  4527  0B32  3A80               	xorlw	128
  4528  0B33  00FF               	movwf	127
  4529  0B34  3080               	movlw	128
  4530  0B35  027F               	subwf	127,w
  4531  0B36  1D03               	skipz
  4532  0B37  2B3A               	goto	u1565
  4533  0B38  3064               	movlw	100
  4534  0B39  0279               	subwf	char_to_decimal_print@value,w
  4535  0B3A                     u1565:	
  4536  0B3A  1C03               	btfss	3,0
  4537  0B3B  2B49               	goto	l1975
  4538                           
  4539                           ;Main V4.0.c: 594: value = value - 100;
  4540  0B3C  0879               	movf	char_to_decimal_print@value,w
  4541  0B3D  3E9C               	addlw	156
  4542  0B3E  00F9               	movwf	char_to_decimal_print@value
  4543  0B3F  087A               	movf	char_to_decimal_print@value+1,w
  4544  0B40  1803               	skipnc
  4545  0B41  3E01               	addlw	1
  4546  0B42  3EFF               	addlw	255
  4547  0B43  00FA               	movwf	char_to_decimal_print@value+1
  4548                           
  4549                           ;Main V4.0.c: 595: x++;
  4550  0B44  3001               	movlw	1
  4551  0B45  00FB               	movwf	??_char_to_decimal_print
  4552  0B46  087B               	movf	??_char_to_decimal_print,w
  4553  0B47  07FC               	addwf	char_to_decimal_print@x,f
  4554  0B48  2B31               	goto	l1973
  4555  0B49                     l1975:	
  4556                           
  4557                           ;Main V4.0.c: 596: }
  4558                           ;Main V4.0.c: 597: x = x + 48;
  4559  0B49  087C               	movf	char_to_decimal_print@x,w
  4560  0B4A  3E30               	addlw	48
  4561  0B4B  00FB               	movwf	??_char_to_decimal_print
  4562  0B4C  087B               	movf	??_char_to_decimal_print,w
  4563  0B4D  00FC               	movwf	char_to_decimal_print@x
  4564                           
  4565                           ;Main V4.0.c: 598: LCDWriteCharacter(x);
  4566  0B4E  087C               	movf	char_to_decimal_print@x,w
  4567  0B4F  120A  158A  239C  120A  158A  	fcall	_LCDWriteCharacter
  4568                           
  4569                           ;Main V4.0.c: 599: x = 0;
  4570  0B54  01FC               	clrf	char_to_decimal_print@x
  4571  0B55                     l1983:	
  4572                           ;Main V4.0.c: 600: while (value >= 10){
  4573                           
  4574  0B55  087A               	movf	char_to_decimal_print@value+1,w
  4575  0B56  3A80               	xorlw	128
  4576  0B57  00FF               	movwf	127
  4577  0B58  3080               	movlw	128
  4578  0B59  027F               	subwf	127,w
  4579  0B5A  1D03               	skipz
  4580  0B5B  2B5E               	goto	u1575
  4581  0B5C  300A               	movlw	10
  4582  0B5D  0279               	subwf	char_to_decimal_print@value,w
  4583  0B5E                     u1575:	
  4584  0B5E  1C03               	btfss	3,0
  4585  0B5F  2B6D               	goto	l1985
  4586                           
  4587                           ;Main V4.0.c: 601: value = value - 10;
  4588  0B60  0879               	movf	char_to_decimal_print@value,w
  4589  0B61  3EF6               	addlw	246
  4590  0B62  00F9               	movwf	char_to_decimal_print@value
  4591  0B63  087A               	movf	char_to_decimal_print@value+1,w
  4592  0B64  1803               	skipnc
  4593  0B65  3E01               	addlw	1
  4594  0B66  3EFF               	addlw	255
  4595  0B67  00FA               	movwf	char_to_decimal_print@value+1
  4596                           
  4597                           ;Main V4.0.c: 602: x++;
  4598  0B68  3001               	movlw	1
  4599  0B69  00FB               	movwf	??_char_to_decimal_print
  4600  0B6A  087B               	movf	??_char_to_decimal_print,w
  4601  0B6B  07FC               	addwf	char_to_decimal_print@x,f
  4602  0B6C  2B55               	goto	l1983
  4603  0B6D                     l1985:	
  4604                           
  4605                           ;Main V4.0.c: 603: }
  4606                           ;Main V4.0.c: 604: x = x + 48;
  4607  0B6D  087C               	movf	char_to_decimal_print@x,w
  4608  0B6E  3E30               	addlw	48
  4609  0B6F  00FB               	movwf	??_char_to_decimal_print
  4610  0B70  087B               	movf	??_char_to_decimal_print,w
  4611  0B71  00FC               	movwf	char_to_decimal_print@x
  4612                           
  4613                           ;Main V4.0.c: 605: LCDWriteCharacter(x);
  4614  0B72  087C               	movf	char_to_decimal_print@x,w
  4615  0B73  120A  158A  239C  120A  158A  	fcall	_LCDWriteCharacter
  4616                           
  4617                           ;Main V4.0.c: 606: x = 0;
  4618  0B78  01FC               	clrf	char_to_decimal_print@x
  4619  0B79                     l1993:	
  4620                           ;Main V4.0.c: 607: while (value > 0){
  4621                           
  4622  0B79  087A               	movf	char_to_decimal_print@value+1,w
  4623  0B7A  3A80               	xorlw	128
  4624  0B7B  00FF               	movwf	127
  4625  0B7C  3080               	movlw	128
  4626  0B7D  027F               	subwf	127,w
  4627  0B7E  1D03               	skipz
  4628  0B7F  2B82               	goto	u1585
  4629  0B80  3001               	movlw	1
  4630  0B81  0279               	subwf	char_to_decimal_print@value,w
  4631  0B82                     u1585:	
  4632  0B82  1C03               	btfss	3,0
  4633  0B83  2B91               	goto	l1995
  4634                           
  4635                           ;Main V4.0.c: 608: value = value - 1;
  4636  0B84  0879               	movf	char_to_decimal_print@value,w
  4637  0B85  3EFF               	addlw	255
  4638  0B86  00F9               	movwf	char_to_decimal_print@value
  4639  0B87  087A               	movf	char_to_decimal_print@value+1,w
  4640  0B88  1803               	skipnc
  4641  0B89  3E01               	addlw	1
  4642  0B8A  3EFF               	addlw	255
  4643  0B8B  00FA               	movwf	char_to_decimal_print@value+1
  4644                           
  4645                           ;Main V4.0.c: 609: x++;
  4646  0B8C  3001               	movlw	1
  4647  0B8D  00FB               	movwf	??_char_to_decimal_print
  4648  0B8E  087B               	movf	??_char_to_decimal_print,w
  4649  0B8F  07FC               	addwf	char_to_decimal_print@x,f
  4650  0B90  2B79               	goto	l1993
  4651  0B91                     l1995:	
  4652                           
  4653                           ;Main V4.0.c: 610: }
  4654                           ;Main V4.0.c: 611: x = x + 48;
  4655  0B91  087C               	movf	char_to_decimal_print@x,w
  4656  0B92  3E30               	addlw	48
  4657  0B93  00FB               	movwf	??_char_to_decimal_print
  4658  0B94  087B               	movf	??_char_to_decimal_print,w
  4659  0B95  00FC               	movwf	char_to_decimal_print@x
  4660                           
  4661                           ;Main V4.0.c: 612: LCDWriteCharacter(x);
  4662  0B96  087C               	movf	char_to_decimal_print@x,w
  4663  0B97  120A  158A  239C   	fcall	_LCDWriteCharacter
  4664                           
  4665                           ;Main V4.0.c: 613: x = 0;
  4666  0B9A  01FC               	clrf	char_to_decimal_print@x
  4667  0B9B  0008               	return
  4668  0B9C                     __end_of_char_to_decimal_print:	
  4669                           
  4670                           	psect	text8
  4671  0C29                     __ptext8:	
  4672 ;; *************** function ___fttol *****************
  4673 ;; Defined at:
  4674 ;;		line 44 in file "C:\Program Files (x86)\Microchip\xc8\v1.32\sources\common\fttol.c"
  4675 ;; Parameters:    Size  Location     Type
  4676 ;;  f1              3   17[BANK0 ] float 
  4677 ;; Auto vars:     Size  Location     Type
  4678 ;;  lval            4   26[BANK0 ] unsigned long 
  4679 ;;  exp1            1   30[BANK0 ] unsigned char 
  4680 ;;  sign1           1   25[BANK0 ] unsigned char 
  4681 ;; Return value:  Size  Location     Type
  4682 ;;                  4   17[BANK0 ] long 
  4683 ;; Registers used:
  4684 ;;		wreg, status,2, status,0
  4685 ;; Tracked objects:
  4686 ;;		On entry : 0/0
  4687 ;;		On exit  : 0/0
  4688 ;;		Unchanged: 0/0
  4689 ;; Data sizes:     COMMON   BANK0   BANK1   BANK3   BANK2
  4690 ;;      Params:         0       4       0       0       0
  4691 ;;      Locals:         0       6       0       0       0
  4692 ;;      Temps:          0       4       0       0       0
  4693 ;;      Totals:         0      14       0       0       0
  4694 ;;Total ram usage:       14 bytes
  4695 ;; Hardware stack levels used:    1
  4696 ;; This function calls:
  4697 ;;		Nothing
  4698 ;; This function is called by:
  4699 ;;		_display_temps_to_screen
  4700 ;; This function uses a non-reentrant model
  4701 ;;
  4702                           
  4703                           
  4704                           ;psect for function ___fttol
  4705  0C29                     ___fttol:	
  4706                           
  4707                           ;incstack = 0
  4708                           ; Regs used in ___fttol: [wreg+status,2+status,0]
  4709  0C29  1283               	bcf	3,5	;RP0=0, select bank0
  4710  0C2A  1303               	bcf	3,6	;RP1=0, select bank0
  4711  0C2B  0831               	movf	___fttol@f1,w
  4712  0C2C  00B5               	movwf	??___fttol
  4713  0C2D  0832               	movf	___fttol@f1+1,w
  4714  0C2E  00B6               	movwf	??___fttol+1
  4715  0C2F  0833               	movf	___fttol@f1+2,w
  4716  0C30  00B7               	movwf	??___fttol+2
  4717  0C31  1003               	clrc
  4718  0C32  0D36               	rlf	??___fttol+1,w
  4719  0C33  0D37               	rlf	??___fttol+2,w
  4720  0C34  00B8               	movwf	??___fttol+3
  4721  0C35  0838               	movf	??___fttol+3,w
  4722  0C36  00BE               	movwf	___fttol@exp1
  4723  0C37  08BE               	movf	___fttol@exp1,f
  4724  0C38  1D03               	skipz
  4725  0C39  2C43               	goto	l2085
  4726  0C3A  3000               	movlw	0
  4727  0C3B  00B4               	movwf	?___fttol+3
  4728  0C3C  3000               	movlw	0
  4729  0C3D  00B3               	movwf	?___fttol+2
  4730  0C3E  3000               	movlw	0
  4731  0C3F  00B2               	movwf	?___fttol+1
  4732  0C40  3000               	movlw	0
  4733  0C41  00B1               	movwf	?___fttol
  4734  0C42  0008               	return
  4735  0C43                     l2085:	
  4736  0C43  0831               	movf	___fttol@f1,w
  4737  0C44  00B5               	movwf	??___fttol
  4738  0C45  0832               	movf	___fttol@f1+1,w
  4739  0C46  00B6               	movwf	??___fttol+1
  4740  0C47  0833               	movf	___fttol@f1+2,w
  4741  0C48  00B7               	movwf	??___fttol+2
  4742  0C49  3017               	movlw	23
  4743  0C4A                     u1775:	
  4744  0C4A  1003               	clrc
  4745  0C4B  0CB7               	rrf	??___fttol+2,f
  4746  0C4C  0CB6               	rrf	??___fttol+1,f
  4747  0C4D  0CB5               	rrf	??___fttol,f
  4748  0C4E  3EFF               	addlw	-1
  4749  0C4F  1D03               	skipz
  4750  0C50  2C4A               	goto	u1775
  4751  0C51  0835               	movf	??___fttol,w
  4752  0C52  00B8               	movwf	??___fttol+3
  4753  0C53  0838               	movf	??___fttol+3,w
  4754  0C54  00B9               	movwf	___fttol@sign1
  4755  0C55  17B2               	bsf	___fttol@f1+1,7
  4756  0C56  30FF               	movlw	255
  4757  0C57  05B1               	andwf	___fttol@f1,f
  4758  0C58  30FF               	movlw	255
  4759  0C59  05B2               	andwf	___fttol@f1+1,f
  4760  0C5A  3000               	movlw	0
  4761  0C5B  05B3               	andwf	___fttol@f1+2,f
  4762  0C5C  0831               	movf	___fttol@f1,w
  4763  0C5D  00BA               	movwf	___fttol@lval
  4764  0C5E  0832               	movf	___fttol@f1+1,w
  4765  0C5F  00BB               	movwf	___fttol@lval+1
  4766  0C60  0833               	movf	___fttol@f1+2,w
  4767  0C61  00BC               	movwf	___fttol@lval+2
  4768  0C62  01BD               	clrf	___fttol@lval+3
  4769  0C63  308E               	movlw	142
  4770  0C64  02BE               	subwf	___fttol@exp1,f
  4771  0C65  1FBE               	btfss	___fttol@exp1,7
  4772  0C66  2C85               	goto	l2105
  4773  0C67  083E               	movf	___fttol@exp1,w
  4774  0C68  3A80               	xorlw	128
  4775  0C69  3E8F               	addlw	143
  4776  0C6A  1803               	skipnc
  4777  0C6B  2C75               	goto	l2103
  4778  0C6C  3000               	movlw	0
  4779  0C6D  00B4               	movwf	?___fttol+3
  4780  0C6E  3000               	movlw	0
  4781  0C6F  00B3               	movwf	?___fttol+2
  4782  0C70  3000               	movlw	0
  4783  0C71  00B2               	movwf	?___fttol+1
  4784  0C72  3000               	movlw	0
  4785  0C73  00B1               	movwf	?___fttol
  4786  0C74  0008               	return
  4787  0C75                     l2103:	
  4788  0C75  3001               	movlw	1
  4789  0C76                     u1805:	
  4790  0C76  1003               	clrc
  4791  0C77  0CBD               	rrf	___fttol@lval+3,f
  4792  0C78  0CBC               	rrf	___fttol@lval+2,f
  4793  0C79  0CBB               	rrf	___fttol@lval+1,f
  4794  0C7A  0CBA               	rrf	___fttol@lval,f
  4795  0C7B  3EFF               	addlw	-1
  4796  0C7C  1D03               	skipz
  4797  0C7D  2C76               	goto	u1805
  4798  0C7E  3001               	movlw	1
  4799  0C7F  00B5               	movwf	??___fttol
  4800  0C80  0835               	movf	??___fttol,w
  4801  0C81  07BE               	addwf	___fttol@exp1,f
  4802  0C82  1903               	btfsc	3,2
  4803  0C83  2CA0               	goto	l2115
  4804  0C84  2C75               	goto	l2103
  4805  0C85                     l2105:	
  4806  0C85  3018               	movlw	24
  4807  0C86  023E               	subwf	___fttol@exp1,w
  4808  0C87  1C03               	skipc
  4809  0C88  2C9D               	goto	l2113
  4810  0C89  3000               	movlw	0
  4811  0C8A  00B4               	movwf	?___fttol+3
  4812  0C8B  3000               	movlw	0
  4813  0C8C  00B3               	movwf	?___fttol+2
  4814  0C8D  3000               	movlw	0
  4815  0C8E  00B2               	movwf	?___fttol+1
  4816  0C8F  3000               	movlw	0
  4817  0C90  00B1               	movwf	?___fttol
  4818  0C91  0008               	return
  4819  0C92                     l2111:	
  4820  0C92  3001               	movlw	1
  4821  0C93  00B5               	movwf	??___fttol
  4822  0C94                     u1835:	
  4823  0C94  1003               	clrc
  4824  0C95  0DBA               	rlf	___fttol@lval,f
  4825  0C96  0DBB               	rlf	___fttol@lval+1,f
  4826  0C97  0DBC               	rlf	___fttol@lval+2,f
  4827  0C98  0DBD               	rlf	___fttol@lval+3,f
  4828  0C99  0BB5               	decfsz	??___fttol,f
  4829  0C9A  2C94               	goto	u1835
  4830  0C9B  3001               	movlw	1
  4831  0C9C  02BE               	subwf	___fttol@exp1,f
  4832  0C9D                     l2113:	
  4833  0C9D  08BE               	movf	___fttol@exp1,f
  4834  0C9E  1D03               	skipz
  4835  0C9F  2C92               	goto	l2111
  4836  0CA0                     l2115:	
  4837  0CA0  0839               	movf	___fttol@sign1,w
  4838  0CA1  1903               	btfsc	3,2
  4839  0CA2  2CAE               	goto	l2119
  4840  0CA3  09BA               	comf	___fttol@lval,f
  4841  0CA4  09BB               	comf	___fttol@lval+1,f
  4842  0CA5  09BC               	comf	___fttol@lval+2,f
  4843  0CA6  09BD               	comf	___fttol@lval+3,f
  4844  0CA7  0ABA               	incf	___fttol@lval,f
  4845  0CA8  1903               	skipnz
  4846  0CA9  0ABB               	incf	___fttol@lval+1,f
  4847  0CAA  1903               	skipnz
  4848  0CAB  0ABC               	incf	___fttol@lval+2,f
  4849  0CAC  1903               	skipnz
  4850  0CAD  0ABD               	incf	___fttol@lval+3,f
  4851  0CAE                     l2119:	
  4852  0CAE  083D               	movf	___fttol@lval+3,w
  4853  0CAF  00B4               	movwf	?___fttol+3
  4854  0CB0  083C               	movf	___fttol@lval+2,w
  4855  0CB1  00B3               	movwf	?___fttol+2
  4856  0CB2  083B               	movf	___fttol@lval+1,w
  4857  0CB3  00B2               	movwf	?___fttol+1
  4858  0CB4  083A               	movf	___fttol@lval,w
  4859  0CB5  00B1               	movwf	?___fttol
  4860  0CB6  0008               	return
  4861  0CB7                     __end_of___fttol:	
  4862                           
  4863                           	psect	text9
  4864  0DE8                     __ptext9:	
  4865 ;; *************** function ___ftmul *****************
  4866 ;; Defined at:
  4867 ;;		line 62 in file "C:\Program Files (x86)\Microchip\xc8\v1.32\sources\common\ftmul.c"
  4868 ;; Parameters:    Size  Location     Type
  4869 ;;  f1              3    1[BANK0 ] float 
  4870 ;;  f2              3    4[BANK0 ] float 
  4871 ;; Auto vars:     Size  Location     Type
  4872 ;;  f3_as_produc    3   12[BANK0 ] unsigned um
  4873 ;;  sign            1   16[BANK0 ] unsigned char 
  4874 ;;  cntr            1   15[BANK0 ] unsigned char 
  4875 ;;  exp             1   11[BANK0 ] unsigned char 
  4876 ;; Return value:  Size  Location     Type
  4877 ;;                  3    1[BANK0 ] float 
  4878 ;; Registers used:
  4879 ;;		wreg, status,2, status,0, pclath, cstack
  4880 ;; Tracked objects:
  4881 ;;		On entry : 0/0
  4882 ;;		On exit  : 0/0
  4883 ;;		Unchanged: 0/0
  4884 ;; Data sizes:     COMMON   BANK0   BANK1   BANK3   BANK2
  4885 ;;      Params:         0       6       0       0       0
  4886 ;;      Locals:         0       6       0       0       0
  4887 ;;      Temps:          0       4       0       0       0
  4888 ;;      Totals:         0      16       0       0       0
  4889 ;;Total ram usage:       16 bytes
  4890 ;; Hardware stack levels used:    1
  4891 ;; Hardware stack levels required when called:    1
  4892 ;; This function calls:
  4893 ;;		___ftpack
  4894 ;; This function is called by:
  4895 ;;		_display_temps_to_screen
  4896 ;; This function uses a non-reentrant model
  4897 ;;
  4898                           
  4899                           
  4900                           ;psect for function ___ftmul
  4901  0DE8                     ___ftmul:	
  4902                           
  4903                           ;incstack = 0
  4904                           ; Regs used in ___ftmul: [wreg+status,2+status,0+pclath+cstack]
  4905  0DE8  1283               	bcf	3,5	;RP0=0, select bank0
  4906  0DE9  1303               	bcf	3,6	;RP1=0, select bank0
  4907  0DEA  0821               	movf	___ftmul@f1,w
  4908  0DEB  00A7               	movwf	??___ftmul
  4909  0DEC  0822               	movf	___ftmul@f1+1,w
  4910  0DED  00A8               	movwf	??___ftmul+1
  4911  0DEE  0823               	movf	___ftmul@f1+2,w
  4912  0DEF  00A9               	movwf	??___ftmul+2
  4913  0DF0  1003               	clrc
  4914  0DF1  0D28               	rlf	??___ftmul+1,w
  4915  0DF2  0D29               	rlf	??___ftmul+2,w
  4916  0DF3  00AA               	movwf	??___ftmul+3
  4917  0DF4  082A               	movf	??___ftmul+3,w
  4918  0DF5  00AB               	movwf	___ftmul@exp
  4919  0DF6  08AB               	movf	___ftmul@exp,f
  4920  0DF7  1D03               	skipz
  4921  0DF8  2E00               	goto	l2035
  4922  0DF9  3000               	movlw	0
  4923  0DFA  00A1               	movwf	?___ftmul
  4924  0DFB  3000               	movlw	0
  4925  0DFC  00A2               	movwf	?___ftmul+1
  4926  0DFD  3000               	movlw	0
  4927  0DFE  00A3               	movwf	?___ftmul+2
  4928  0DFF  0008               	return
  4929  0E00                     l2035:	
  4930  0E00  0824               	movf	___ftmul@f2,w
  4931  0E01  00A7               	movwf	??___ftmul
  4932  0E02  0825               	movf	___ftmul@f2+1,w
  4933  0E03  00A8               	movwf	??___ftmul+1
  4934  0E04  0826               	movf	___ftmul@f2+2,w
  4935  0E05  00A9               	movwf	??___ftmul+2
  4936  0E06  1003               	clrc
  4937  0E07  0D28               	rlf	??___ftmul+1,w
  4938  0E08  0D29               	rlf	??___ftmul+2,w
  4939  0E09  00AA               	movwf	??___ftmul+3
  4940  0E0A  082A               	movf	??___ftmul+3,w
  4941  0E0B  00B0               	movwf	___ftmul@sign
  4942  0E0C  08B0               	movf	___ftmul@sign,f
  4943  0E0D  1D03               	skipz
  4944  0E0E  2E16               	goto	l2041
  4945  0E0F  3000               	movlw	0
  4946  0E10  00A1               	movwf	?___ftmul
  4947  0E11  3000               	movlw	0
  4948  0E12  00A2               	movwf	?___ftmul+1
  4949  0E13  3000               	movlw	0
  4950  0E14  00A3               	movwf	?___ftmul+2
  4951  0E15  0008               	return
  4952  0E16                     l2041:	
  4953  0E16  0830               	movf	___ftmul@sign,w
  4954  0E17  3E7B               	addlw	123
  4955  0E18  00A7               	movwf	??___ftmul
  4956  0E19  0827               	movf	??___ftmul,w
  4957  0E1A  07AB               	addwf	___ftmul@exp,f
  4958  0E1B  0821               	movf	___ftmul@f1,w
  4959  0E1C  00A7               	movwf	??___ftmul
  4960  0E1D  0822               	movf	___ftmul@f1+1,w
  4961  0E1E  00A8               	movwf	??___ftmul+1
  4962  0E1F  0823               	movf	___ftmul@f1+2,w
  4963  0E20  00A9               	movwf	??___ftmul+2
  4964  0E21  3010               	movlw	16
  4965  0E22                     u1645:	
  4966  0E22  1003               	clrc
  4967  0E23  0CA9               	rrf	??___ftmul+2,f
  4968  0E24  0CA8               	rrf	??___ftmul+1,f
  4969  0E25  0CA7               	rrf	??___ftmul,f
  4970  0E26  3EFF               	addlw	-1
  4971  0E27  1D03               	skipz
  4972  0E28  2E22               	goto	u1645
  4973  0E29  0827               	movf	??___ftmul,w
  4974  0E2A  00AA               	movwf	??___ftmul+3
  4975  0E2B  082A               	movf	??___ftmul+3,w
  4976  0E2C  00B0               	movwf	___ftmul@sign
  4977  0E2D  0824               	movf	___ftmul@f2,w
  4978  0E2E  00A7               	movwf	??___ftmul
  4979  0E2F  0825               	movf	___ftmul@f2+1,w
  4980  0E30  00A8               	movwf	??___ftmul+1
  4981  0E31  0826               	movf	___ftmul@f2+2,w
  4982  0E32  00A9               	movwf	??___ftmul+2
  4983  0E33  3010               	movlw	16
  4984  0E34                     u1655:	
  4985  0E34  1003               	clrc
  4986  0E35  0CA9               	rrf	??___ftmul+2,f
  4987  0E36  0CA8               	rrf	??___ftmul+1,f
  4988  0E37  0CA7               	rrf	??___ftmul,f
  4989  0E38  3EFF               	addlw	-1
  4990  0E39  1D03               	skipz
  4991  0E3A  2E34               	goto	u1655
  4992  0E3B  0827               	movf	??___ftmul,w
  4993  0E3C  00AA               	movwf	??___ftmul+3
  4994  0E3D  082A               	movf	??___ftmul+3,w
  4995  0E3E  06B0               	xorwf	___ftmul@sign,f
  4996  0E3F  3080               	movlw	128
  4997  0E40  00A7               	movwf	??___ftmul
  4998  0E41  0827               	movf	??___ftmul,w
  4999  0E42  05B0               	andwf	___ftmul@sign,f
  5000  0E43  17A2               	bsf	___ftmul@f1+1,7
  5001  0E44  17A5               	bsf	___ftmul@f2+1,7
  5002  0E45  30FF               	movlw	255
  5003  0E46  05A4               	andwf	___ftmul@f2,f
  5004  0E47  30FF               	movlw	255
  5005  0E48  05A5               	andwf	___ftmul@f2+1,f
  5006  0E49  3000               	movlw	0
  5007  0E4A  05A6               	andwf	___ftmul@f2+2,f
  5008  0E4B  3000               	movlw	0
  5009  0E4C  00AC               	movwf	___ftmul@f3_as_product
  5010  0E4D  3000               	movlw	0
  5011  0E4E  00AD               	movwf	___ftmul@f3_as_product+1
  5012  0E4F  3000               	movlw	0
  5013  0E50  00AE               	movwf	___ftmul@f3_as_product+2
  5014  0E51  3007               	movlw	7
  5015  0E52  00A7               	movwf	??___ftmul
  5016  0E53  0827               	movf	??___ftmul,w
  5017  0E54  00AF               	movwf	___ftmul@cntr
  5018  0E55                     l2053:	
  5019  0E55  1C21               	btfss	___ftmul@f1,0
  5020  0E56  2E65               	goto	l2057
  5021  0E57  0824               	movf	___ftmul@f2,w
  5022  0E58  07AC               	addwf	___ftmul@f3_as_product,f
  5023  0E59  0825               	movf	___ftmul@f2+1,w
  5024  0E5A  1103               	clrz
  5025  0E5B  1803               	skipnc
  5026  0E5C  0A25               	incf	___ftmul@f2+1,w
  5027  0E5D  1D03               	btfss	3,2
  5028  0E5E  07AD               	addwf	___ftmul@f3_as_product+1,f
  5029  0E5F  0826               	movf	___ftmul@f2+2,w
  5030  0E60  1103               	clrz
  5031  0E61  1803               	skipnc
  5032  0E62  0A26               	incf	___ftmul@f2+2,w
  5033  0E63  1D03               	btfss	3,2
  5034  0E64  07AE               	addwf	___ftmul@f3_as_product+2,f
  5035  0E65                     l2057:	
  5036  0E65  3001               	movlw	1
  5037  0E66                     u1685:	
  5038  0E66  1003               	clrc
  5039  0E67  0CA3               	rrf	___ftmul@f1+2,f
  5040  0E68  0CA2               	rrf	___ftmul@f1+1,f
  5041  0E69  0CA1               	rrf	___ftmul@f1,f
  5042  0E6A  3EFF               	addlw	-1
  5043  0E6B  1D03               	skipz
  5044  0E6C  2E66               	goto	u1685
  5045  0E6D  3001               	movlw	1
  5046  0E6E                     u1695:	
  5047  0E6E  1003               	clrc
  5048  0E6F  0DA4               	rlf	___ftmul@f2,f
  5049  0E70  0DA5               	rlf	___ftmul@f2+1,f
  5050  0E71  0DA6               	rlf	___ftmul@f2+2,f
  5051  0E72  3EFF               	addlw	-1
  5052  0E73  1D03               	skipz
  5053  0E74  2E6E               	goto	u1695
  5054  0E75  3001               	movlw	1
  5055  0E76  02AF               	subwf	___ftmul@cntr,f
  5056  0E77  1D03               	btfss	3,2
  5057  0E78  2E55               	goto	l2053
  5058  0E79  3009               	movlw	9
  5059  0E7A  00A7               	movwf	??___ftmul
  5060  0E7B  0827               	movf	??___ftmul,w
  5061  0E7C  00AF               	movwf	___ftmul@cntr
  5062  0E7D                     l2065:	
  5063  0E7D  1C21               	btfss	___ftmul@f1,0
  5064  0E7E  2E8D               	goto	l2069
  5065  0E7F  0824               	movf	___ftmul@f2,w
  5066  0E80  07AC               	addwf	___ftmul@f3_as_product,f
  5067  0E81  0825               	movf	___ftmul@f2+1,w
  5068  0E82  1103               	clrz
  5069  0E83  1803               	skipnc
  5070  0E84  0A25               	incf	___ftmul@f2+1,w
  5071  0E85  1D03               	btfss	3,2
  5072  0E86  07AD               	addwf	___ftmul@f3_as_product+1,f
  5073  0E87  0826               	movf	___ftmul@f2+2,w
  5074  0E88  1103               	clrz
  5075  0E89  1803               	skipnc
  5076  0E8A  0A26               	incf	___ftmul@f2+2,w
  5077  0E8B  1D03               	btfss	3,2
  5078  0E8C  07AE               	addwf	___ftmul@f3_as_product+2,f
  5079  0E8D                     l2069:	
  5080  0E8D  3001               	movlw	1
  5081  0E8E                     u1735:	
  5082  0E8E  1003               	clrc
  5083  0E8F  0CA3               	rrf	___ftmul@f1+2,f
  5084  0E90  0CA2               	rrf	___ftmul@f1+1,f
  5085  0E91  0CA1               	rrf	___ftmul@f1,f
  5086  0E92  3EFF               	addlw	-1
  5087  0E93  1D03               	skipz
  5088  0E94  2E8E               	goto	u1735
  5089  0E95  3001               	movlw	1
  5090  0E96                     u1745:	
  5091  0E96  1003               	clrc
  5092  0E97  0CAE               	rrf	___ftmul@f3_as_product+2,f
  5093  0E98  0CAD               	rrf	___ftmul@f3_as_product+1,f
  5094  0E99  0CAC               	rrf	___ftmul@f3_as_product,f
  5095  0E9A  3EFF               	addlw	-1
  5096  0E9B  1D03               	skipz
  5097  0E9C  2E96               	goto	u1745
  5098  0E9D  3001               	movlw	1
  5099  0E9E  02AF               	subwf	___ftmul@cntr,f
  5100  0E9F  1D03               	btfss	3,2
  5101  0EA0  2E7D               	goto	l2065
  5102  0EA1  082C               	movf	___ftmul@f3_as_product,w
  5103  0EA2  00F1               	movwf	___ftpack@arg
  5104  0EA3  082D               	movf	___ftmul@f3_as_product+1,w
  5105  0EA4  00F2               	movwf	___ftpack@arg+1
  5106  0EA5  082E               	movf	___ftmul@f3_as_product+2,w
  5107  0EA6  00F3               	movwf	___ftpack@arg+2
  5108  0EA7  082B               	movf	___ftmul@exp,w
  5109  0EA8  00A7               	movwf	??___ftmul
  5110  0EA9  0827               	movf	??___ftmul,w
  5111  0EAA  00F4               	movwf	___ftpack@exp
  5112  0EAB  0830               	movf	___ftmul@sign,w
  5113  0EAC  00A8               	movwf	??___ftmul+1
  5114  0EAD  0828               	movf	??___ftmul+1,w
  5115  0EAE  00F5               	movwf	___ftpack@sign
  5116  0EAF  120A  158A  22C8   	fcall	___ftpack
  5117  0EB2  0871               	movf	?___ftpack,w
  5118  0EB3  1283               	bcf	3,5	;RP0=0, select bank0
  5119  0EB4  1303               	bcf	3,6	;RP1=0, select bank0
  5120  0EB5  00A1               	movwf	?___ftmul
  5121  0EB6  0872               	movf	?___ftpack+1,w
  5122  0EB7  00A2               	movwf	?___ftmul+1
  5123  0EB8  0873               	movf	?___ftpack+2,w
  5124  0EB9  00A3               	movwf	?___ftmul+2
  5125  0EBA  0008               	return
  5126  0EBB                     __end_of___ftmul:	
  5127                           
  5128                           	psect	text10
  5129  0928                     __ptext10:	
  5130 ;; *************** function ___awtoft *****************
  5131 ;; Defined at:
  5132 ;;		line 32 in file "C:\Program Files (x86)\Microchip\xc8\v1.32\sources\common\awtoft.c"
  5133 ;; Parameters:    Size  Location     Type
  5134 ;;  c               2    8[COMMON] int 
  5135 ;; Auto vars:     Size  Location     Type
  5136 ;;  sign            1    0[BANK0 ] unsigned char 
  5137 ;; Return value:  Size  Location     Type
  5138 ;;                  3    8[COMMON] float 
  5139 ;; Registers used:
  5140 ;;		wreg, status,2, status,0, pclath, cstack
  5141 ;; Tracked objects:
  5142 ;;		On entry : 0/0
  5143 ;;		On exit  : 0/0
  5144 ;;		Unchanged: 0/0
  5145 ;; Data sizes:     COMMON   BANK0   BANK1   BANK3   BANK2
  5146 ;;      Params:         3       0       0       0       0
  5147 ;;      Locals:         0       1       0       0       0
  5148 ;;      Temps:          2       0       0       0       0
  5149 ;;      Totals:         5       1       0       0       0
  5150 ;;Total ram usage:        6 bytes
  5151 ;; Hardware stack levels used:    1
  5152 ;; Hardware stack levels required when called:    1
  5153 ;; This function calls:
  5154 ;;		___ftpack
  5155 ;; This function is called by:
  5156 ;;		_display_temps_to_screen
  5157 ;; This function uses a non-reentrant model
  5158 ;;
  5159                           
  5160                           
  5161                           ;psect for function ___awtoft
  5162  0928                     ___awtoft:	
  5163                           
  5164                           ;incstack = 0
  5165                           ; Regs used in ___awtoft: [wreg+status,2+status,0+pclath+cstack]
  5166  0928  1283               	bcf	3,5	;RP0=0, select bank0
  5167  0929  1303               	bcf	3,6	;RP1=0, select bank0
  5168  092A  01A0               	clrf	___awtoft@sign
  5169  092B  1FFA               	btfss	___awtoft@c+1,7
  5170  092C  2934               	goto	l2025
  5171  092D  09F9               	comf	___awtoft@c,f
  5172  092E  09FA               	comf	___awtoft@c+1,f
  5173  092F  0AF9               	incf	___awtoft@c,f
  5174  0930  1903               	skipnz
  5175  0931  0AFA               	incf	___awtoft@c+1,f
  5176  0932  01A0               	clrf	___awtoft@sign
  5177  0933  0AA0               	incf	___awtoft@sign,f
  5178  0934                     l2025:	
  5179  0934  0879               	movf	___awtoft@c,w
  5180  0935  00F1               	movwf	___ftpack@arg
  5181  0936  087A               	movf	___awtoft@c+1,w
  5182  0937  00F2               	movwf	___ftpack@arg+1
  5183  0938  01F3               	clrf	___ftpack@arg+2
  5184  0939  308E               	movlw	142
  5185  093A  00FC               	movwf	??___awtoft
  5186  093B  087C               	movf	??___awtoft,w
  5187  093C  00F4               	movwf	___ftpack@exp
  5188  093D  0820               	movf	___awtoft@sign,w
  5189  093E  00FD               	movwf	??___awtoft+1
  5190  093F  087D               	movf	??___awtoft+1,w
  5191  0940  00F5               	movwf	___ftpack@sign
  5192  0941  120A  158A  22C8   	fcall	___ftpack
  5193  0944  0871               	movf	?___ftpack,w
  5194  0945  00F9               	movwf	?___awtoft
  5195  0946  0872               	movf	?___ftpack+1,w
  5196  0947  00FA               	movwf	?___awtoft+1
  5197  0948  0873               	movf	?___ftpack+2,w
  5198  0949  00FB               	movwf	?___awtoft+2
  5199  094A  0008               	return
  5200  094B                     __end_of___awtoft:	
  5201                           
  5202                           	psect	text11
  5203  0AC8                     __ptext11:	
  5204 ;; *************** function ___ftpack *****************
  5205 ;; Defined at:
  5206 ;;		line 62 in file "C:\Program Files (x86)\Microchip\xc8\v1.32\sources\common\float.c"
  5207 ;; Parameters:    Size  Location     Type
  5208 ;;  arg             3    0[COMMON] unsigned um
  5209 ;;  exp             1    3[COMMON] unsigned char 
  5210 ;;  sign            1    4[COMMON] unsigned char 
  5211 ;; Auto vars:     Size  Location     Type
  5212 ;;		None
  5213 ;; Return value:  Size  Location     Type
  5214 ;;                  3    0[COMMON] float 
  5215 ;; Registers used:
  5216 ;;		wreg, status,2, status,0
  5217 ;; Tracked objects:
  5218 ;;		On entry : 0/0
  5219 ;;		On exit  : 0/0
  5220 ;;		Unchanged: 0/0
  5221 ;; Data sizes:     COMMON   BANK0   BANK1   BANK3   BANK2
  5222 ;;      Params:         5       0       0       0       0
  5223 ;;      Locals:         0       0       0       0       0
  5224 ;;      Temps:          3       0       0       0       0
  5225 ;;      Totals:         8       0       0       0       0
  5226 ;;Total ram usage:        8 bytes
  5227 ;; Hardware stack levels used:    1
  5228 ;; This function calls:
  5229 ;;		Nothing
  5230 ;; This function is called by:
  5231 ;;		___awtoft
  5232 ;;		___ftmul
  5233 ;; This function uses a non-reentrant model
  5234 ;;
  5235                           
  5236                           
  5237                           ;psect for function ___ftpack
  5238  0AC8                     ___ftpack:	
  5239                           
  5240                           ;incstack = 0
  5241                           ; Regs used in ___ftpack: [wreg+status,2+status,0]
  5242  0AC8  0874               	movf	___ftpack@exp,w
  5243  0AC9  1903               	btfsc	3,2
  5244  0ACA  2AD0               	goto	l1893
  5245  0ACB  0873               	movf	___ftpack@arg+2,w
  5246  0ACC  0472               	iorwf	___ftpack@arg+1,w
  5247  0ACD  0471               	iorwf	___ftpack@arg,w
  5248  0ACE  1D03               	skipz
  5249  0ACF  2AE3               	goto	l1899
  5250  0AD0                     l1893:	
  5251  0AD0  3000               	movlw	0
  5252  0AD1  00F1               	movwf	?___ftpack
  5253  0AD2  3000               	movlw	0
  5254  0AD3  00F2               	movwf	?___ftpack+1
  5255  0AD4  3000               	movlw	0
  5256  0AD5  00F3               	movwf	?___ftpack+2
  5257  0AD6  0008               	return
  5258  0AD7                     l1897:	
  5259  0AD7  3001               	movlw	1
  5260  0AD8  00F6               	movwf	??___ftpack
  5261  0AD9  0876               	movf	??___ftpack,w
  5262  0ADA  07F4               	addwf	___ftpack@exp,f
  5263  0ADB  3001               	movlw	1
  5264  0ADC                     u1405:	
  5265  0ADC  1003               	clrc
  5266  0ADD  0CF3               	rrf	___ftpack@arg+2,f
  5267  0ADE  0CF2               	rrf	___ftpack@arg+1,f
  5268  0ADF  0CF1               	rrf	___ftpack@arg,f
  5269  0AE0  3EFF               	addlw	-1
  5270  0AE1  1D03               	skipz
  5271  0AE2  2ADC               	goto	u1405
  5272  0AE3                     l1899:	
  5273  0AE3  30FE               	movlw	254
  5274  0AE4  0573               	andwf	___ftpack@arg+2,w
  5275  0AE5  1903               	btfsc	3,2
  5276  0AE6  2AFE               	goto	l489
  5277  0AE7  2AD7               	goto	l1897
  5278  0AE8                     l1901:	
  5279  0AE8  3001               	movlw	1
  5280  0AE9  00F6               	movwf	??___ftpack
  5281  0AEA  0876               	movf	??___ftpack,w
  5282  0AEB  07F4               	addwf	___ftpack@exp,f
  5283  0AEC  3001               	movlw	1
  5284  0AED  07F1               	addwf	___ftpack@arg,f
  5285  0AEE  3000               	movlw	0
  5286  0AEF  1803               	skipnc
  5287  0AF0  3001               	movlw	1
  5288  0AF1  07F2               	addwf	___ftpack@arg+1,f
  5289  0AF2  3000               	movlw	0
  5290  0AF3  1803               	skipnc
  5291  0AF4  3001               	movlw	1
  5292  0AF5  07F3               	addwf	___ftpack@arg+2,f
  5293  0AF6  3001               	movlw	1
  5294  0AF7                     u1425:	
  5295  0AF7  1003               	clrc
  5296  0AF8  0CF3               	rrf	___ftpack@arg+2,f
  5297  0AF9  0CF2               	rrf	___ftpack@arg+1,f
  5298  0AFA  0CF1               	rrf	___ftpack@arg,f
  5299  0AFB  3EFF               	addlw	-1
  5300  0AFC  1D03               	skipz
  5301  0AFD  2AF7               	goto	u1425
  5302  0AFE                     l489:	
  5303  0AFE  30FF               	movlw	255
  5304  0AFF  0573               	andwf	___ftpack@arg+2,w
  5305  0B00  1903               	btfsc	3,2
  5306  0B01  2B0D               	goto	l1909
  5307  0B02  2AE8               	goto	l1901
  5308  0B03                     l1907:	
  5309  0B03  3001               	movlw	1
  5310  0B04  02F4               	subwf	___ftpack@exp,f
  5311  0B05  3001               	movlw	1
  5312  0B06                     u1445:	
  5313  0B06  1003               	clrc
  5314  0B07  0DF1               	rlf	___ftpack@arg,f
  5315  0B08  0DF2               	rlf	___ftpack@arg+1,f
  5316  0B09  0DF3               	rlf	___ftpack@arg+2,f
  5317  0B0A  3EFF               	addlw	-1
  5318  0B0B  1D03               	skipz
  5319  0B0C  2B06               	goto	u1445
  5320  0B0D                     l1909:	
  5321  0B0D  1FF2               	btfss	___ftpack@arg+1,7
  5322  0B0E  2B03               	goto	l1907
  5323  0B0F  1874               	btfsc	___ftpack@exp,0
  5324  0B10  2B17               	goto	l495
  5325  0B11  30FF               	movlw	255
  5326  0B12  05F1               	andwf	___ftpack@arg,f
  5327  0B13  307F               	movlw	127
  5328  0B14  05F2               	andwf	___ftpack@arg+1,f
  5329  0B15  30FF               	movlw	255
  5330  0B16  05F3               	andwf	___ftpack@arg+2,f
  5331  0B17                     l495:	
  5332  0B17  1003               	clrc
  5333  0B18  0CF4               	rrf	___ftpack@exp,f
  5334  0B19  0874               	movf	___ftpack@exp,w
  5335  0B1A  00F6               	movwf	??___ftpack
  5336  0B1B  01F7               	clrf	??___ftpack+1
  5337  0B1C  01F8               	clrf	??___ftpack+2
  5338  0B1D  3010               	movlw	16
  5339  0B1E                     u1475:	
  5340  0B1E  1003               	clrc
  5341  0B1F  0DF6               	rlf	??___ftpack,f
  5342  0B20  0DF7               	rlf	??___ftpack+1,f
  5343  0B21  0DF8               	rlf	??___ftpack+2,f
  5344  0B22  3EFF               	addlw	-1
  5345  0B23  1D03               	skipz
  5346  0B24  2B1E               	goto	u1475
  5347  0B25  0876               	movf	??___ftpack,w
  5348  0B26  04F1               	iorwf	___ftpack@arg,f
  5349  0B27  0877               	movf	??___ftpack+1,w
  5350  0B28  04F2               	iorwf	___ftpack@arg+1,f
  5351  0B29  0878               	movf	??___ftpack+2,w
  5352  0B2A  04F3               	iorwf	___ftpack@arg+2,f
  5353  0B2B  0875               	movf	___ftpack@sign,w
  5354  0B2C  1903               	btfsc	3,2
  5355  0B2D  0008               	return
  5356  0B2E  17F3               	bsf	___ftpack@arg+2,7
  5357  0B2F  0008               	return
  5358  0B30                     __end_of___ftpack:	
  5359                           
  5360                           	psect	text12
  5361  08A9                     __ptext12:	
  5362 ;; *************** function _chip_select *****************
  5363 ;; Defined at:
  5364 ;;		line 579 in file "Main V4.0.c"
  5365 ;; Parameters:    Size  Location     Type
  5366 ;;  chip            2    0[COMMON] int 
  5367 ;; Auto vars:     Size  Location     Type
  5368 ;;		None
  5369 ;; Return value:  Size  Location     Type
  5370 ;;		None               void
  5371 ;; Registers used:
  5372 ;;		wreg
  5373 ;; Tracked objects:
  5374 ;;		On entry : 0/0
  5375 ;;		On exit  : 0/0
  5376 ;;		Unchanged: 0/0
  5377 ;; Data sizes:     COMMON   BANK0   BANK1   BANK3   BANK2
  5378 ;;      Params:         2       0       0       0       0
  5379 ;;      Locals:         0       0       0       0       0
  5380 ;;      Temps:          0       0       0       0       0
  5381 ;;      Totals:         2       0       0       0       0
  5382 ;;Total ram usage:        2 bytes
  5383 ;; Hardware stack levels used:    1
  5384 ;; This function calls:
  5385 ;;		Nothing
  5386 ;; This function is called by:
  5387 ;;		_main
  5388 ;; This function uses a non-reentrant model
  5389 ;;
  5390                           
  5391                           
  5392                           ;psect for function _chip_select
  5393  08A9                     _chip_select:	
  5394                           
  5395                           ;Main V4.0.c: 580: RC6 = 1;
  5396                           
  5397                           ;incstack = 0
  5398                           ; Regs used in _chip_select: [wreg]
  5399  08A9  1283               	bcf	3,5	;RP0=0, select bank0
  5400  08AA  1303               	bcf	3,6	;RP1=0, select bank0
  5401  08AB  1707               	bsf	7,6	;volatile
  5402                           
  5403                           ;Main V4.0.c: 581: if (chip == 1){
  5404  08AC  3001               	movlw	1
  5405  08AD  0671               	xorwf	chip_select@chip,w
  5406  08AE  0472               	iorwf	chip_select@chip+1,w
  5407  08AF  1D03               	skipz
  5408  08B0  28B3               	goto	l192
  5409                           
  5410                           ;Main V4.0.c: 582: RC6 = 0;
  5411  08B1  1307               	bcf	7,6	;volatile
  5412                           
  5413                           ;Main V4.0.c: 584: }
  5414  08B2  0008               	return
  5415  08B3                     l192:	
  5416                           
  5417                           ;Main V4.0.c: 585: else{
  5418                           ;Main V4.0.c: 586: RC6 = 1;
  5419  08B3  1707               	bsf	7,6	;volatile
  5420  08B4  0008               	return
  5421  08B5                     __end_of_chip_select:	
  5422                           
  5423                           	psect	text13
  5424  0A6B                     __ptext13:	
  5425 ;; *************** function _blank_image *****************
  5426 ;; Defined at:
  5427 ;;		line 282 in file "Main V4.0.c"
  5428 ;; Parameters:    Size  Location     Type
  5429 ;;		None
  5430 ;; Auto vars:     Size  Location     Type
  5431 ;;  j               2    7[COMMON] unsigned int 
  5432 ;;  i               2    5[COMMON] unsigned int 
  5433 ;;  page            1    4[COMMON] unsigned char 
  5434 ;; Return value:  Size  Location     Type
  5435 ;;		None               void
  5436 ;; Registers used:
  5437 ;;		wreg, status,2, status,0, pclath, cstack
  5438 ;; Tracked objects:
  5439 ;;		On entry : 0/0
  5440 ;;		On exit  : 0/0
  5441 ;;		Unchanged: 0/0
  5442 ;; Data sizes:     COMMON   BANK0   BANK1   BANK3   BANK2
  5443 ;;      Params:         0       0       0       0       0
  5444 ;;      Locals:         5       0       0       0       0
  5445 ;;      Temps:          1       0       0       0       0
  5446 ;;      Totals:         6       0       0       0       0
  5447 ;;Total ram usage:        6 bytes
  5448 ;; Hardware stack levels used:    1
  5449 ;; Hardware stack levels required when called:    1
  5450 ;; This function calls:
  5451 ;;		_comm_out
  5452 ;;		_data_out
  5453 ;; This function is called by:
  5454 ;;		_main
  5455 ;; This function uses a non-reentrant model
  5456 ;;
  5457                           
  5458                           
  5459                           ;psect for function _blank_image
  5460  0A6B                     _blank_image:	
  5461                           
  5462                           ;Main V4.0.c: 283: unsigned int i,j;
  5463                           ;Main V4.0.c: 284: unsigned char page = 0xB0;
  5464                           
  5465                           ;incstack = 0
  5466                           ; Regs used in _blank_image: [wreg+status,2+status,0+pclath+cstack]
  5467  0A6B  30B0               	movlw	176
  5468  0A6C  00F4               	movwf	??_blank_image
  5469  0A6D  0874               	movf	??_blank_image,w
  5470  0A6E  00F5               	movwf	blank_image@page
  5471                           
  5472                           ;Main V4.0.c: 285: comm_out (0xAE);
  5473  0A6F  30AE               	movlw	174
  5474  0A70  120A  118A  2006  120A  158A  	fcall	_comm_out
  5475                           
  5476                           ;Main V4.0.c: 286: comm_out (0x40);
  5477  0A75  3040               	movlw	64
  5478  0A76  120A  118A  2006  120A  158A  	fcall	_comm_out
  5479                           
  5480                           ;Main V4.0.c: 287: for (i=0;i<4;i++){
  5481  0A7B  01F6               	clrf	blank_image@i
  5482  0A7C  01F7               	clrf	blank_image@i+1
  5483  0A7D  3000               	movlw	0
  5484  0A7E  0277               	subwf	blank_image@i+1,w
  5485  0A7F  3004               	movlw	4
  5486  0A80  1903               	skipnz
  5487  0A81  0276               	subwf	blank_image@i,w
  5488  0A82  1803               	btfsc	3,0
  5489  0A83  2AC3               	goto	l2183
  5490  0A84                     l2163:	
  5491                           
  5492                           ;Main V4.0.c: 288: comm_out (page);
  5493  0A84  0875               	movf	blank_image@page,w
  5494  0A85  120A  118A  2006  120A  158A  	fcall	_comm_out
  5495                           
  5496                           ;Main V4.0.c: 289: comm_out (0x10);
  5497  0A8A  3010               	movlw	16
  5498  0A8B  120A  118A  2006  120A  158A  	fcall	_comm_out
  5499                           
  5500                           ;Main V4.0.c: 290: comm_out (0x00);
  5501  0A90  3000               	movlw	0
  5502  0A91  120A  118A  2006  120A  158A  	fcall	_comm_out
  5503                           
  5504                           ;Main V4.0.c: 291: for (j=0;j<128;j++){
  5505  0A96  01F8               	clrf	blank_image@j
  5506  0A97  01F9               	clrf	blank_image@j+1
  5507  0A98  3000               	movlw	0
  5508  0A99  0279               	subwf	blank_image@j+1,w
  5509  0A9A  3080               	movlw	128
  5510  0A9B  1903               	skipnz
  5511  0A9C  0278               	subwf	blank_image@j,w
  5512  0A9D  1803               	btfsc	3,0
  5513  0A9E  2AB2               	goto	l2177
  5514  0A9F                     l2171:	
  5515                           
  5516                           ;Main V4.0.c: 292: data_out (0x00);
  5517  0A9F  3000               	movlw	0
  5518  0AA0  120A  158A  20F1  120A  158A  	fcall	_data_out
  5519  0AA5  3001               	movlw	1
  5520  0AA6  07F8               	addwf	blank_image@j,f
  5521  0AA7  1803               	skipnc
  5522  0AA8  0AF9               	incf	blank_image@j+1,f
  5523  0AA9  3000               	movlw	0
  5524  0AAA  07F9               	addwf	blank_image@j+1,f
  5525  0AAB  3000               	movlw	0
  5526  0AAC  0279               	subwf	blank_image@j+1,w
  5527  0AAD  3080               	movlw	128
  5528  0AAE  1903               	skipnz
  5529  0AAF  0278               	subwf	blank_image@j,w
  5530  0AB0  1C03               	skipc
  5531  0AB1  2A9F               	goto	l2171
  5532  0AB2                     l2177:	
  5533                           
  5534                           ;Main V4.0.c: 293: }
  5535                           ;Main V4.0.c: 294: page++;
  5536  0AB2  3001               	movlw	1
  5537  0AB3  00F4               	movwf	??_blank_image
  5538  0AB4  0874               	movf	??_blank_image,w
  5539  0AB5  07F5               	addwf	blank_image@page,f
  5540  0AB6  3001               	movlw	1
  5541  0AB7  07F6               	addwf	blank_image@i,f
  5542  0AB8  1803               	skipnc
  5543  0AB9  0AF7               	incf	blank_image@i+1,f
  5544  0ABA  3000               	movlw	0
  5545  0ABB  07F7               	addwf	blank_image@i+1,f
  5546  0ABC  3000               	movlw	0
  5547  0ABD  0277               	subwf	blank_image@i+1,w
  5548  0ABE  3004               	movlw	4
  5549  0ABF  1903               	skipnz
  5550  0AC0  0276               	subwf	blank_image@i,w
  5551  0AC1  1C03               	skipc
  5552  0AC2  2A84               	goto	l2163
  5553  0AC3                     l2183:	
  5554                           
  5555                           ;Main V4.0.c: 295: }
  5556                           ;Main V4.0.c: 296: comm_out (0xAF);
  5557  0AC3  30AF               	movlw	175
  5558  0AC4  120A  118A  2006   	fcall	_comm_out
  5559  0AC7  0008               	return
  5560  0AC8                     __end_of_blank_image:	
  5561                           
  5562                           	psect	text14
  5563  0006                     __ptext14:	
  5564 ;; *************** function _comm_out *****************
  5565 ;; Defined at:
  5566 ;;		line 103 in file "Main V4.0.c"
  5567 ;; Parameters:    Size  Location     Type
  5568 ;;  j               1    wreg     unsigned char 
  5569 ;; Auto vars:     Size  Location     Type
  5570 ;;  j               1    2[COMMON] unsigned char 
  5571 ;;  n               2    0        unsigned int 
  5572 ;; Return value:  Size  Location     Type
  5573 ;;		None               void
  5574 ;; Registers used:
  5575 ;;		wreg
  5576 ;; Tracked objects:
  5577 ;;		On entry : 0/0
  5578 ;;		On exit  : 0/0
  5579 ;;		Unchanged: 0/0
  5580 ;; Data sizes:     COMMON   BANK0   BANK1   BANK3   BANK2
  5581 ;;      Params:         0       0       0       0       0
  5582 ;;      Locals:         1       0       0       0       0
  5583 ;;      Temps:          2       0       0       0       0
  5584 ;;      Totals:         3       0       0       0       0
  5585 ;;Total ram usage:        3 bytes
  5586 ;; Hardware stack levels used:    1
  5587 ;; This function calls:
  5588 ;;		Nothing
  5589 ;; This function is called by:
  5590 ;;		_blank_image
  5591 ;;		_location
  5592 ;;		_main
  5593 ;;		_test_image
  5594 ;;		_test_image_page
  5595 ;;		_image_1
  5596 ;;		_moving_bar
  5597 ;;		_increasing_bar
  5598 ;;		_eating_bar
  5599 ;;		_pattern_bar
  5600 ;;		_dot
  5601 ;; This function uses a non-reentrant model
  5602 ;;
  5603                           
  5604                           
  5605                           ;psect for function _comm_out
  5606  0006                     _comm_out:	
  5607                           
  5608                           ;incstack = 0
  5609                           ; Regs used in _comm_out: [wreg]
  5610                           ;comm_out@j stored from wreg
  5611  0006  00F3               	movwf	comm_out@j
  5612                           
  5613                           ;Main V4.0.c: 104: unsigned int n;
  5614                           ;Main V4.0.c: 105: RC2 = 0;
  5615  0007  1283               	bcf	3,5	;RP0=0, select bank0
  5616  0008  1303               	bcf	3,6	;RP1=0, select bank0
  5617  0009  1107               	bcf	7,2	;volatile
  5618                           
  5619                           ;Main V4.0.c: 106: RC0 = 0;
  5620  000A  1007               	bcf	7,0	;volatile
  5621                           
  5622                           ;Main V4.0.c: 107: SSPBUF = j;
  5623  000B  0873               	movf	comm_out@j,w
  5624  000C  0093               	movwf	19	;volatile
  5625                           
  5626                           ;Main V4.0.c: 108: _delay((unsigned long)((1000)*(16000000/4000000.0)));
  5627  000D  3006               	movlw	6
  5628  000E  00F2               	movwf	??_comm_out+1
  5629  000F  3030               	movlw	48
  5630  0010  00F1               	movwf	??_comm_out
  5631  0011                     u2707:	
  5632  0011  0BF1               	decfsz	??_comm_out,f
  5633  0012  2811               	goto	u2707
  5634  0013  0BF2               	decfsz	??_comm_out+1,f
  5635  0014  2811               	goto	u2707
  5636  0015  0000               	nop
  5637                           
  5638                           ;Main V4.0.c: 109: RC2 = 1;
  5639  0016  1283               	bcf	3,5	;RP0=0, select bank0
  5640  0017  1303               	bcf	3,6	;RP1=0, select bank0
  5641  0018  1507               	bsf	7,2	;volatile
  5642  0019  0008               	return
  5643  001A                     __end_of_comm_out:	
  5644                           
  5645                           	psect	text15
  5646  09A8                     __ptext15:	
  5647 ;; *************** function _String_test *****************
  5648 ;; Defined at:
  5649 ;;		line 520 in file "Main V4.0.c"
  5650 ;; Parameters:    Size  Location     Type
  5651 ;;		None
  5652 ;; Auto vars:     Size  Location     Type
  5653 ;;  test_string    13   11[BANK0 ] unsigned char [13]
  5654 ;;  test_pointer    1   24[BANK0 ] PTR unsigned char 
  5655 ;;		 -> String_test@test_string(13), 
  5656 ;; Return value:  Size  Location     Type
  5657 ;;		None               void
  5658 ;; Registers used:
  5659 ;;		wreg, fsr0l, fsr0h, status,2, status,0, btemp+1, pclath, cstack
  5660 ;; Tracked objects:
  5661 ;;		On entry : 0/0
  5662 ;;		On exit  : 0/0
  5663 ;;		Unchanged: 0/0
  5664 ;; Data sizes:     COMMON   BANK0   BANK1   BANK3   BANK2
  5665 ;;      Params:         0       0       0       0       0
  5666 ;;      Locals:         0      14       0       0       0
  5667 ;;      Temps:          4       0       0       0       0
  5668 ;;      Totals:         4      14       0       0       0
  5669 ;;Total ram usage:       18 bytes
  5670 ;; Hardware stack levels used:    1
  5671 ;; Hardware stack levels required when called:    2
  5672 ;; This function calls:
  5673 ;;		_LCDWriteCharacter
  5674 ;; This function is called by:
  5675 ;;		_main
  5676 ;; This function uses a non-reentrant model
  5677 ;;
  5678                           
  5679                           
  5680                           ;psect for function _String_test
  5681  09A8                     _String_test:	
  5682                           
  5683                           ;Main V4.0.c: 521: char test_string [] = "Tim's String";
  5684                           
  5685                           ;incstack = 0
  5686                           ; Regs used in _String_test: [wreg-fsr0h+status,2+status,0+btemp+1+pclath+cstack]
  5687  09A8  302B               	movlw	String_test@test_string& (0+255)
  5688  09A9  0084               	movwf	4
  5689  09AA  3010               	movlw	low String_test@F1406
  5690  09AB  00F9               	movwf	??_String_test
  5691  09AC  0804               	movf	4,w
  5692  09AD  00FA               	movwf	??_String_test+1
  5693  09AE  300D               	movlw	13
  5694  09AF  00FB               	movwf	??_String_test+2
  5695  09B0                     u1900:	
  5696  09B0  0879               	movf	??_String_test,w
  5697  09B1  0084               	movwf	4
  5698  09B2  1783               	bsf	3,7	;select IRP bank2
  5699  09B3  0800               	movf	0,w
  5700  09B4  00FC               	movwf	??_String_test+3
  5701  09B5  0AF9               	incf	??_String_test,f
  5702  09B6  087A               	movf	??_String_test+1,w
  5703  09B7  0084               	movwf	4
  5704  09B8  1383               	bcf	3,7	;select IRP bank0
  5705  09B9  087C               	movf	??_String_test+3,w
  5706  09BA  0080               	movwf	0
  5707  09BB  0AFA               	incf	??_String_test+1,f
  5708  09BC  0BFB               	decfsz	??_String_test+2,f
  5709  09BD  29B0               	goto	u1900
  5710                           
  5711                           ;Main V4.0.c: 522: char *test_pointer;
  5712                           ;Main V4.0.c: 524: test_pointer = &test_string;
  5713  09BE  302B               	movlw	String_test@test_string& (0+255)
  5714  09BF  00F9               	movwf	??_String_test
  5715  09C0  0879               	movf	??_String_test,w
  5716  09C1  1283               	bcf	3,5	;RP0=0, select bank0
  5717  09C2  1303               	bcf	3,6	;RP1=0, select bank0
  5718  09C3  00B8               	movwf	String_test@test_pointer
  5719  09C4                     l2193:	
  5720                           ;Main V4.0.c: 525: while (*test_pointer != 0){
  5721                           
  5722  09C4  0838               	movf	String_test@test_pointer,w
  5723  09C5  0084               	movwf	4
  5724  09C6  1383               	bcf	3,7	;select IRP bank0
  5725  09C7  0880               	movf	0,f
  5726  09C8  1903               	btfsc	3,2
  5727  09C9  0008               	return
  5728                           
  5729                           ;Main V4.0.c: 526: LCDWriteCharacter(*test_pointer);
  5730  09CA  0838               	movf	String_test@test_pointer,w
  5731  09CB  0084               	movwf	4
  5732  09CC  0800               	movf	0,w
  5733  09CD  120A  158A  239C  120A  158A  	fcall	_LCDWriteCharacter
  5734                           
  5735                           ;Main V4.0.c: 528: test_pointer++;
  5736  09D2  3001               	movlw	1
  5737  09D3  00F9               	movwf	??_String_test
  5738  09D4  0879               	movf	??_String_test,w
  5739  09D5  1283               	bcf	3,5	;RP0=0, select bank0
  5740  09D6  1303               	bcf	3,6	;RP1=0, select bank0
  5741  09D7  07B8               	addwf	String_test@test_pointer,f
  5742  09D8  29C4               	goto	l2193
  5743  09D9                     __end_of_String_test:	
  5744                           
  5745                           	psect	text16
  5746  0B9C                     __ptext16:	
  5747 ;; *************** function _LCDWriteCharacter *****************
  5748 ;; Defined at:
  5749 ;;		line 477 in file "Main V4.0.c"
  5750 ;; Parameters:    Size  Location     Type
  5751 ;;  character       1    wreg     const unsigned char 
  5752 ;; Auto vars:     Size  Location     Type
  5753 ;;  character       1    0[BANK0 ] const unsigned char 
  5754 ;;  after_swap      2    9[BANK0 ] unsigned int 
  5755 ;;  base            2    7[BANK0 ] unsigned int 
  5756 ;;  j               2    5[BANK0 ] unsigned int 
  5757 ;;  i               2    3[BANK0 ] unsigned int 
  5758 ;;  before_swap     2    1[BANK0 ] unsigned int 
  5759 ;; Return value:  Size  Location     Type
  5760 ;;		None               void
  5761 ;; Registers used:
  5762 ;;		wreg, fsr0l, fsr0h, status,2, status,0, btemp+1, pclath, cstack
  5763 ;; Tracked objects:
  5764 ;;		On entry : 0/0
  5765 ;;		On exit  : 0/0
  5766 ;;		Unchanged: 0/0
  5767 ;; Data sizes:     COMMON   BANK0   BANK1   BANK3   BANK2
  5768 ;;      Params:         0       0       0       0       0
  5769 ;;      Locals:         0      11       0       0       0
  5770 ;;      Temps:          2       0       0       0       0
  5771 ;;      Totals:         2      11       0       0       0
  5772 ;;Total ram usage:       13 bytes
  5773 ;; Hardware stack levels used:    1
  5774 ;; Hardware stack levels required when called:    1
  5775 ;; This function calls:
  5776 ;;		___wmul
  5777 ;;		_data_out
  5778 ;; This function is called by:
  5779 ;;		_String_test
  5780 ;;		_char_to_decimal_print
  5781 ;;		_get_temp_from_right_tcs
  5782 ;;		_display_temps_to_screen
  5783 ;; This function uses a non-reentrant model
  5784 ;;
  5785                           
  5786                           
  5787                           ;psect for function _LCDWriteCharacter
  5788  0B9C                     _LCDWriteCharacter:	
  5789                           
  5790                           ;incstack = 0
  5791                           ; Regs used in _LCDWriteCharacter: [wreg-fsr0h+status,2+status,0+btemp+1+pclath+cstack]
  5792                           ;LCDWriteCharacter@character stored from wreg
  5793  0B9C  1283               	bcf	3,5	;RP0=0, select bank0
  5794  0B9D  1303               	bcf	3,6	;RP1=0, select bank0
  5795  0B9E  00A0               	movwf	LCDWriteCharacter@character
  5796                           
  5797                           ;Main V4.0.c: 479: unsigned int base, before_swap, after_swap, i, j;
  5798                           ;Main V4.0.c: 480: base = character - 32;
  5799  0B9F  0820               	movf	LCDWriteCharacter@character,w
  5800  0BA0  3EE0               	addlw	224
  5801  0BA1  00A7               	movwf	LCDWriteCharacter@base
  5802  0BA2  30FF               	movlw	255
  5803  0BA3  1803               	skipnc
  5804  0BA4  3000               	movlw	0
  5805  0BA5  00A8               	movwf	LCDWriteCharacter@base+1
  5806                           
  5807                           ;Main V4.0.c: 481: base *= 3;
  5808  0BA6  3003               	movlw	3
  5809  0BA7  00F1               	movwf	___wmul@multiplier
  5810  0BA8  3000               	movlw	0
  5811  0BA9  00F2               	movwf	___wmul@multiplier+1
  5812  0BAA  0828               	movf	LCDWriteCharacter@base+1,w
  5813  0BAB  01F4               	clrf	___wmul@multiplicand+1
  5814  0BAC  07F4               	addwf	___wmul@multiplicand+1,f
  5815  0BAD  0827               	movf	LCDWriteCharacter@base,w
  5816  0BAE  01F3               	clrf	___wmul@multiplicand
  5817  0BAF  07F3               	addwf	___wmul@multiplicand,f
  5818  0BB0  120A  158A  2105  120A  158A  	fcall	___wmul
  5819  0BB5  0872               	movf	?___wmul+1,w
  5820  0BB6  1283               	bcf	3,5	;RP0=0, select bank0
  5821  0BB7  1303               	bcf	3,6	;RP1=0, select bank0
  5822  0BB8  01A8               	clrf	LCDWriteCharacter@base+1
  5823  0BB9  07A8               	addwf	LCDWriteCharacter@base+1,f
  5824  0BBA  0871               	movf	?___wmul,w
  5825  0BBB  01A7               	clrf	LCDWriteCharacter@base
  5826  0BBC  07A7               	addwf	LCDWriteCharacter@base,f
  5827                           
  5828                           ;Main V4.0.c: 482: after_swap = 0;
  5829  0BBD  01A9               	clrf	LCDWriteCharacter@after_swap
  5830  0BBE  01AA               	clrf	LCDWriteCharacter@after_swap+1
  5831                           
  5832                           ;Main V4.0.c: 483: for (i=0;i<3;i++){
  5833  0BBF  01A3               	clrf	LCDWriteCharacter@i
  5834  0BC0  01A4               	clrf	LCDWriteCharacter@i+1
  5835  0BC1  3000               	movlw	0
  5836  0BC2  0224               	subwf	LCDWriteCharacter@i+1,w
  5837  0BC3  3003               	movlw	3
  5838  0BC4  1903               	skipnz
  5839  0BC5  0223               	subwf	LCDWriteCharacter@i,w
  5840  0BC6  1803               	btfsc	3,0
  5841  0BC7  2C24               	goto	l1887
  5842  0BC8                     l1861:	
  5843                           
  5844                           ;Main V4.0.c: 484: before_swap = fonts[base];
  5845  0BC8  3090               	movlw	high (_fonts| (0+32768))
  5846  0BC9  0728               	addwf	LCDWriteCharacter@base+1,w
  5847  0BCA  00FF               	movwf	127
  5848  0BCB  3012               	movlw	low (_fonts| (0+32768))
  5849  0BCC  0727               	addwf	LCDWriteCharacter@base,w
  5850  0BCD  0084               	movwf	4
  5851  0BCE  1803               	skipnc
  5852  0BCF  0AFF               	incf	127,f
  5853  0BD0  160A  118A  2000  120A  158A  	fcall	stringtab
  5854  0BD5  00F7               	movwf	??_LCDWriteCharacter
  5855  0BD6  01F8               	clrf	??_LCDWriteCharacter+1
  5856  0BD7  0877               	movf	??_LCDWriteCharacter,w
  5857  0BD8  00A1               	movwf	LCDWriteCharacter@before_swap
  5858  0BD9  0878               	movf	??_LCDWriteCharacter+1,w
  5859  0BDA  00A2               	movwf	LCDWriteCharacter@before_swap+1
  5860                           
  5861                           ;Main V4.0.c: 485: for (j=0;j<7;j++){
  5862  0BDB  01A5               	clrf	LCDWriteCharacter@j
  5863  0BDC  01A6               	clrf	LCDWriteCharacter@j+1
  5864  0BDD  3000               	movlw	0
  5865  0BDE  0226               	subwf	LCDWriteCharacter@j+1,w
  5866  0BDF  3007               	movlw	7
  5867  0BE0  1903               	skipnz
  5868  0BE1  0225               	subwf	LCDWriteCharacter@j,w
  5869  0BE2  1803               	btfsc	3,0
  5870  0BE3  2C09               	goto	l1879
  5871  0BE4                     l167:	
  5872                           
  5873                           ;Main V4.0.c: 486: if (before_swap & 1 == 1){
  5874  0BE4  1C21               	btfss	LCDWriteCharacter@before_swap,0
  5875  0BE5  2BEC               	goto	l1871
  5876                           
  5877                           ;Main V4.0.c: 487: after_swap = after_swap | 1;
  5878  0BE6  3001               	movlw	1
  5879  0BE7  0429               	iorwf	LCDWriteCharacter@after_swap,w
  5880  0BE8  00A9               	movwf	LCDWriteCharacter@after_swap
  5881  0BE9  3000               	movlw	0
  5882  0BEA  042A               	iorwf	LCDWriteCharacter@after_swap+1,w
  5883  0BEB  00AA               	movwf	LCDWriteCharacter@after_swap+1
  5884  0BEC                     l1871:	
  5885                           
  5886                           ;Main V4.0.c: 488: }
  5887                           ;Main V4.0.c: 489: before_swap = before_swap >> 1;
  5888  0BEC  0822               	movf	LCDWriteCharacter@before_swap+1,w
  5889  0BED  00F8               	movwf	??_LCDWriteCharacter+1
  5890  0BEE  0821               	movf	LCDWriteCharacter@before_swap,w
  5891  0BEF  00F7               	movwf	??_LCDWriteCharacter
  5892  0BF0  1003               	clrc
  5893  0BF1  0CF8               	rrf	??_LCDWriteCharacter+1,f
  5894  0BF2  0CF7               	rrf	??_LCDWriteCharacter,f
  5895  0BF3  0877               	movf	??_LCDWriteCharacter,w
  5896  0BF4  00A1               	movwf	LCDWriteCharacter@before_swap
  5897  0BF5  0878               	movf	??_LCDWriteCharacter+1,w
  5898  0BF6  00A2               	movwf	LCDWriteCharacter@before_swap+1
  5899                           
  5900                           ;Main V4.0.c: 490: after_swap = after_swap << 1;
  5901  0BF7  1003               	clrc
  5902  0BF8  0D29               	rlf	LCDWriteCharacter@after_swap,w
  5903  0BF9  00A9               	movwf	LCDWriteCharacter@after_swap
  5904  0BFA  0D2A               	rlf	LCDWriteCharacter@after_swap+1,w
  5905  0BFB  00AA               	movwf	LCDWriteCharacter@after_swap+1
  5906  0BFC  3001               	movlw	1
  5907  0BFD  07A5               	addwf	LCDWriteCharacter@j,f
  5908  0BFE  1803               	skipnc
  5909  0BFF  0AA6               	incf	LCDWriteCharacter@j+1,f
  5910  0C00  3000               	movlw	0
  5911  0C01  07A6               	addwf	LCDWriteCharacter@j+1,f
  5912  0C02  3000               	movlw	0
  5913  0C03  0226               	subwf	LCDWriteCharacter@j+1,w
  5914  0C04  3007               	movlw	7
  5915  0C05  1903               	skipnz
  5916  0C06  0225               	subwf	LCDWriteCharacter@j,w
  5917  0C07  1C03               	skipc
  5918  0C08  2BE4               	goto	l167
  5919  0C09                     l1879:	
  5920                           
  5921                           ;Main V4.0.c: 491: }
  5922                           ;Main V4.0.c: 492: data_out(after_swap);
  5923  0C09  0829               	movf	LCDWriteCharacter@after_swap,w
  5924  0C0A  120A  158A  20F1  120A  158A  	fcall	_data_out
  5925                           
  5926                           ;Main V4.0.c: 493: base++;
  5927  0C0F  3001               	movlw	1
  5928  0C10  1283               	bcf	3,5	;RP0=0, select bank0
  5929  0C11  1303               	bcf	3,6	;RP1=0, select bank0
  5930  0C12  07A7               	addwf	LCDWriteCharacter@base,f
  5931  0C13  1803               	skipnc
  5932  0C14  0AA8               	incf	LCDWriteCharacter@base+1,f
  5933  0C15  3000               	movlw	0
  5934  0C16  07A8               	addwf	LCDWriteCharacter@base+1,f
  5935  0C17  3001               	movlw	1
  5936  0C18  07A3               	addwf	LCDWriteCharacter@i,f
  5937  0C19  1803               	skipnc
  5938  0C1A  0AA4               	incf	LCDWriteCharacter@i+1,f
  5939  0C1B  3000               	movlw	0
  5940  0C1C  07A4               	addwf	LCDWriteCharacter@i+1,f
  5941  0C1D  3000               	movlw	0
  5942  0C1E  0224               	subwf	LCDWriteCharacter@i+1,w
  5943  0C1F  3003               	movlw	3
  5944  0C20  1903               	skipnz
  5945  0C21  0223               	subwf	LCDWriteCharacter@i,w
  5946  0C22  1C03               	skipc
  5947  0C23  2BC8               	goto	l1861
  5948  0C24                     l1887:	
  5949                           
  5950                           ;Main V4.0.c: 494: }
  5951                           ;Main V4.0.c: 495: data_out(0x00);
  5952  0C24  3000               	movlw	0
  5953  0C25  120A  158A  20F1   	fcall	_data_out
  5954  0C28  0008               	return
  5955  0C29                     __end_of_LCDWriteCharacter:	
  5956                           
  5957                           	psect	text17
  5958  08F1                     __ptext17:	
  5959 ;; *************** function _data_out *****************
  5960 ;; Defined at:
  5961 ;;		line 74 in file "Main V4.0.c"
  5962 ;; Parameters:    Size  Location     Type
  5963 ;;  i               1    wreg     unsigned char 
  5964 ;; Auto vars:     Size  Location     Type
  5965 ;;  i               1    2[COMMON] unsigned char 
  5966 ;;  n               2    0        unsigned int 
  5967 ;; Return value:  Size  Location     Type
  5968 ;;		None               void
  5969 ;; Registers used:
  5970 ;;		wreg
  5971 ;; Tracked objects:
  5972 ;;		On entry : 0/0
  5973 ;;		On exit  : 0/0
  5974 ;;		Unchanged: 0/0
  5975 ;; Data sizes:     COMMON   BANK0   BANK1   BANK3   BANK2
  5976 ;;      Params:         0       0       0       0       0
  5977 ;;      Locals:         1       0       0       0       0
  5978 ;;      Temps:          2       0       0       0       0
  5979 ;;      Totals:         3       0       0       0       0
  5980 ;;Total ram usage:        3 bytes
  5981 ;; Hardware stack levels used:    1
  5982 ;; This function calls:
  5983 ;;		Nothing
  5984 ;; This function is called by:
  5985 ;;		_blank_image
  5986 ;;		_LCDWriteCharacter
  5987 ;;		_test_image
  5988 ;;		_test_image_page
  5989 ;;		_image_1
  5990 ;;		_moving_bar
  5991 ;;		_increasing_bar
  5992 ;;		_eating_bar
  5993 ;;		_pattern_bar
  5994 ;;		_dot
  5995 ;; This function uses a non-reentrant model
  5996 ;;
  5997                           
  5998                           
  5999                           ;psect for function _data_out
  6000  08F1                     _data_out:	
  6001                           
  6002                           ;incstack = 0
  6003                           ; Regs used in _data_out: [wreg]
  6004                           ;data_out@i stored from wreg
  6005  08F1  00F3               	movwf	data_out@i
  6006                           
  6007                           ;Main V4.0.c: 75: unsigned int n;
  6008                           ;Main V4.0.c: 76: RC2 = 0;
  6009  08F2  1283               	bcf	3,5	;RP0=0, select bank0
  6010  08F3  1303               	bcf	3,6	;RP1=0, select bank0
  6011  08F4  1107               	bcf	7,2	;volatile
  6012                           
  6013                           ;Main V4.0.c: 77: RC0 = 1;
  6014  08F5  1407               	bsf	7,0	;volatile
  6015                           
  6016                           ;Main V4.0.c: 78: SSPBUF = i;
  6017  08F6  0873               	movf	data_out@i,w
  6018  08F7  0093               	movwf	19	;volatile
  6019                           
  6020                           ;Main V4.0.c: 79: _delay((unsigned long)((1000)*(16000000/4000000.0)));
  6021  08F8  3006               	movlw	6
  6022  08F9  00F2               	movwf	??_data_out+1
  6023  08FA  3030               	movlw	48
  6024  08FB  00F1               	movwf	??_data_out
  6025  08FC                     u2717:	
  6026  08FC  0BF1               	decfsz	??_data_out,f
  6027  08FD  28FC               	goto	u2717
  6028  08FE  0BF2               	decfsz	??_data_out+1,f
  6029  08FF  28FC               	goto	u2717
  6030  0900  0000               	nop
  6031                           
  6032                           ;Main V4.0.c: 80: RC2 = 1;
  6033  0901  1283               	bcf	3,5	;RP0=0, select bank0
  6034  0902  1303               	bcf	3,6	;RP1=0, select bank0
  6035  0903  1507               	bsf	7,2	;volatile
  6036  0904  0008               	return
  6037  0905                     __end_of_data_out:	
  6038                           
  6039                           	psect	text18
  6040  0905                     __ptext18:	
  6041 ;; *************** function ___wmul *****************
  6042 ;; Defined at:
  6043 ;;		line 15 in file "C:\Program Files (x86)\Microchip\xc8\v1.32\sources\common\Umul16.c"
  6044 ;; Parameters:    Size  Location     Type
  6045 ;;  multiplier      2    0[COMMON] unsigned int 
  6046 ;;  multiplicand    2    2[COMMON] unsigned int 
  6047 ;; Auto vars:     Size  Location     Type
  6048 ;;  product         2    4[COMMON] unsigned int 
  6049 ;; Return value:  Size  Location     Type
  6050 ;;                  2    0[COMMON] unsigned int 
  6051 ;; Registers used:
  6052 ;;		wreg, status,2, status,0
  6053 ;; Tracked objects:
  6054 ;;		On entry : 0/0
  6055 ;;		On exit  : 0/0
  6056 ;;		Unchanged: 0/0
  6057 ;; Data sizes:     COMMON   BANK0   BANK1   BANK3   BANK2
  6058 ;;      Params:         4       0       0       0       0
  6059 ;;      Locals:         2       0       0       0       0
  6060 ;;      Temps:          0       0       0       0       0
  6061 ;;      Totals:         6       0       0       0       0
  6062 ;;Total ram usage:        6 bytes
  6063 ;; Hardware stack levels used:    1
  6064 ;; This function calls:
  6065 ;;		Nothing
  6066 ;; This function is called by:
  6067 ;;		_LCDWriteCharacter
  6068 ;; This function uses a non-reentrant model
  6069 ;;
  6070                           
  6071                           
  6072                           ;psect for function ___wmul
  6073  0905                     ___wmul:	
  6074                           
  6075                           ;incstack = 0
  6076                           ; Regs used in ___wmul: [wreg+status,2+status,0]
  6077  0905  01F5               	clrf	___wmul@product
  6078  0906  01F6               	clrf	___wmul@product+1
  6079  0907                     l1833:	
  6080  0907  1C71               	btfss	___wmul@multiplier,0
  6081  0908  290F               	goto	l328
  6082  0909  0873               	movf	___wmul@multiplicand,w
  6083  090A  07F5               	addwf	___wmul@product,f
  6084  090B  1803               	skipnc
  6085  090C  0AF6               	incf	___wmul@product+1,f
  6086  090D  0874               	movf	___wmul@multiplicand+1,w
  6087  090E  07F6               	addwf	___wmul@product+1,f
  6088  090F                     l328:	
  6089  090F  3001               	movlw	1
  6090  0910                     u1305:	
  6091  0910  1003               	clrc
  6092  0911  0DF3               	rlf	___wmul@multiplicand,f
  6093  0912  0DF4               	rlf	___wmul@multiplicand+1,f
  6094  0913  3EFF               	addlw	-1
  6095  0914  1D03               	skipz
  6096  0915  2910               	goto	u1305
  6097  0916  3001               	movlw	1
  6098  0917                     u1315:	
  6099  0917  1003               	clrc
  6100  0918  0CF2               	rrf	___wmul@multiplier+1,f
  6101  0919  0CF1               	rrf	___wmul@multiplier,f
  6102  091A  3EFF               	addlw	-1
  6103  091B  1D03               	skipz
  6104  091C  2917               	goto	u1315
  6105  091D  0872               	movf	___wmul@multiplier+1,w
  6106  091E  0471               	iorwf	___wmul@multiplier,w
  6107  091F  1D03               	skipz
  6108  0920  2907               	goto	l1833
  6109  0921  0876               	movf	___wmul@product+1,w
  6110  0922  01F2               	clrf	?___wmul+1
  6111  0923  07F2               	addwf	?___wmul+1,f
  6112  0924  0875               	movf	___wmul@product,w
  6113  0925  01F1               	clrf	?___wmul
  6114  0926  07F1               	addwf	?___wmul,f
  6115  0927  0008               	return
  6116  0928                     __end_of___wmul:	
  6117                           
  6118                           	psect	text19
  6119  0A12                     __ptext19:	
  6120 ;; *************** function _SPI_DATA_HANDLING *****************
  6121 ;; Defined at:
  6122 ;;		line 554 in file "Main V4.0.c"
  6123 ;; Parameters:    Size  Location     Type
  6124 ;;  data_pointer    1    wreg     PTR unsigned char 
  6125 ;;		 -> main@spi_data(22), 
  6126 ;; Auto vars:     Size  Location     Type
  6127 ;;  data_pointer    1   12[COMMON] PTR unsigned char 
  6128 ;;		 -> main@spi_data(22), 
  6129 ;;  offset_point    2   10[COMMON] PTR unsigned char 
  6130 ;;		 -> RAM(512), 
  6131 ;;  address         1    9[COMMON] unsigned char 
  6132 ;;  offset          1    8[COMMON] unsigned char 
  6133 ;;  byte_receive    1    7[COMMON] unsigned char 
  6134 ;;  byte_to_send    1    6[COMMON] unsigned char 
  6135 ;; Return value:  Size  Location     Type
  6136 ;;		None               void
  6137 ;; Registers used:
  6138 ;;		wreg, fsr0l, fsr0h, status,2, status,0, pclath, cstack
  6139 ;; Tracked objects:
  6140 ;;		On entry : 0/0
  6141 ;;		On exit  : 0/0
  6142 ;;		Unchanged: 0/0
  6143 ;; Data sizes:     COMMON   BANK0   BANK1   BANK3   BANK2
  6144 ;;      Params:         0       0       0       0       0
  6145 ;;      Locals:         7       0       0       0       0
  6146 ;;      Temps:          3       0       0       0       0
  6147 ;;      Totals:        10       0       0       0       0
  6148 ;;Total ram usage:       10 bytes
  6149 ;; Hardware stack levels used:    1
  6150 ;; Hardware stack levels required when called:    1
  6151 ;; This function calls:
  6152 ;;		_SPI_TRANSFER
  6153 ;; This function is called by:
  6154 ;;		_main
  6155 ;; This function uses a non-reentrant model
  6156 ;;
  6157                           
  6158                           
  6159                           ;psect for function _SPI_DATA_HANDLING
  6160  0A12                     _SPI_DATA_HANDLING:	
  6161                           
  6162                           ;incstack = 0
  6163                           ; Regs used in _SPI_DATA_HANDLING: [wreg-fsr0h+status,2+status,0+pclath+cstack]
  6164                           ;SPI_DATA_HANDLING@data_pointer stored from wreg
  6165  0A12  00FD               	movwf	SPI_DATA_HANDLING@data_pointer
  6166                           
  6167                           ;Main V4.0.c: 555: char byte_to_send;
  6168                           ;Main V4.0.c: 556: char byte_received;
  6169                           ;Main V4.0.c: 557: char offset;
  6170                           ;Main V4.0.c: 558: char address;
  6171                           ;Main V4.0.c: 559: char *offset_pointer;
  6172                           ;Main V4.0.c: 560: if (*data_pointer > 10){
  6173  0A13  087D               	movf	SPI_DATA_HANDLING@data_pointer,w
  6174  0A14  0084               	movwf	4
  6175  0A15  300B               	movlw	11
  6176  0A16  1383               	bcf	3,7	;select IRP bank0
  6177  0A17  0200               	subwf	0,w
  6178  0A18  1C03               	skipc
  6179  0A19  2A29               	goto	l2201
  6180                           
  6181                           ;Main V4.0.c: 561: *data_pointer = 0;
  6182  0A1A  087D               	movf	SPI_DATA_HANDLING@data_pointer,w
  6183  0A1B  0084               	movwf	4
  6184  0A1C  0180               	clrf	0
  6185                           
  6186                           ;Main V4.0.c: 563: _delay(10000000);
  6187  0A1D  3033               	movlw	51
  6188  0A1E  00F6               	movwf	??_SPI_DATA_HANDLING+2
  6189  0A1F  30BC               	movlw	188
  6190  0A20  00F5               	movwf	??_SPI_DATA_HANDLING+1
  6191  0A21  3010               	movlw	16
  6192  0A22  00F4               	movwf	??_SPI_DATA_HANDLING
  6193  0A23                     u2727:	
  6194  0A23  0BF4               	decfsz	??_SPI_DATA_HANDLING,f
  6195  0A24  2A23               	goto	u2727
  6196  0A25  0BF5               	decfsz	??_SPI_DATA_HANDLING+1,f
  6197  0A26  2A23               	goto	u2727
  6198  0A27  0BF6               	decfsz	??_SPI_DATA_HANDLING+2,f
  6199  0A28  2A23               	goto	u2727
  6200  0A29                     l2201:	
  6201                           
  6202                           ;Main V4.0.c: 564: }
  6203                           ;Main V4.0.c: 565: if (*data_pointer > 0){
  6204  0A29  087D               	movf	SPI_DATA_HANDLING@data_pointer,w
  6205  0A2A  0084               	movwf	4
  6206  0A2B  1383               	bcf	3,7	;select IRP bank0
  6207  0A2C  0880               	movf	0,f
  6208  0A2D  1903               	skipnz
  6209  0A2E  0008               	return
  6210                           
  6211                           ;Main V4.0.c: 566: offset = *data_pointer;
  6212  0A2F  087D               	movf	SPI_DATA_HANDLING@data_pointer,w
  6213  0A30  0084               	movwf	4
  6214  0A31  0800               	movf	0,w
  6215  0A32  00F4               	movwf	??_SPI_DATA_HANDLING
  6216  0A33  0874               	movf	??_SPI_DATA_HANDLING,w
  6217  0A34  00F9               	movwf	SPI_DATA_HANDLING@offset
  6218                           
  6219                           ;Main V4.0.c: 567: address = data_pointer + offset;
  6220  0A35  0879               	movf	SPI_DATA_HANDLING@offset,w
  6221  0A36  077D               	addwf	SPI_DATA_HANDLING@data_pointer,w
  6222  0A37  00F4               	movwf	??_SPI_DATA_HANDLING
  6223  0A38  0874               	movf	??_SPI_DATA_HANDLING,w
  6224  0A39  00FA               	movwf	SPI_DATA_HANDLING@address
  6225                           
  6226                           ;Main V4.0.c: 568: offset_pointer = address;
  6227  0A3A  087A               	movf	SPI_DATA_HANDLING@address,w
  6228  0A3B  00F4               	movwf	??_SPI_DATA_HANDLING
  6229  0A3C  01F5               	clrf	??_SPI_DATA_HANDLING+1
  6230  0A3D  0874               	movf	??_SPI_DATA_HANDLING,w
  6231  0A3E  00FB               	movwf	SPI_DATA_HANDLING@offset_pointer
  6232  0A3F  0875               	movf	??_SPI_DATA_HANDLING+1,w
  6233  0A40  00FC               	movwf	SPI_DATA_HANDLING@offset_pointer+1
  6234                           
  6235                           ;Main V4.0.c: 569: byte_to_send = *offset_pointer;
  6236  0A41  087B               	movf	SPI_DATA_HANDLING@offset_pointer,w
  6237  0A42  0084               	movwf	4
  6238  0A43  1783               	bsf	3,7
  6239  0A44  1C7C               	btfss	SPI_DATA_HANDLING@offset_pointer+1,0
  6240  0A45  1383               	bcf	3,7
  6241  0A46  0800               	movf	0,w
  6242  0A47  00F4               	movwf	??_SPI_DATA_HANDLING
  6243  0A48  0874               	movf	??_SPI_DATA_HANDLING,w
  6244  0A49  00F7               	movwf	SPI_DATA_HANDLING@byte_to_send
  6245                           
  6246                           ;Main V4.0.c: 570: byte_received = SPI_TRANSFER(byte_to_send);
  6247  0A4A  0877               	movf	SPI_DATA_HANDLING@byte_to_send,w
  6248  0A4B  120A  158A  2178   	fcall	_SPI_TRANSFER
  6249  0A4E  00F4               	movwf	??_SPI_DATA_HANDLING
  6250  0A4F  0874               	movf	??_SPI_DATA_HANDLING,w
  6251  0A50  00F8               	movwf	SPI_DATA_HANDLING@byte_received
  6252                           
  6253                           ;Main V4.0.c: 571: offset_pointer = offset_pointer + 10;
  6254  0A51  087B               	movf	SPI_DATA_HANDLING@offset_pointer,w
  6255  0A52  3E0A               	addlw	10
  6256  0A53  00FB               	movwf	SPI_DATA_HANDLING@offset_pointer
  6257  0A54  087C               	movf	SPI_DATA_HANDLING@offset_pointer+1,w
  6258  0A55  1803               	skipnc
  6259  0A56  3E01               	addlw	1
  6260  0A57  3E00               	addlw	0
  6261  0A58  00FC               	movwf	SPI_DATA_HANDLING@offset_pointer+1
  6262                           
  6263                           ;Main V4.0.c: 572: *offset_pointer = byte_received;
  6264  0A59  087B               	movf	SPI_DATA_HANDLING@offset_pointer,w
  6265  0A5A  0084               	movwf	4
  6266  0A5B  1383               	bcf	3,7
  6267  0A5C  187C               	btfsc	SPI_DATA_HANDLING@offset_pointer+1,0
  6268  0A5D  1783               	bsf	3,7
  6269  0A5E  0878               	movf	SPI_DATA_HANDLING@byte_received,w
  6270  0A5F  0080               	movwf	0
  6271                           
  6272                           ;Main V4.0.c: 573: *data_pointer = *data_pointer + 1;
  6273  0A60  087D               	movf	SPI_DATA_HANDLING@data_pointer,w
  6274  0A61  0084               	movwf	4
  6275  0A62  1383               	bcf	3,7	;select IRP bank0
  6276  0A63  0800               	movf	0,w
  6277  0A64  3E01               	addlw	1
  6278  0A65  00F4               	movwf	??_SPI_DATA_HANDLING
  6279  0A66  087D               	movf	SPI_DATA_HANDLING@data_pointer,w
  6280  0A67  0084               	movwf	4
  6281  0A68  0874               	movf	??_SPI_DATA_HANDLING,w
  6282  0A69  0080               	movwf	0
  6283  0A6A  0008               	return
  6284  0A6B                     __end_of_SPI_DATA_HANDLING:	
  6285                           
  6286                           	psect	text20
  6287  0978                     __ptext20:	
  6288 ;; *************** function _SPI_TRANSFER *****************
  6289 ;; Defined at:
  6290 ;;		line 532 in file "Main V4.0.c"
  6291 ;; Parameters:    Size  Location     Type
  6292 ;;  byte_to_send    1    wreg     unsigned char 
  6293 ;; Auto vars:     Size  Location     Type
  6294 ;;  byte_to_send    1    2[COMMON] unsigned char 
  6295 ;;  byte_recieve    1    1[COMMON] unsigned char 
  6296 ;; Return value:  Size  Location     Type
  6297 ;;                  1    wreg      unsigned char 
  6298 ;; Registers used:
  6299 ;;		wreg
  6300 ;; Tracked objects:
  6301 ;;		On entry : 0/0
  6302 ;;		On exit  : 0/0
  6303 ;;		Unchanged: 0/0
  6304 ;; Data sizes:     COMMON   BANK0   BANK1   BANK3   BANK2
  6305 ;;      Params:         0       0       0       0       0
  6306 ;;      Locals:         2       0       0       0       0
  6307 ;;      Temps:          1       0       0       0       0
  6308 ;;      Totals:         3       0       0       0       0
  6309 ;;Total ram usage:        3 bytes
  6310 ;; Hardware stack levels used:    1
  6311 ;; This function calls:
  6312 ;;		Nothing
  6313 ;; This function is called by:
  6314 ;;		_SPI_DATA_HANDLING
  6315 ;;		_get_temp_from_right_tcs
  6316 ;; This function uses a non-reentrant model
  6317 ;;
  6318                           
  6319                           
  6320                           ;psect for function _SPI_TRANSFER
  6321  0978                     _SPI_TRANSFER:	
  6322                           
  6323                           ;incstack = 0
  6324                           ; Regs used in _SPI_TRANSFER: [wreg]
  6325                           ;SPI_TRANSFER@byte_to_send stored from wreg
  6326  0978  00F3               	movwf	SPI_TRANSFER@byte_to_send
  6327                           
  6328                           ;Main V4.0.c: 533: char byte_recieved;
  6329                           ;Main V4.0.c: 534: byte_recieved = SSPBUF;
  6330  0979  1283               	bcf	3,5	;RP0=0, select bank0
  6331  097A  1303               	bcf	3,6	;RP1=0, select bank0
  6332  097B  0813               	movf	19,w	;volatile
  6333  097C  00F1               	movwf	??_SPI_TRANSFER
  6334  097D  0871               	movf	??_SPI_TRANSFER,w
  6335  097E  00F2               	movwf	SPI_TRANSFER@byte_recieved
  6336                           
  6337                           ;Main V4.0.c: 535: SSPBUF = byte_to_send;
  6338  097F  0873               	movf	SPI_TRANSFER@byte_to_send,w
  6339  0980  0093               	movwf	19	;volatile
  6340                           
  6341                           ;Main V4.0.c: 536: _delay((unsigned long)((35)*(16000000/4000000.0)));
  6342  0981  302E               	movlw	46
  6343  0982  00F1               	movwf	??_SPI_TRANSFER
  6344  0983                     u2737:	
  6345  0983  0BF1               	decfsz	??_SPI_TRANSFER,f
  6346  0984  2983               	goto	u2737
  6347  0985  0000               	nop
  6348                           
  6349                           ;Main V4.0.c: 538: _delay((unsigned long)((5)*(16000000/4000000.0)));
  6350  0986  3006               	movlw	6
  6351  0987  00F1               	movwf	??_SPI_TRANSFER
  6352  0988                     u2747:	
  6353  0988  0BF1               	decfsz	??_SPI_TRANSFER,f
  6354  0989  2988               	goto	u2747
  6355  098A  0000               	nop
  6356  098B                     l1961:	
  6357                           ;Main V4.0.c: 539: while (WCOL == 1){
  6358                           
  6359  098B  1283               	bcf	3,5	;RP0=0, select bank0
  6360  098C  1303               	bcf	3,6	;RP1=0, select bank0
  6361  098D  1F94               	btfss	20,7	;volatile
  6362  098E  299F               	goto	l1963
  6363                           
  6364                           ;Main V4.0.c: 540: WCOL = 0;
  6365  098F  1394               	bcf	20,7	;volatile
  6366                           
  6367                           ;Main V4.0.c: 541: _delay((unsigned long)((5)*(16000000/4000000.0)));
  6368  0990  3006               	movlw	6
  6369  0991  00F1               	movwf	??_SPI_TRANSFER
  6370  0992                     u2757:	
  6371  0992  0BF1               	decfsz	??_SPI_TRANSFER,f
  6372  0993  2992               	goto	u2757
  6373  0994  0000               	nop
  6374                           
  6375                           ;Main V4.0.c: 542: SSPBUF = byte_to_send;
  6376  0995  0873               	movf	SPI_TRANSFER@byte_to_send,w
  6377  0996  1283               	bcf	3,5	;RP0=0, select bank0
  6378  0997  1303               	bcf	3,6	;RP1=0, select bank0
  6379  0998  0093               	movwf	19	;volatile
  6380                           
  6381                           ;Main V4.0.c: 543: _delay((unsigned long)((5)*(16000000/4000000.0)));
  6382  0999  3006               	movlw	6
  6383  099A  00F1               	movwf	??_SPI_TRANSFER
  6384  099B                     u2767:	
  6385  099B  0BF1               	decfsz	??_SPI_TRANSFER,f
  6386  099C  299B               	goto	u2767
  6387  099D  0000               	nop
  6388  099E  298B               	goto	l1961
  6389  099F                     l1963:	
  6390                           
  6391                           ;Main V4.0.c: 544: }
  6392                           ;Main V4.0.c: 545: byte_recieved = SSPBUF;
  6393  099F  0813               	movf	19,w	;volatile
  6394  09A0  00F1               	movwf	??_SPI_TRANSFER
  6395  09A1  0871               	movf	??_SPI_TRANSFER,w
  6396  09A2  00F2               	movwf	SPI_TRANSFER@byte_recieved
  6397                           
  6398                           ;Main V4.0.c: 546: BF = 0;
  6399  09A3  1683               	bsf	3,5	;RP0=1, select bank1
  6400  09A4  1303               	bcf	3,6	;RP1=0, select bank1
  6401  09A5  1014               	bcf	20,0	;volatile
  6402                           
  6403                           ;Main V4.0.c: 547: return byte_recieved;
  6404  09A6  0872               	movf	SPI_TRANSFER@byte_recieved,w
  6405  09A7  0008               	return
  6406  09A8                     __end_of_SPI_TRANSFER:	
  6407                           
  6408                           	psect	text21
  6409  094B                     __ptext21:	
  6410 ;; *************** function _Init *****************
  6411 ;; Defined at:
  6412 ;;		line 22 in file "Main V4.0.c"
  6413 ;; Parameters:    Size  Location     Type
  6414 ;;		None
  6415 ;; Auto vars:     Size  Location     Type
  6416 ;;		None
  6417 ;; Return value:  Size  Location     Type
  6418 ;;		None               void
  6419 ;; Registers used:
  6420 ;;		wreg, status,2
  6421 ;; Tracked objects:
  6422 ;;		On entry : 0/0
  6423 ;;		On exit  : 0/0
  6424 ;;		Unchanged: 0/0
  6425 ;; Data sizes:     COMMON   BANK0   BANK1   BANK3   BANK2
  6426 ;;      Params:         0       0       0       0       0
  6427 ;;      Locals:         0       0       0       0       0
  6428 ;;      Temps:          2       0       0       0       0
  6429 ;;      Totals:         2       0       0       0       0
  6430 ;;Total ram usage:        2 bytes
  6431 ;; Hardware stack levels used:    1
  6432 ;; This function calls:
  6433 ;;		Nothing
  6434 ;; This function is called by:
  6435 ;;		_main
  6436 ;; This function uses a non-reentrant model
  6437 ;;
  6438                           
  6439                           
  6440                           ;psect for function _Init
  6441  094B                     _Init:	
  6442                           
  6443                           ;Main V4.0.c: 27: TRISA = 0x00;
  6444                           
  6445                           ;incstack = 0
  6446                           ; Regs used in _Init: [wreg+status,2]
  6447  094B  1683               	bsf	3,5	;RP0=1, select bank1
  6448  094C  1303               	bcf	3,6	;RP1=0, select bank1
  6449  094D  0185               	clrf	5	;volatile
  6450                           
  6451                           ;Main V4.0.c: 28: ANSELA = 0x00;
  6452  094E  1683               	bsf	3,5	;RP0=1, select bank3
  6453  094F  1703               	bsf	3,6	;RP1=1, select bank3
  6454  0950  0185               	clrf	5	;volatile
  6455                           
  6456                           ;Main V4.0.c: 29: PORTA = 0xff;
  6457  0951  30FF               	movlw	255
  6458  0952  1283               	bcf	3,5	;RP0=0, select bank0
  6459  0953  1303               	bcf	3,6	;RP1=0, select bank0
  6460  0954  0085               	movwf	5	;volatile
  6461                           
  6462                           ;Main V4.0.c: 30: TRISA4 = 1;
  6463  0955  1683               	bsf	3,5	;RP0=1, select bank1
  6464  0956  1303               	bcf	3,6	;RP1=0, select bank1
  6465  0957  1605               	bsf	5,4	;volatile
  6466                           
  6467                           ;Main V4.0.c: 31: TRISA3 = 1;
  6468  0958  1585               	bsf	5,3	;volatile
  6469                           
  6470                           ;Main V4.0.c: 33: TRISB = 0x00;
  6471  0959  0186               	clrf	6	;volatile
  6472                           
  6473                           ;Main V4.0.c: 34: ANSELB = 0x00;
  6474  095A  1683               	bsf	3,5	;RP0=1, select bank3
  6475  095B  1703               	bsf	3,6	;RP1=1, select bank3
  6476  095C  0186               	clrf	6	;volatile
  6477                           
  6478                           ;Main V4.0.c: 35: PORTB = 0x00;
  6479  095D  1283               	bcf	3,5	;RP0=0, select bank0
  6480  095E  1303               	bcf	3,6	;RP1=0, select bank0
  6481  095F  0186               	clrf	6	;volatile
  6482                           
  6483                           ;Main V4.0.c: 37: TRISC = 0x00;
  6484  0960  1683               	bsf	3,5	;RP0=1, select bank1
  6485  0961  1303               	bcf	3,6	;RP1=0, select bank1
  6486  0962  0187               	clrf	7	;volatile
  6487                           
  6488                           ;Main V4.0.c: 38: TRISC4 = 1;
  6489  0963  1607               	bsf	7,4	;volatile
  6490                           
  6491                           ;Main V4.0.c: 40: PORTC = 0x00;
  6492  0964  1283               	bcf	3,5	;RP0=0, select bank0
  6493  0965  1303               	bcf	3,6	;RP1=0, select bank0
  6494  0966  0187               	clrf	7	;volatile
  6495                           
  6496                           ;Main V4.0.c: 41: IRCF1 = 0;
  6497  0967  1683               	bsf	3,5	;RP0=1, select bank1
  6498  0968  1303               	bcf	3,6	;RP1=0, select bank1
  6499  0969  1290               	bcf	16,5	;volatile
  6500                           
  6501                           ;Main V4.0.c: 42: IRCF0 = 0;
  6502  096A  1210               	bcf	16,4	;volatile
  6503                           
  6504                           ;Main V4.0.c: 46: RC3 = 1;
  6505  096B  1283               	bcf	3,5	;RP0=0, select bank0
  6506  096C  1303               	bcf	3,6	;RP1=0, select bank0
  6507  096D  1587               	bsf	7,3	;volatile
  6508                           
  6509                           ;Main V4.0.c: 47: _delay(2000);
  6510  096E  3003               	movlw	3
  6511  096F  00F2               	movwf	??_Init+1
  6512  0970  3097               	movlw	151
  6513  0971  00F1               	movwf	??_Init
  6514  0972                     u2777:	
  6515  0972  0BF1               	decfsz	??_Init,f
  6516  0973  2972               	goto	u2777
  6517  0974  0BF2               	decfsz	??_Init+1,f
  6518  0975  2972               	goto	u2777
  6519  0976  2977               	nop2
  6520  0977  0008               	return
  6521  0978                     __end_of_Init:	
  6522  007E                     btemp	set	126	;btemp
  6523  007E                     wtemp	set	126
  6524  007E                     wtemp0	set	126
  6525  0080                     wtemp1	set	128
  6526  0082                     wtemp2	set	130
  6527  0084                     wtemp3	set	132
  6528  0086                     wtemp4	set	134
  6529  0088                     wtemp5	set	136
  6530  007F                     wtemp6	set	127
  6531  007E                     ttemp	set	126
  6532  007E                     ttemp0	set	126
  6533  0081                     ttemp1	set	129
  6534  0084                     ttemp2	set	132
  6535  0087                     ttemp3	set	135
  6536  007F                     ttemp4	set	127
  6537  007E                     ltemp	set	126
  6538  007E                     ltemp0	set	126
  6539  0082                     ltemp1	set	130
  6540  0086                     ltemp2	set	134
  6541  0080                     ltemp3	set	128


Data Sizes:
    Strings     0
    Constant    303
    Data        75
    BSS         72
    Persistent  0
    Stack       0

Auto Spaces:
    Space          Size  Autos    Used
    COMMON           13     13      13
    BANK0            80     70      76
    BANK1            80     78      78
    BANK3            85      0      84
    BANK2            96      0      57

Pointer List with Targets:

    main@data_pointer	PTR unsigned char  size(1) Largest target is 22
		 -> main@spi_data(BANK0[22]), 

    move_temp_to_send@data_pointer	PTR unsigned char  size(1) Largest target is 22
		 -> main@spi_data(BANK0[22]), 

    move_temp_to_send@reg	PTR unsigned char  size(1) Largest target is 22
		 -> main@spi_data(BANK0[22]), NULL(NULL[0]), 

    display_temps_to_screen@fault_string_pointer	PTR unsigned char  size(1) Largest target is 7
		 -> display_temps_to_screen@fault_string(BANK1[7]), 

    display_temps_to_screen@shortgnd_string_pointer	PTR unsigned char  size(1) Largest target is 11
		 -> display_temps_to_screen@shortgnd_string(BANK1[11]), 

    display_temps_to_screen@shortvcc_string_pointer	PTR unsigned char  size(1) Largest target is 11
		 -> display_temps_to_screen@shortvcc_string(BANK1[11]), 

    display_temps_to_screen@open_string_pointer	PTR unsigned char  size(1) Largest target is 6
		 -> display_temps_to_screen@open_string(BANK1[6]), 

    display_temps_to_screen@celsius_string_pointer	PTR unsigned char  size(1) Largest target is 9
		 -> display_temps_to_screen@celsius_string(BANK1[9]), 

    display_temps_to_screen@sensor_three_string_pointer	PTR unsigned char  size(1) Largest target is 6
		 -> display_temps_to_screen@sensor_three_string(BANK1[6]), 

    display_temps_to_screen@sensor_two_string_pointer	PTR unsigned char  size(1) Largest target is 6
		 -> display_temps_to_screen@sensor_two_string(BANK1[6]), 

    display_temps_to_screen@sensor_one_string_pointer	PTR unsigned char  size(1) Largest target is 6
		 -> display_temps_to_screen@sensor_one_string(BANK1[6]), 

    SPI_DATA_HANDLING@offset_pointer	PTR unsigned char  size(2) Largest target is 512
		 -> RAM(DATA[512]), 

    SPI_DATA_HANDLING@data_pointer	PTR unsigned char  size(1) Largest target is 22
		 -> main@spi_data(BANK0[22]), 

    String_test@test_pointer	PTR unsigned char  size(1) Largest target is 13
		 -> String_test@test_string(BANK0[13]), 

    location@position	PTR int  size(1) Largest target is 4
		 -> main@position(BANK0[4]), display_temps_to_screen@position(BANK1[4]), get_temp_from_right_tcs@position(BANK0[4]), 


Critical Paths under _main in COMMON

    _main->_SPI_DATA_HANDLING
    _main->_move_temp_to_send
    _move_temp_to_send->___bmul
    _get_temp_from_right_tcs->_char_to_decimal_print
    _display_temps_to_screen->___awtoft
    _location->_comm_out
    _char_to_decimal_print->_LCDWriteCharacter
    ___fttol->___awtoft
    ___ftmul->___awtoft
    ___awtoft->___ftpack
    _blank_image->_comm_out
    _blank_image->_data_out
    _String_test->_LCDWriteCharacter
    _LCDWriteCharacter->___wmul
    _SPI_DATA_HANDLING->_SPI_TRANSFER

Critical Paths under _main in BANK0

    _main->_display_temps_to_screen
    _get_temp_from_right_tcs->_location
    _display_temps_to_screen->___fttol
    _char_to_decimal_print->_LCDWriteCharacter
    ___fttol->___ftmul
    ___ftmul->___awtoft
    _String_test->_LCDWriteCharacter

Critical Paths under _main in BANK1

    _main->_display_temps_to_screen

Critical Paths under _main in BANK3

    None.

Critical Paths under _main in BANK2

    None.

Call Graph Tables:

 ---------------------------------------------------------------------------------
 (Depth) Function   	        Calls       Base Space   Used Autos Params    Refs
 ---------------------------------------------------------------------------------
 (0) _main                                                45    45      0   20809
                                             35 BANK0     35    35      0
                               _Init
                  _SPI_DATA_HANDLING
                        _String_test
                        _blank_image
                        _chip_select
                           _comm_out
            _display_temps_to_screen
            _get_temp_from_right_tcs
                           _location
                  _move_temp_to_send
                           _spi_init
 ---------------------------------------------------------------------------------
 (1) _spi_init                                             0     0      0       0
 ---------------------------------------------------------------------------------
 (1) _move_temp_to_send                                    9     9      0     994
                                              4 COMMON     9     9      0
                             ___bmul
 ---------------------------------------------------------------------------------
 (1) _get_temp_from_right_tcs                             18    18      0    5929
                                             12 BANK0     18    18      0
                  _LCDWriteCharacter
                       _SPI_TRANSFER
                             ___bmul
              _char_to_decimal_print
                           _location
 ---------------------------------------------------------------------------------
 (2) ___bmul                                               4     3      1     534
                                              0 COMMON     4     3      1
 ---------------------------------------------------------------------------------
 (1) _display_temps_to_screen                             82    82      0   10651
                                             31 BANK0      4     4      0
                                              0 BANK1     78    78      0
                  _LCDWriteCharacter
                           ___awtoft
                            ___ftmul
                            ___fttol
              _char_to_decimal_print
                           _location
 ---------------------------------------------------------------------------------
 (1) _location                                            14    14      0     583
                                              3 COMMON     2     2      0
                                              0 BANK0     12    12      0
                           _comm_out
 ---------------------------------------------------------------------------------
 (2) _char_to_decimal_print                                4     2      2    2539
                                              8 COMMON     4     2      2
                  _LCDWriteCharacter
 ---------------------------------------------------------------------------------
 (2) ___fttol                                             14    10      4     411
                                             17 BANK0     14    10      4
                           ___awtoft (ARG)
                            ___ftmul (ARG)
 ---------------------------------------------------------------------------------
 (2) ___ftmul                                             16    10      6    2251
                                              1 BANK0     16    10      6
                           ___awtoft (ARG)
                           ___ftpack
 ---------------------------------------------------------------------------------
 (2) ___awtoft                                             6     3      3    1857
                                              8 COMMON     5     2      3
                                              0 BANK0      1     1      0
                           ___ftpack
 ---------------------------------------------------------------------------------
 (3) ___ftpack                                             8     3      5    1607
                                              0 COMMON     8     3      5
 ---------------------------------------------------------------------------------
 (1) _chip_select                                          2     0      2     128
                                              0 COMMON     2     0      2
 ---------------------------------------------------------------------------------
 (1) _blank_image                                          6     6      0     160
                                              3 COMMON     6     6      0
                           _comm_out
                           _data_out
 ---------------------------------------------------------------------------------
 (2) _comm_out                                             5     5      0      22
                                              0 COMMON     3     3      0
 ---------------------------------------------------------------------------------
 (1) _String_test                                         18    18      0    1485
                                              8 COMMON     4     4      0
                                             11 BANK0     14    14      0
                  _LCDWriteCharacter
 ---------------------------------------------------------------------------------
 (3) _LCDWriteCharacter                                   13    13      0    1414
                                              6 COMMON     2     2      0
                                              0 BANK0     11    11      0
                             ___wmul
                           _data_out
 ---------------------------------------------------------------------------------
 (4) _data_out                                             5     5      0      22
                                              0 COMMON     3     3      0
 ---------------------------------------------------------------------------------
 (4) ___wmul                                               6     2      4    1116
                                              0 COMMON     6     2      4
 ---------------------------------------------------------------------------------
 (1) _SPI_DATA_HANDLING                                   10    10      0     409
                                              3 COMMON    10    10      0
                       _SPI_TRANSFER
 ---------------------------------------------------------------------------------
 (2) _SPI_TRANSFER                                         3     3      0      68
                                              0 COMMON     3     3      0
 ---------------------------------------------------------------------------------
 (1) _Init                                                 2     2      0       0
                                              0 COMMON     2     2      0
 ---------------------------------------------------------------------------------
 Estimated maximum stack depth 4
 ---------------------------------------------------------------------------------

 Call Graph Graphs:

 _main (ROOT)
   _Init
   _SPI_DATA_HANDLING
     _SPI_TRANSFER
   _String_test
     _LCDWriteCharacter
       ___wmul
       _data_out
   _blank_image
     _comm_out
     _data_out
   _chip_select
   _comm_out
   _display_temps_to_screen
     _LCDWriteCharacter
       ___wmul
       _data_out
     ___awtoft
       ___ftpack
     ___ftmul
       ___awtoft (ARG)
         ___ftpack
       ___ftpack (ARG)
     ___fttol
       ___awtoft (ARG)
         ___ftpack
       ___ftmul (ARG)
         ___awtoft (ARG)
           ___ftpack
         ___ftpack (ARG)
     _char_to_decimal_print
       _LCDWriteCharacter
         ___wmul
         _data_out
     _location
       _comm_out
   _get_temp_from_right_tcs
     _LCDWriteCharacter
       ___wmul
       _data_out
     _SPI_TRANSFER
     ___bmul
     _char_to_decimal_print
       _LCDWriteCharacter
         ___wmul
         _data_out
     _location
       _comm_out
   _location
     _comm_out
   _move_temp_to_send
     ___bmul
   _spi_init

 Address spaces:
Name               Size   Autos  Total    Cost      Usage
BANK3               55      0      54      10       98.8%
BITBANK3            55      0       0       9        0.0%
SFR3                 0      0       0       4        0.0%
BITSFR3              0      0       0       4        0.0%
BANK2               60      0      39      12       59.4%
BITBANK2            60      0       0      11        0.0%
SFR2                 0      0       0       5        0.0%
BITSFR2              0      0       0       5        0.0%
BANK1               50     4E      4E       8       97.5%
BITBANK1            50      0       0       7        0.0%
SFR1                 0      0       0       2        0.0%
BITSFR1              0      0       0       2        0.0%
BANK0               50     46      4C       5       95.0%
BITBANK0            50      0       0       4        0.0%
SFR0                 0      0       0       1        0.0%
BITSFR0              0      0       0       1        0.0%
COMMON               D      D       D       1      100.0%
BITCOMMON            D      0       0       0        0.0%
CODE                 0      0       0       0        0.0%
DATA                 0      0     134       6        0.0%
ABS                  0      0     134       3        0.0%
NULL                 0      0       0       0        0.0%
STACK                0      0       0       2        0.0%


Microchip Technology PIC Macro Assembler V1.32 build 58300 
Symbol Table                                                                                   Sun Jan 21 17:22:26 2018

                                     location@upnib 0023                                                   pc 0002  
                              __size_of_String_test 0031                                      location@lownib 0022  
                                    ___bmul@product 0073                                  move_temp_to_send@x 007A  
                                                _BF 04A0                                                  fsr 0004  
                               ___wmul@multiplicand 0073                                                 l152 0D97  
                                               l238 0536                                                 l167 0BE4  
                                               l328 090F                                                 l192 08B3  
                                               l264 0681                                                 l495 0B17  
                                               l489 0AFE                                                 _CKE 04A6  
                                               _CKP 00A4                                                 _RA1 0029  
                                               _RA2 002A                                                 _RC0 0038  
                                               _RC1 0039                                                 _RC2 003A  
                                               _RC3 003B                                                 _RB5 0035  
                                               _RC6 003E                                                 _RC7 003F  
                                               fsr0 0004                                                 indf 0000  
                              move_temp_to_send@reg 007C                                    location@position 002B  
                                              l2003 08D1                                                l2111 0C92  
                                              l2103 0C75                                                l2007 08D7  
                                              l2201 0A29                                                l2025 0934  
                                              l2041 0E16                                                l2113 0C9D  
                                              l2105 0C85                                                l2035 0E00  
                                              l2115 0CA0                                                l2053 0E55  
                                              l2119 0CAE                                                l2065 0E7D  
                                              l2057 0E65                                                l2171 0A9F  
                                              l2163 0A84                                                l2403 049E  
                                              l2411 04C2                                                l2069 0E8D  
                                              l2085 0C43                                                l2421 052E  
                                              l2183 0AC3                                                l2503 06B3  
                                              l2511 06D4                                                l2431 0560  
                                              l2407 04B1                                                l2271 01DD  
                                              l2193 09C4                                                l2177 0AB2  
                                              l2361 03F9                                                l2531 0716  
                                              l2515 06DC                                                l2523 06FD  
                                              l2507 06C4                                                l2451 05A2  
                                              l2435 0568                                                l2443 0589  
                                              l2419 0512                                                l2371 042E  
                                              l2363 0415                                                l1901 0AE8  
                                              l2429 0544                                                l2269 0034  
                                              l2543 0747                                                l2527 0705  
                                              l2535 0726                                                l2519 06ED  
                                              l2471 05E9                                                l2463 05CB  
                                              l2447 0591                                                l2455 05B2  
                                              l2439 0579                                                l2391 046F  
                                              l2383 0457                                                l2367 041D  
                                              l2375 043E                                                l1833 0907  
                                              l1907 0B03                                                l2555 07A8  
                                              l2539 0734                                                l2547 0758  
                                              l2475 05FC                                                l2459 05BA  
                                              l2467 05DB                                                l2395 0480  
                                              l2379 0446                                                l2387 0467  
                                              l1861 0BC8                                                l1909 0B0D  
                                              l1941 0D93                                                l1933 0D69  
                                              l2557 07C4                                                l1871 0BEC  
                                              l1951 0DA6                                                l1943 0DA4  
                                              l2487 065D                                                l2479 060D  
                                              l2399 0490                                                l1961 098B  
                                              l1953 0DAA                                                l2497 068F  
                                              l2489 0679                                                l2577 0CF6  
                                              l1963 099F                                                l1955 0DD3  
                                              l1939 0D7F                                                l2499 06AB  
                                              l2915 0F98                                                l1893 0AD0  
                                              l1973 0B31                                                l1879 0C09  
                                              l1887 0C24                                                l1983 0B55  
                                              l1975 0B49                                                l1897 0AD7  
                                              l1993 0B79                                                l1985 0B6D  
                                              l1899 0AE3                                                l1995 0B91  
                                              u2000 03D7                                                u1305 0910  
                                              u1315 0917                                                u1405 0ADC  
                                              u1425 0AF7                                                u1505 0D77  
                                              u1445 0B06                                                u2085 049B  
                                              u2325 0CF0                                                u1535 0DCC  
                                              u2335 0D37                                                u1545 0DB9  
                                              u2185 05E6                                                u1475 0B1E  
                                              u1900 09B0                                                u1645 0E22  
                                              u1805 0C76                                                u1565 0B3A  
                                              u2285 0731                                                u1735 0E8E  
                                              u1655 0E34                                                u1575 0B5E  
                                              u2607 0F64                                                u1745 0E96  
                                              u1585 0B82                                                u2617 0F71  
                                              u2707 0011                                                u1835 0C94  
                                              u2563 0FF0                                                u2627 0F7D  
                                              u2717 08FC                                                u1685 0E66  
                                              u2637 0FA8                                                u2727 0A23  
                                              u1695 0E6E                                                u1775 0C4A  
                                              u2647 0FB6                                                u2737 0983  
                                              u2657 002F                                                u2577 0F06  
                                              u1970 0360                                                u2747 0988  
                                              u1955 019E                                                u2667 0046  
                                              u2587 0F12                                                u1980 039B  
                                              u2757 0992                                                u1965 003F  
                                              u2677 01DA                                                u2597 0F59  
                                              u1990 03B9                                                u2767 099B  
                                              u2687 02E6                                                u2777 0972  
                                              u2697 02F0                                                _WCOL 00A7  
                                              _Init 094B                                                _main 0EBB  
                                      ___ftpack@arg 0071                                        ___ftpack@exp 0074  
                                              btemp 007E                                                ltemp 007E  
       display_temps_to_screen@fault_string_pointer 00ED                         LCDWriteCharacter@after_swap 0029  
                                              start 0001                                                ttemp 007E  
                                              wtemp 007E                                   ___bmul@multiplier 0074  
                                      ___ftmul@cntr 002F                                        ___ftmul@sign 0030  
                                      ___fttol@exp1 003E                                        ___fttol@lval 003A  
                                     __CFG_PLLEN$ON 0000                                               ?_Init 0071  
                                             ?_main 0071                                       __CFG_WDTE$OFF 0000  
                                   __end_of___ftmul 0EBB                                     __end_of___fttol 0CB7  
                                             _IRCF0 0484                                               _IRCF1 0485  
                                             _PORTA 0005                                               _PORTB 0006  
                                             _PORTC 0007                                               _SSPM0 00A0  
                                             _SSPM1 00A1                                               _SSPM2 00A2  
                                             _SSPM3 00A3                                               _TRISA 0085  
                                             _TRISB 0086                                               _TRISC 0087  
                                             _SSPEN 00A5                                       ___awtoft@sign 0020  
                                             _fonts 1012                                       ___ftpack@sign 0075  
                                             main@x 0045                                        main@spi_data 0047  
                                             pclath 000A                                               ltemp0 007E  
                                             ltemp1 0082                                               ltemp2 0086  
                                             ltemp3 0080                                        main@position 0061  
                                             ttemp0 007E                                               ttemp1 0081  
                                             ttemp2 0084                                               ttemp3 0087  
                                             ttemp4 007F                                               status 0003  
                                             wtemp0 007E                                               wtemp1 0080  
                                             wtemp2 0082                                               wtemp3 0084  
                                             wtemp4 0086                                               wtemp5 0088  
                                             wtemp6 007F             display_temps_to_screen@working_register 00E1  
                              __size_of_blank_image 005D                                     __initialization 07CD  
                                      __end_of_Init 0978                                        __end_of_main 1000  
                           _display_temps_to_screen 02F6                                __size_of_chip_select 000C  
                                            ??_Init 0071                                              ??_main 0043  
                                  main@data_pointer 0065                                       ___fttol@sign1 0039  
                          ?_get_temp_from_right_tcs 0071                                    __end_of___awtoft 094B  
                                            _ANSELA 0185                                              _ANSELB 0186  
                                  __end_of___ftpack 0B30          display_temps_to_screen@sensor_three_string 00AC  
                    __size_of_char_to_decimal_print 006C                       __end_of_char_to_decimal_print 0B9C  
                                            _TRISA3 042B                                              _TRISA4 042C  
                                            _TRISC4 043C                                              _SSPBUF 0013  
                   SPI_DATA_HANDLING@offset_pointer 007B                                    __end_of_data_out 0905  
                                  __end_of_comm_out 001A                                              ___bmul 08CF  
                                            ___wmul 0905                                           ??___ftmul 0027  
                                         ??___fttol 0035                                   _SPI_DATA_HANDLING 0A12  
                                  __end_of_location 0DE8                                  ?_SPI_DATA_HANDLING 0071  
                             ___ftmul@f3_as_product 002C                                    __end_of_spi_init 08CF  
                               ??_SPI_DATA_HANDLING 0074                       move_temp_to_send@byte_to_send 0079  
                                  String_test@F1406 0110                             __end_of__initialization 07FC  
                 move_temp_to_send@working_register 0077                                          ___awtoft@c 0079  
                               ___bmul@multiplicand 0071                           ??_display_temps_to_screen 003F  
                                        ___ftmul@f1 0021                                          ___ftmul@f2 0024  
                         __end_of_SPI_DATA_HANDLING 0A6B                                          ___fttol@f1 0031  
                                    __pcstackCOMMON 0071                                        __pidataBANK0 089B  
                                      __pidataBANK2 09D9                                        __pidataBANK3 08B5  
                                     __end_of_fonts 1141                                          __pbssBANK3 0190  
                           SPI_DATA_HANDLING@offset 0079       display_temps_to_screen@celsius_string_pointer 00E9  
                      get_temp_from_right_tcs@byte1 0033                        get_temp_from_right_tcs@byte2 0034  
                      get_temp_from_right_tcs@byte3 0035                        get_temp_from_right_tcs@byte4 0036  
                                     ??_String_test 0079                                          __pmaintext 0EBB  
                                           ?___bmul 0071                                             ?___wmul 0071  
                                 _thermocouple_temp 0190                                           ?___awtoft 0079  
                                         ?___ftpack 0071                              char_to_decimal_print@x 007C  
                   __end_of_display_temps_to_screen 07CD                                           ?_data_out 0071  
        display_temps_to_screen@open_string_pointer 00EA                                           ?_comm_out 0071  
                                        __stringtab 1000                                           ?_location 0071  
                           String_test@test_pointer 0038                          __size_of_SPI_DATA_HANDLING 0059  
              get_temp_from_right_tcs@byte_received 0032                                     __size_of___bmul 0011  
                                         ?_spi_init 0071                                     __size_of___wmul 0023  
                                           ___ftmul 0DE8                                             ___fttol 0C29  
  display_temps_to_screen@sensor_one_string_pointer 00DE    display_temps_to_screen@sensor_two_string_pointer 00DF  
                               __end_of_String_test 09D9                                          ??___awtoft 007C  
                                        ??___ftpack 0076                                             __ptext1 08C1  
                                           __ptext2 0CB7                                             __ptext3 001A  
                                           __ptext4 08CF                                             __ptext5 02F6  
                                           __ptext6 0D4C                                             __ptext7 0B30  
                                           __ptext8 0C29                                             __ptext9 0DE8  
                display_temps_to_screen@open_string 00D8              display_temps_to_screen@shortgnd_string 00BD  
                                        ??_data_out 0071                                             clrloop0 08A2  
                                        ??_comm_out 0071                                end_of_initialization 07FC  
             display_temps_to_screen@celsius_string 00C8                 display_temps_to_screen@fault_string 00D1  
                             LCDWriteCharacter@base 0027                                       ??_blank_image 0074  
                                        ??_location 0074                    __size_of_get_temp_from_right_tcs 02DC  
                                     ??_chip_select 0073                                          ??_spi_init 0071  
                                      __pstringtext 1000  display_temps_to_screen@sensor_three_string_pointer 00E0  
                                 _LCDWriteCharacter 0B9C                                  ?_LCDWriteCharacter 0071  
                                     ?_SPI_TRANSFER 0071                            SPI_TRANSFER@byte_to_send 0073  
                                   chip_select@chip 0071                                        location@page 0024  
                               ??_LCDWriteCharacter 0077              display_temps_to_screen@shortvcc_string 00B2  
                             _char_to_decimal_print 0B30                          LCDWriteCharacter@character 0020  
                                       _String_test 09A8                                 __end_of_blank_image 0AC8  
                                       ___ftmul@exp 002B                           __end_of_LCDWriteCharacter 0C29  
                                    __end_of___bmul 08E0                                      __end_of___wmul 0928  
                                    ??_SPI_TRANSFER 0071                                 __end_of_chip_select 08B5  
                                LCDWriteCharacter@i 0023                                  LCDWriteCharacter@j 0025  
                         SPI_TRANSFER@byte_recieved 0072                                 start_initialization 07CD  
                        char_to_decimal_print@value 0079                                   _move_temp_to_send 0CB7  
                                ?_move_temp_to_send 0071                                            ??___bmul 0072  
                                          ??___wmul 0075                                          init_fetch0 08E0  
          display_temps_to_screen@sensor_one_string 00A0                                         __pdataBANK0 0066  
                                       __pdataBANK2 0110                                         __pdataBANK3 01D8  
                               ??_move_temp_to_send 0075                            SPI_DATA_HANDLING@address 007A  
                     SPI_DATA_HANDLING@data_pointer 007D                                   __size_of___awtoft 0023  
                                 __size_of___ftpack 0068                                           ___latbits 0002  
                                     __pcstackBANK0 0020                                       __pcstackBANK1 00A0  
                                 __size_of_data_out 0014                              ?_char_to_decimal_print 0079  
                         __end_of_move_temp_to_send 0D4C                             _get_temp_from_right_tcs 001A  
                                       _blank_image 0A6B                                   __size_of_comm_out 0014  
                          ?_display_temps_to_screen 0071                     get_temp_from_right_tcs@position 0037  
                   display_temps_to_screen@position 00E5                                   __size_of_location 009C  
                                       _chip_select 08A9                          __size_of_LCDWriteCharacter 008D  
                                          ?___ftmul 0021                                            ?___fttol 0031  
                      LCDWriteCharacter@before_swap 0021                        display_temps_to_screen@F1450 01D8  
                      display_temps_to_screen@F1453 01DE                        display_temps_to_screen@F1462 011D  
                      display_temps_to_screen@F1447 0066                        display_temps_to_screen@F1456 0133  
                      display_temps_to_screen@F1465 0128                        display_temps_to_screen@F1459 0143  
                      display_temps_to_screen@F1468 013C                                   __size_of_spi_init 000E  
                            String_test@test_string 002B                 get_temp_from_right_tcs@byte_to_send 003B  
          display_temps_to_screen@sensor_two_string 00A6                                           data_out@i 0073  
                                    ___wmul@product 0075                                __end_of_SPI_TRANSFER 09A8  
                                         clear_ram0 08A1                            get_temp_from_right_tcs@x 003C  
                                      blank_image@i 0076                                        blank_image@j 0078  
                                       __stringbase 1012                                   ___wmul@multiplier 0071  
                                         main@count 005D                                           comm_out@j 0073  
                         ??_get_temp_from_right_tcs 002C                          __size_of_move_temp_to_send 0095  
                                      ?_String_test 0071                                           location@i 0029  
                                         location@j 0020                                           location@k 0027  
                                         location@q 0025                                    __size_of___ftmul 00D3  
                                  __size_of___fttol 008E                                            ___awtoft 0928  
                                          ___ftpack 0AC8                                  __end_of__stringtab 1012  
    display_temps_to_screen@shortgnd_string_pointer 00EC                                            _data_out 08F1  
                                          __ptext10 0928                                            __ptext11 0AC8  
                                          __ptext20 0978                                            __ptext12 08A9  
                                          __ptext21 094B                                            __ptext13 0A6B  
                                          __ptext14 0006                                            __ptext15 09A8  
                                          __ptext16 0B9C                                            __ptext17 08F1  
                                          __ptext18 0905                                            __ptext19 0A12  
                                          _comm_out 0006                                       __size_of_Init 002D  
                                     __size_of_main 0145                                            _location 0D4C  
    display_temps_to_screen@shortvcc_string_pointer 00EB                     __end_of_get_temp_from_right_tcs 02F6  
                                          _spi_init 08C1                       move_temp_to_send@data_pointer 007D  
                                          init_ram0 08E4                             ??_char_to_decimal_print 007B  
                             __size_of_SPI_TRANSFER 0030                                     blank_image@page 0075  
                                      ?_blank_image 0071                                           stringcode 100A  
                                      ?_chip_select 0071                      SPI_DATA_HANDLING@byte_received 0078  
                  __size_of_display_temps_to_screen 04D7                                        _SPI_TRANSFER 0978  
                                          stringtab 1000                                  __CFG_FOSC$INTOSCIO 0000  
                     SPI_DATA_HANDLING@byte_to_send 0077  
