

Microchip Technology PIC LITE Macro Assembler V1.38 build -256452561 
                                                                                               Wed Jul 19 11:59:41 2017

Microchip Technology Omniscient Code Generator v1.38 (Free mode) build 201607010351
     1                           	processor	16F18855
     2                           	opt	pw 120
     3                           	opt	lm
     4                           	psect	cinit,global,class=CODE,merge=1,delta=2
     5                           	psect	bitbssCOMMON,global,bit,class=COMMON,space=1,delta=1
     6                           	psect	cstackCOMMON,global,class=COMMON,space=1,delta=1
     7                           	psect	maintext,global,class=CODE,merge=1,split=1,delta=2
     8                           	psect	text1,local,class=CODE,merge=1,delta=2
     9                           	psect	text2,local,class=CODE,merge=1,delta=2
    10                           	psect	text3,local,class=CODE,merge=1,delta=2
    11                           	psect	text4,local,class=CODE,merge=1,delta=2
    12                           	dabs	1,0x7E,2
    13  0000                     	;# 
    14  0001                     	;# 
    15  0002                     	;# 
    16  0003                     	;# 
    17  0004                     	;# 
    18  0005                     	;# 
    19  0006                     	;# 
    20  0007                     	;# 
    21  0008                     	;# 
    22  0009                     	;# 
    23  000A                     	;# 
    24  000B                     	;# 
    25  000C                     	;# 
    26  000D                     	;# 
    27  000E                     	;# 
    28  0010                     	;# 
    29  0011                     	;# 
    30  0012                     	;# 
    31  0013                     	;# 
    32  0016                     	;# 
    33  0017                     	;# 
    34  0018                     	;# 
    35  001C                     	;# 
    36  001C                     	;# 
    37  001D                     	;# 
    38  001D                     	;# 
    39  001E                     	;# 
    40  001F                     	;# 
    41  008C                     	;# 
    42  008C                     	;# 
    43  008D                     	;# 
    44  008E                     	;# 
    45  008E                     	;# 
    46  008F                     	;# 
    47  0090                     	;# 
    48  0090                     	;# 
    49  0091                     	;# 
    50  0093                     	;# 
    51  0094                     	;# 
    52  0095                     	;# 
    53  0096                     	;# 
    54  0097                     	;# 
    55  0098                     	;# 
    56  0099                     	;# 
    57  009A                     	;# 
    58  009B                     	;# 
    59  009C                     	;# 
    60  009D                     	;# 
    61  009E                     	;# 
    62  010C                     	;# 
    63  010D                     	;# 
    64  010E                     	;# 
    65  010E                     	;# 
    66  010F                     	;# 
    67  0110                     	;# 
    68  0110                     	;# 
    69  0111                     	;# 
    70  0112                     	;# 
    71  0112                     	;# 
    72  0113                     	;# 
    73  0114                     	;# 
    74  0114                     	;# 
    75  0115                     	;# 
    76  0116                     	;# 
    77  0116                     	;# 
    78  0117                     	;# 
    79  0119                     	;# 
    80  0119                     	;# 
    81  0119                     	;# 
    82  011A                     	;# 
    83  011A                     	;# 
    84  011A                     	;# 
    85  011B                     	;# 
    86  011B                     	;# 
    87  011B                     	;# 
    88  011B                     	;# 
    89  011B                     	;# 
    90  011C                     	;# 
    91  011C                     	;# 
    92  011C                     	;# 
    93  011D                     	;# 
    94  011D                     	;# 
    95  011D                     	;# 
    96  011E                     	;# 
    97  011E                     	;# 
    98  011E                     	;# 
    99  011F                     	;# 
   100  011F                     	;# 
   101  011F                     	;# 
   102  011F                     	;# 
   103  011F                     	;# 
   104  018C                     	;# 
   105  018D                     	;# 
   106  018E                     	;# 
   107  018F                     	;# 
   108  0190                     	;# 
   109  0191                     	;# 
   110  0192                     	;# 
   111  0196                     	;# 
   112  0197                     	;# 
   113  0198                     	;# 
   114  0199                     	;# 
   115  019A                     	;# 
   116  019B                     	;# 
   117  019C                     	;# 
   118  020C                     	;# 
   119  020D                     	;# 
   120  020E                     	;# 
   121  020F                     	;# 
   122  020F                     	;# 
   123  0210                     	;# 
   124  0210                     	;# 
   125  0211                     	;# 
   126  0211                     	;# 
   127  0212                     	;# 
   128  0213                     	;# 
   129  0214                     	;# 
   130  0215                     	;# 
   131  0215                     	;# 
   132  0216                     	;# 
   133  0216                     	;# 
   134  0217                     	;# 
   135  0217                     	;# 
   136  0218                     	;# 
   137  0219                     	;# 
   138  021A                     	;# 
   139  021B                     	;# 
   140  021B                     	;# 
   141  021C                     	;# 
   142  021C                     	;# 
   143  021D                     	;# 
   144  021D                     	;# 
   145  021E                     	;# 
   146  021F                     	;# 
   147  028C                     	;# 
   148  028C                     	;# 
   149  028D                     	;# 
   150  028D                     	;# 
   151  028E                     	;# 
   152  028F                     	;# 
   153  0290                     	;# 
   154  0290                     	;# 
   155  0291                     	;# 
   156  0292                     	;# 
   157  0292                     	;# 
   158  0293                     	;# 
   159  0293                     	;# 
   160  0294                     	;# 
   161  0295                     	;# 
   162  0296                     	;# 
   163  0296                     	;# 
   164  0297                     	;# 
   165  0298                     	;# 
   166  0298                     	;# 
   167  0299                     	;# 
   168  0299                     	;# 
   169  029A                     	;# 
   170  029B                     	;# 
   171  029C                     	;# 
   172  029C                     	;# 
   173  029D                     	;# 
   174  030C                     	;# 
   175  030C                     	;# 
   176  030D                     	;# 
   177  030E                     	;# 
   178  030F                     	;# 
   179  0310                     	;# 
   180  0310                     	;# 
   181  0311                     	;# 
   182  0312                     	;# 
   183  0313                     	;# 
   184  0314                     	;# 
   185  0314                     	;# 
   186  0315                     	;# 
   187  0316                     	;# 
   188  0317                     	;# 
   189  0318                     	;# 
   190  0318                     	;# 
   191  0319                     	;# 
   192  031A                     	;# 
   193  031B                     	;# 
   194  031C                     	;# 
   195  031C                     	;# 
   196  031D                     	;# 
   197  031E                     	;# 
   198  031F                     	;# 
   199  038C                     	;# 
   200  038D                     	;# 
   201  038E                     	;# 
   202  0390                     	;# 
   203  0391                     	;# 
   204  0392                     	;# 
   205  040C                     	;# 
   206  040D                     	;# 
   207  040E                     	;# 
   208  040F                     	;# 
   209  0410                     	;# 
   210  0411                     	;# 
   211  0416                     	;# 
   212  0416                     	;# 
   213  0417                     	;# 
   214  0418                     	;# 
   215  0418                     	;# 
   216  0419                     	;# 
   217  041A                     	;# 
   218  041A                     	;# 
   219  041B                     	;# 
   220  041C                     	;# 
   221  041C                     	;# 
   222  041D                     	;# 
   223  041E                     	;# 
   224  041F                     	;# 
   225  048C                     	;# 
   226  048C                     	;# 
   227  048D                     	;# 
   228  048E                     	;# 
   229  048F                     	;# 
   230  048F                     	;# 
   231  0490                     	;# 
   232  0491                     	;# 
   233  0492                     	;# 
   234  0492                     	;# 
   235  0493                     	;# 
   236  0494                     	;# 
   237  0495                     	;# 
   238  0495                     	;# 
   239  0496                     	;# 
   240  0497                     	;# 
   241  0498                     	;# 
   242  0499                     	;# 
   243  049A                     	;# 
   244  049B                     	;# 
   245  049C                     	;# 
   246  049D                     	;# 
   247  050C                     	;# 
   248  050C                     	;# 
   249  050D                     	;# 
   250  050E                     	;# 
   251  050F                     	;# 
   252  050F                     	;# 
   253  0510                     	;# 
   254  0511                     	;# 
   255  0512                     	;# 
   256  0512                     	;# 
   257  0513                     	;# 
   258  0514                     	;# 
   259  0515                     	;# 
   260  0515                     	;# 
   261  0516                     	;# 
   262  0517                     	;# 
   263  0518                     	;# 
   264  0519                     	;# 
   265  051A                     	;# 
   266  051B                     	;# 
   267  051C                     	;# 
   268  051D                     	;# 
   269  058C                     	;# 
   270  058C                     	;# 
   271  058D                     	;# 
   272  058E                     	;# 
   273  058F                     	;# 
   274  058F                     	;# 
   275  0590                     	;# 
   276  0591                     	;# 
   277  0592                     	;# 
   278  0593                     	;# 
   279  060C                     	;# 
   280  060D                     	;# 
   281  060E                     	;# 
   282  060F                     	;# 
   283  0610                     	;# 
   284  0611                     	;# 
   285  0612                     	;# 
   286  0613                     	;# 
   287  0614                     	;# 
   288  0616                     	;# 
   289  0617                     	;# 
   290  0618                     	;# 
   291  0619                     	;# 
   292  061A                     	;# 
   293  061B                     	;# 
   294  061C                     	;# 
   295  061D                     	;# 
   296  061E                     	;# 
   297  068C                     	;# 
   298  068D                     	;# 
   299  068E                     	;# 
   300  068F                     	;# 
   301  0690                     	;# 
   302  0691                     	;# 
   303  0692                     	;# 
   304  0693                     	;# 
   305  0694                     	;# 
   306  070C                     	;# 
   307  070D                     	;# 
   308  070E                     	;# 
   309  070F                     	;# 
   310  0710                     	;# 
   311  0711                     	;# 
   312  0712                     	;# 
   313  0713                     	;# 
   314  0714                     	;# 
   315  0716                     	;# 
   316  0717                     	;# 
   317  0718                     	;# 
   318  0719                     	;# 
   319  071A                     	;# 
   320  071B                     	;# 
   321  071C                     	;# 
   322  071D                     	;# 
   323  071E                     	;# 
   324  0796                     	;# 
   325  0797                     	;# 
   326  0798                     	;# 
   327  0799                     	;# 
   328  079A                     	;# 
   329  079B                     	;# 
   330  080C                     	;# 
   331  080D                     	;# 
   332  080E                     	;# 
   333  080F                     	;# 
   334  0810                     	;# 
   335  0811                     	;# 
   336  0812                     	;# 
   337  0813                     	;# 
   338  0814                     	;# 
   339  081A                     	;# 
   340  081B                     	;# 
   341  081C                     	;# 
   342  081D                     	;# 
   343  081E                     	;# 
   344  081F                     	;# 
   345  088C                     	;# 
   346  088D                     	;# 
   347  088E                     	;# 
   348  088F                     	;# 
   349  0890                     	;# 
   350  0891                     	;# 
   351  0892                     	;# 
   352  0893                     	;# 
   353  0895                     	;# 
   354  0896                     	;# 
   355  0897                     	;# 
   356  0898                     	;# 
   357  0899                     	;# 
   358  089A                     	;# 
   359  089B                     	;# 
   360  090C                     	;# 
   361  090E                     	;# 
   362  090F                     	;# 
   363  091F                     	;# 
   364  091F                     	;# 
   365  098F                     	;# 
   366  098F                     	;# 
   367  0990                     	;# 
   368  0991                     	;# 
   369  0992                     	;# 
   370  0993                     	;# 
   371  0994                     	;# 
   372  0995                     	;# 
   373  0996                     	;# 
   374  0997                     	;# 
   375  0E0F                     	;# 
   376  0E10                     	;# 
   377  0E11                     	;# 
   378  0E12                     	;# 
   379  0E13                     	;# 
   380  0E14                     	;# 
   381  0E15                     	;# 
   382  0E16                     	;# 
   383  0E17                     	;# 
   384  0E18                     	;# 
   385  0E19                     	;# 
   386  0E1A                     	;# 
   387  0E1B                     	;# 
   388  0E1C                     	;# 
   389  0E1D                     	;# 
   390  0E1E                     	;# 
   391  0E1F                     	;# 
   392  0E20                     	;# 
   393  0E21                     	;# 
   394  0E22                     	;# 
   395  0E23                     	;# 
   396  0E24                     	;# 
   397  0E25                     	;# 
   398  0E26                     	;# 
   399  0E27                     	;# 
   400  0E28                     	;# 
   401  0E29                     	;# 
   402  0E2A                     	;# 
   403  0E2B                     	;# 
   404  0E2C                     	;# 
   405  0E2D                     	;# 
   406  0E2E                     	;# 
   407  0E2F                     	;# 
   408  0E30                     	;# 
   409  0E31                     	;# 
   410  0E32                     	;# 
   411  0E33                     	;# 
   412  0E34                     	;# 
   413  0E35                     	;# 
   414  0E36                     	;# 
   415  0E37                     	;# 
   416  0E8F                     	;# 
   417  0E90                     	;# 
   418  0E91                     	;# 
   419  0E92                     	;# 
   420  0E93                     	;# 
   421  0E94                     	;# 
   422  0E95                     	;# 
   423  0E96                     	;# 
   424  0E97                     	;# 
   425  0E9C                     	;# 
   426  0E9D                     	;# 
   427  0E9E                     	;# 
   428  0EA1                     	;# 
   429  0EA2                     	;# 
   430  0EA3                     	;# 
   431  0EA4                     	;# 
   432  0EA5                     	;# 
   433  0EA9                     	;# 
   434  0EAA                     	;# 
   435  0EAB                     	;# 
   436  0EAC                     	;# 
   437  0EB1                     	;# 
   438  0EB2                     	;# 
   439  0EB3                     	;# 
   440  0EB8                     	;# 
   441  0EB9                     	;# 
   442  0EBA                     	;# 
   443  0EBB                     	;# 
   444  0EBC                     	;# 
   445  0EBD                     	;# 
   446  0EBE                     	;# 
   447  0EC3                     	;# 
   448  0EC5                     	;# 
   449  0EC6                     	;# 
   450  0EC7                     	;# 
   451  0EC8                     	;# 
   452  0EC9                     	;# 
   453  0ECA                     	;# 
   454  0ECB                     	;# 
   455  0ECC                     	;# 
   456  0F10                     	;# 
   457  0F11                     	;# 
   458  0F12                     	;# 
   459  0F13                     	;# 
   460  0F14                     	;# 
   461  0F15                     	;# 
   462  0F16                     	;# 
   463  0F17                     	;# 
   464  0F18                     	;# 
   465  0F19                     	;# 
   466  0F1A                     	;# 
   467  0F1B                     	;# 
   468  0F1C                     	;# 
   469  0F1D                     	;# 
   470  0F1E                     	;# 
   471  0F1F                     	;# 
   472  0F20                     	;# 
   473  0F21                     	;# 
   474  0F22                     	;# 
   475  0F23                     	;# 
   476  0F24                     	;# 
   477  0F25                     	;# 
   478  0F26                     	;# 
   479  0F27                     	;# 
   480  0F38                     	;# 
   481  0F39                     	;# 
   482  0F3A                     	;# 
   483  0F3B                     	;# 
   484  0F3C                     	;# 
   485  0F3D                     	;# 
   486  0F3E                     	;# 
   487  0F3F                     	;# 
   488  0F40                     	;# 
   489  0F41                     	;# 
   490  0F43                     	;# 
   491  0F44                     	;# 
   492  0F45                     	;# 
   493  0F46                     	;# 
   494  0F47                     	;# 
   495  0F48                     	;# 
   496  0F49                     	;# 
   497  0F4A                     	;# 
   498  0F4B                     	;# 
   499  0F4C                     	;# 
   500  0F4E                     	;# 
   501  0F4F                     	;# 
   502  0F50                     	;# 
   503  0F51                     	;# 
   504  0F52                     	;# 
   505  0F53                     	;# 
   506  0F54                     	;# 
   507  0F55                     	;# 
   508  0F56                     	;# 
   509  0F57                     	;# 
   510  0F65                     	;# 
   511  0F68                     	;# 
   512  0F69                     	;# 
   513  0F6A                     	;# 
   514  0F6B                     	;# 
   515  0FE4                     	;# 
   516  0FE5                     	;# 
   517  0FE6                     	;# 
   518  0FE7                     	;# 
   519  0FE8                     	;# 
   520  0FE9                     	;# 
   521  0FEA                     	;# 
   522  0FEB                     	;# 
   523  0FED                     	;# 
   524  0FEE                     	;# 
   525  0FEF                     	;# 
   526  0000                     	;# 
   527  0001                     	;# 
   528  0002                     	;# 
   529  0003                     	;# 
   530  0004                     	;# 
   531  0005                     	;# 
   532  0006                     	;# 
   533  0007                     	;# 
   534  0008                     	;# 
   535  0009                     	;# 
   536  000A                     	;# 
   537  000B                     	;# 
   538  000C                     	;# 
   539  000D                     	;# 
   540  000E                     	;# 
   541  0010                     	;# 
   542  0011                     	;# 
   543  0012                     	;# 
   544  0013                     	;# 
   545  0016                     	;# 
   546  0017                     	;# 
   547  0018                     	;# 
   548  001C                     	;# 
   549  001C                     	;# 
   550  001D                     	;# 
   551  001D                     	;# 
   552  001E                     	;# 
   553  001F                     	;# 
   554  008C                     	;# 
   555  008C                     	;# 
   556  008D                     	;# 
   557  008E                     	;# 
   558  008E                     	;# 
   559  008F                     	;# 
   560  0090                     	;# 
   561  0090                     	;# 
   562  0091                     	;# 
   563  0093                     	;# 
   564  0094                     	;# 
   565  0095                     	;# 
   566  0096                     	;# 
   567  0097                     	;# 
   568  0098                     	;# 
   569  0099                     	;# 
   570  009A                     	;# 
   571  009B                     	;# 
   572  009C                     	;# 
   573  009D                     	;# 
   574  009E                     	;# 
   575  010C                     	;# 
   576  010D                     	;# 
   577  010E                     	;# 
   578  010E                     	;# 
   579  010F                     	;# 
   580  0110                     	;# 
   581  0110                     	;# 
   582  0111                     	;# 
   583  0112                     	;# 
   584  0112                     	;# 
   585  0113                     	;# 
   586  0114                     	;# 
   587  0114                     	;# 
   588  0115                     	;# 
   589  0116                     	;# 
   590  0116                     	;# 
   591  0117                     	;# 
   592  0119                     	;# 
   593  0119                     	;# 
   594  0119                     	;# 
   595  011A                     	;# 
   596  011A                     	;# 
   597  011A                     	;# 
   598  011B                     	;# 
   599  011B                     	;# 
   600  011B                     	;# 
   601  011B                     	;# 
   602  011B                     	;# 
   603  011C                     	;# 
   604  011C                     	;# 
   605  011C                     	;# 
   606  011D                     	;# 
   607  011D                     	;# 
   608  011D                     	;# 
   609  011E                     	;# 
   610  011E                     	;# 
   611  011E                     	;# 
   612  011F                     	;# 
   613  011F                     	;# 
   614  011F                     	;# 
   615  011F                     	;# 
   616  011F                     	;# 
   617  018C                     	;# 
   618  018D                     	;# 
   619  018E                     	;# 
   620  018F                     	;# 
   621  0190                     	;# 
   622  0191                     	;# 
   623  0192                     	;# 
   624  0196                     	;# 
   625  0197                     	;# 
   626  0198                     	;# 
   627  0199                     	;# 
   628  019A                     	;# 
   629  019B                     	;# 
   630  019C                     	;# 
   631  020C                     	;# 
   632  020D                     	;# 
   633  020E                     	;# 
   634  020F                     	;# 
   635  020F                     	;# 
   636  0210                     	;# 
   637  0210                     	;# 
   638  0211                     	;# 
   639  0211                     	;# 
   640  0212                     	;# 
   641  0213                     	;# 
   642  0214                     	;# 
   643  0215                     	;# 
   644  0215                     	;# 
   645  0216                     	;# 
   646  0216                     	;# 
   647  0217                     	;# 
   648  0217                     	;# 
   649  0218                     	;# 
   650  0219                     	;# 
   651  021A                     	;# 
   652  021B                     	;# 
   653  021B                     	;# 
   654  021C                     	;# 
   655  021C                     	;# 
   656  021D                     	;# 
   657  021D                     	;# 
   658  021E                     	;# 
   659  021F                     	;# 
   660  028C                     	;# 
   661  028C                     	;# 
   662  028D                     	;# 
   663  028D                     	;# 
   664  028E                     	;# 
   665  028F                     	;# 
   666  0290                     	;# 
   667  0290                     	;# 
   668  0291                     	;# 
   669  0292                     	;# 
   670  0292                     	;# 
   671  0293                     	;# 
   672  0293                     	;# 
   673  0294                     	;# 
   674  0295                     	;# 
   675  0296                     	;# 
   676  0296                     	;# 
   677  0297                     	;# 
   678  0298                     	;# 
   679  0298                     	;# 
   680  0299                     	;# 
   681  0299                     	;# 
   682  029A                     	;# 
   683  029B                     	;# 
   684  029C                     	;# 
   685  029C                     	;# 
   686  029D                     	;# 
   687  030C                     	;# 
   688  030C                     	;# 
   689  030D                     	;# 
   690  030E                     	;# 
   691  030F                     	;# 
   692  0310                     	;# 
   693  0310                     	;# 
   694  0311                     	;# 
   695  0312                     	;# 
   696  0313                     	;# 
   697  0314                     	;# 
   698  0314                     	;# 
   699  0315                     	;# 
   700  0316                     	;# 
   701  0317                     	;# 
   702  0318                     	;# 
   703  0318                     	;# 
   704  0319                     	;# 
   705  031A                     	;# 
   706  031B                     	;# 
   707  031C                     	;# 
   708  031C                     	;# 
   709  031D                     	;# 
   710  031E                     	;# 
   711  031F                     	;# 
   712  038C                     	;# 
   713  038D                     	;# 
   714  038E                     	;# 
   715  0390                     	;# 
   716  0391                     	;# 
   717  0392                     	;# 
   718  040C                     	;# 
   719  040D                     	;# 
   720  040E                     	;# 
   721  040F                     	;# 
   722  0410                     	;# 
   723  0411                     	;# 
   724  0416                     	;# 
   725  0416                     	;# 
   726  0417                     	;# 
   727  0418                     	;# 
   728  0418                     	;# 
   729  0419                     	;# 
   730  041A                     	;# 
   731  041A                     	;# 
   732  041B                     	;# 
   733  041C                     	;# 
   734  041C                     	;# 
   735  041D                     	;# 
   736  041E                     	;# 
   737  041F                     	;# 
   738  048C                     	;# 
   739  048C                     	;# 
   740  048D                     	;# 
   741  048E                     	;# 
   742  048F                     	;# 
   743  048F                     	;# 
   744  0490                     	;# 
   745  0491                     	;# 
   746  0492                     	;# 
   747  0492                     	;# 
   748  0493                     	;# 
   749  0494                     	;# 
   750  0495                     	;# 
   751  0495                     	;# 
   752  0496                     	;# 
   753  0497                     	;# 
   754  0498                     	;# 
   755  0499                     	;# 
   756  049A                     	;# 
   757  049B                     	;# 
   758  049C                     	;# 
   759  049D                     	;# 
   760  050C                     	;# 
   761  050C                     	;# 
   762  050D                     	;# 
   763  050E                     	;# 
   764  050F                     	;# 
   765  050F                     	;# 
   766  0510                     	;# 
   767  0511                     	;# 
   768  0512                     	;# 
   769  0512                     	;# 
   770  0513                     	;# 
   771  0514                     	;# 
   772  0515                     	;# 
   773  0515                     	;# 
   774  0516                     	;# 
   775  0517                     	;# 
   776  0518                     	;# 
   777  0519                     	;# 
   778  051A                     	;# 
   779  051B                     	;# 
   780  051C                     	;# 
   781  051D                     	;# 
   782  058C                     	;# 
   783  058C                     	;# 
   784  058D                     	;# 
   785  058E                     	;# 
   786  058F                     	;# 
   787  058F                     	;# 
   788  0590                     	;# 
   789  0591                     	;# 
   790  0592                     	;# 
   791  0593                     	;# 
   792  060C                     	;# 
   793  060D                     	;# 
   794  060E                     	;# 
   795  060F                     	;# 
   796  0610                     	;# 
   797  0611                     	;# 
   798  0612                     	;# 
   799  0613                     	;# 
   800  0614                     	;# 
   801  0616                     	;# 
   802  0617                     	;# 
   803  0618                     	;# 
   804  0619                     	;# 
   805  061A                     	;# 
   806  061B                     	;# 
   807  061C                     	;# 
   808  061D                     	;# 
   809  061E                     	;# 
   810  068C                     	;# 
   811  068D                     	;# 
   812  068E                     	;# 
   813  068F                     	;# 
   814  0690                     	;# 
   815  0691                     	;# 
   816  0692                     	;# 
   817  0693                     	;# 
   818  0694                     	;# 
   819  070C                     	;# 
   820  070D                     	;# 
   821  070E                     	;# 
   822  070F                     	;# 
   823  0710                     	;# 
   824  0711                     	;# 
   825  0712                     	;# 
   826  0713                     	;# 
   827  0714                     	;# 
   828  0716                     	;# 
   829  0717                     	;# 
   830  0718                     	;# 
   831  0719                     	;# 
   832  071A                     	;# 
   833  071B                     	;# 
   834  071C                     	;# 
   835  071D                     	;# 
   836  071E                     	;# 
   837  0796                     	;# 
   838  0797                     	;# 
   839  0798                     	;# 
   840  0799                     	;# 
   841  079A                     	;# 
   842  079B                     	;# 
   843  080C                     	;# 
   844  080D                     	;# 
   845  080E                     	;# 
   846  080F                     	;# 
   847  0810                     	;# 
   848  0811                     	;# 
   849  0812                     	;# 
   850  0813                     	;# 
   851  0814                     	;# 
   852  081A                     	;# 
   853  081B                     	;# 
   854  081C                     	;# 
   855  081D                     	;# 
   856  081E                     	;# 
   857  081F                     	;# 
   858  088C                     	;# 
   859  088D                     	;# 
   860  088E                     	;# 
   861  088F                     	;# 
   862  0890                     	;# 
   863  0891                     	;# 
   864  0892                     	;# 
   865  0893                     	;# 
   866  0895                     	;# 
   867  0896                     	;# 
   868  0897                     	;# 
   869  0898                     	;# 
   870  0899                     	;# 
   871  089A                     	;# 
   872  089B                     	;# 
   873  090C                     	;# 
   874  090E                     	;# 
   875  090F                     	;# 
   876  091F                     	;# 
   877  091F                     	;# 
   878  098F                     	;# 
   879  098F                     	;# 
   880  0990                     	;# 
   881  0991                     	;# 
   882  0992                     	;# 
   883  0993                     	;# 
   884  0994                     	;# 
   885  0995                     	;# 
   886  0996                     	;# 
   887  0997                     	;# 
   888  0E0F                     	;# 
   889  0E10                     	;# 
   890  0E11                     	;# 
   891  0E12                     	;# 
   892  0E13                     	;# 
   893  0E14                     	;# 
   894  0E15                     	;# 
   895  0E16                     	;# 
   896  0E17                     	;# 
   897  0E18                     	;# 
   898  0E19                     	;# 
   899  0E1A                     	;# 
   900  0E1B                     	;# 
   901  0E1C                     	;# 
   902  0E1D                     	;# 
   903  0E1E                     	;# 
   904  0E1F                     	;# 
   905  0E20                     	;# 
   906  0E21                     	;# 
   907  0E22                     	;# 
   908  0E23                     	;# 
   909  0E24                     	;# 
   910  0E25                     	;# 
   911  0E26                     	;# 
   912  0E27                     	;# 
   913  0E28                     	;# 
   914  0E29                     	;# 
   915  0E2A                     	;# 
   916  0E2B                     	;# 
   917  0E2C                     	;# 
   918  0E2D                     	;# 
   919  0E2E                     	;# 
   920  0E2F                     	;# 
   921  0E30                     	;# 
   922  0E31                     	;# 
   923  0E32                     	;# 
   924  0E33                     	;# 
   925  0E34                     	;# 
   926  0E35                     	;# 
   927  0E36                     	;# 
   928  0E37                     	;# 
   929  0E8F                     	;# 
   930  0E90                     	;# 
   931  0E91                     	;# 
   932  0E92                     	;# 
   933  0E93                     	;# 
   934  0E94                     	;# 
   935  0E95                     	;# 
   936  0E96                     	;# 
   937  0E97                     	;# 
   938  0E9C                     	;# 
   939  0E9D                     	;# 
   940  0E9E                     	;# 
   941  0EA1                     	;# 
   942  0EA2                     	;# 
   943  0EA3                     	;# 
   944  0EA4                     	;# 
   945  0EA5                     	;# 
   946  0EA9                     	;# 
   947  0EAA                     	;# 
   948  0EAB                     	;# 
   949  0EAC                     	;# 
   950  0EB1                     	;# 
   951  0EB2                     	;# 
   952  0EB3                     	;# 
   953  0EB8                     	;# 
   954  0EB9                     	;# 
   955  0EBA                     	;# 
   956  0EBB                     	;# 
   957  0EBC                     	;# 
   958  0EBD                     	;# 
   959  0EBE                     	;# 
   960  0EC3                     	;# 
   961  0EC5                     	;# 
   962  0EC6                     	;# 
   963  0EC7                     	;# 
   964  0EC8                     	;# 
   965  0EC9                     	;# 
   966  0ECA                     	;# 
   967  0ECB                     	;# 
   968  0ECC                     	;# 
   969  0F10                     	;# 
   970  0F11                     	;# 
   971  0F12                     	;# 
   972  0F13                     	;# 
   973  0F14                     	;# 
   974  0F15                     	;# 
   975  0F16                     	;# 
   976  0F17                     	;# 
   977  0F18                     	;# 
   978  0F19                     	;# 
   979  0F1A                     	;# 
   980  0F1B                     	;# 
   981  0F1C                     	;# 
   982  0F1D                     	;# 
   983  0F1E                     	;# 
   984  0F1F                     	;# 
   985  0F20                     	;# 
   986  0F21                     	;# 
   987  0F22                     	;# 
   988  0F23                     	;# 
   989  0F24                     	;# 
   990  0F25                     	;# 
   991  0F26                     	;# 
   992  0F27                     	;# 
   993  0F38                     	;# 
   994  0F39                     	;# 
   995  0F3A                     	;# 
   996  0F3B                     	;# 
   997  0F3C                     	;# 
   998  0F3D                     	;# 
   999  0F3E                     	;# 
  1000  0F3F                     	;# 
  1001  0F40                     	;# 
  1002  0F41                     	;# 
  1003  0F43                     	;# 
  1004  0F44                     	;# 
  1005  0F45                     	;# 
  1006  0F46                     	;# 
  1007  0F47                     	;# 
  1008  0F48                     	;# 
  1009  0F49                     	;# 
  1010  0F4A                     	;# 
  1011  0F4B                     	;# 
  1012  0F4C                     	;# 
  1013  0F4E                     	;# 
  1014  0F4F                     	;# 
  1015  0F50                     	;# 
  1016  0F51                     	;# 
  1017  0F52                     	;# 
  1018  0F53                     	;# 
  1019  0F54                     	;# 
  1020  0F55                     	;# 
  1021  0F56                     	;# 
  1022  0F57                     	;# 
  1023  0F65                     	;# 
  1024  0F68                     	;# 
  1025  0F69                     	;# 
  1026  0F6A                     	;# 
  1027  0F6B                     	;# 
  1028  0FE4                     	;# 
  1029  0FE5                     	;# 
  1030  0FE6                     	;# 
  1031  0FE7                     	;# 
  1032  0FE8                     	;# 
  1033  0FE9                     	;# 
  1034  0FEA                     	;# 
  1035  0FEB                     	;# 
  1036  0FED                     	;# 
  1037  0FEE                     	;# 
  1038  0FEF                     	;# 
  1039  0000                     	;# 
  1040  0001                     	;# 
  1041  0002                     	;# 
  1042  0003                     	;# 
  1043  0004                     	;# 
  1044  0005                     	;# 
  1045  0006                     	;# 
  1046  0007                     	;# 
  1047  0008                     	;# 
  1048  0009                     	;# 
  1049  000A                     	;# 
  1050  000B                     	;# 
  1051  000C                     	;# 
  1052  000D                     	;# 
  1053  000E                     	;# 
  1054  0010                     	;# 
  1055  0011                     	;# 
  1056  0012                     	;# 
  1057  0013                     	;# 
  1058  0016                     	;# 
  1059  0017                     	;# 
  1060  0018                     	;# 
  1061  001C                     	;# 
  1062  001C                     	;# 
  1063  001D                     	;# 
  1064  001D                     	;# 
  1065  001E                     	;# 
  1066  001F                     	;# 
  1067  008C                     	;# 
  1068  008C                     	;# 
  1069  008D                     	;# 
  1070  008E                     	;# 
  1071  008E                     	;# 
  1072  008F                     	;# 
  1073  0090                     	;# 
  1074  0090                     	;# 
  1075  0091                     	;# 
  1076  0093                     	;# 
  1077  0094                     	;# 
  1078  0095                     	;# 
  1079  0096                     	;# 
  1080  0097                     	;# 
  1081  0098                     	;# 
  1082  0099                     	;# 
  1083  009A                     	;# 
  1084  009B                     	;# 
  1085  009C                     	;# 
  1086  009D                     	;# 
  1087  009E                     	;# 
  1088  010C                     	;# 
  1089  010D                     	;# 
  1090  010E                     	;# 
  1091  010E                     	;# 
  1092  010F                     	;# 
  1093  0110                     	;# 
  1094  0110                     	;# 
  1095  0111                     	;# 
  1096  0112                     	;# 
  1097  0112                     	;# 
  1098  0113                     	;# 
  1099  0114                     	;# 
  1100  0114                     	;# 
  1101  0115                     	;# 
  1102  0116                     	;# 
  1103  0116                     	;# 
  1104  0117                     	;# 
  1105  0119                     	;# 
  1106  0119                     	;# 
  1107  0119                     	;# 
  1108  011A                     	;# 
  1109  011A                     	;# 
  1110  011A                     	;# 
  1111  011B                     	;# 
  1112  011B                     	;# 
  1113  011B                     	;# 
  1114  011B                     	;# 
  1115  011B                     	;# 
  1116  011C                     	;# 
  1117  011C                     	;# 
  1118  011C                     	;# 
  1119  011D                     	;# 
  1120  011D                     	;# 
  1121  011D                     	;# 
  1122  011E                     	;# 
  1123  011E                     	;# 
  1124  011E                     	;# 
  1125  011F                     	;# 
  1126  011F                     	;# 
  1127  011F                     	;# 
  1128  011F                     	;# 
  1129  011F                     	;# 
  1130  018C                     	;# 
  1131  018D                     	;# 
  1132  018E                     	;# 
  1133  018F                     	;# 
  1134  0190                     	;# 
  1135  0191                     	;# 
  1136  0192                     	;# 
  1137  0196                     	;# 
  1138  0197                     	;# 
  1139  0198                     	;# 
  1140  0199                     	;# 
  1141  019A                     	;# 
  1142  019B                     	;# 
  1143  019C                     	;# 
  1144  020C                     	;# 
  1145  020D                     	;# 
  1146  020E                     	;# 
  1147  020F                     	;# 
  1148  020F                     	;# 
  1149  0210                     	;# 
  1150  0210                     	;# 
  1151  0211                     	;# 
  1152  0211                     	;# 
  1153  0212                     	;# 
  1154  0213                     	;# 
  1155  0214                     	;# 
  1156  0215                     	;# 
  1157  0215                     	;# 
  1158  0216                     	;# 
  1159  0216                     	;# 
  1160  0217                     	;# 
  1161  0217                     	;# 
  1162  0218                     	;# 
  1163  0219                     	;# 
  1164  021A                     	;# 
  1165  021B                     	;# 
  1166  021B                     	;# 
  1167  021C                     	;# 
  1168  021C                     	;# 
  1169  021D                     	;# 
  1170  021D                     	;# 
  1171  021E                     	;# 
  1172  021F                     	;# 
  1173  028C                     	;# 
  1174  028C                     	;# 
  1175  028D                     	;# 
  1176  028D                     	;# 
  1177  028E                     	;# 
  1178  028F                     	;# 
  1179  0290                     	;# 
  1180  0290                     	;# 
  1181  0291                     	;# 
  1182  0292                     	;# 
  1183  0292                     	;# 
  1184  0293                     	;# 
  1185  0293                     	;# 
  1186  0294                     	;# 
  1187  0295                     	;# 
  1188  0296                     	;# 
  1189  0296                     	;# 
  1190  0297                     	;# 
  1191  0298                     	;# 
  1192  0298                     	;# 
  1193  0299                     	;# 
  1194  0299                     	;# 
  1195  029A                     	;# 
  1196  029B                     	;# 
  1197  029C                     	;# 
  1198  029C                     	;# 
  1199  029D                     	;# 
  1200  030C                     	;# 
  1201  030C                     	;# 
  1202  030D                     	;# 
  1203  030E                     	;# 
  1204  030F                     	;# 
  1205  0310                     	;# 
  1206  0310                     	;# 
  1207  0311                     	;# 
  1208  0312                     	;# 
  1209  0313                     	;# 
  1210  0314                     	;# 
  1211  0314                     	;# 
  1212  0315                     	;# 
  1213  0316                     	;# 
  1214  0317                     	;# 
  1215  0318                     	;# 
  1216  0318                     	;# 
  1217  0319                     	;# 
  1218  031A                     	;# 
  1219  031B                     	;# 
  1220  031C                     	;# 
  1221  031C                     	;# 
  1222  031D                     	;# 
  1223  031E                     	;# 
  1224  031F                     	;# 
  1225  038C                     	;# 
  1226  038D                     	;# 
  1227  038E                     	;# 
  1228  0390                     	;# 
  1229  0391                     	;# 
  1230  0392                     	;# 
  1231  040C                     	;# 
  1232  040D                     	;# 
  1233  040E                     	;# 
  1234  040F                     	;# 
  1235  0410                     	;# 
  1236  0411                     	;# 
  1237  0416                     	;# 
  1238  0416                     	;# 
  1239  0417                     	;# 
  1240  0418                     	;# 
  1241  0418                     	;# 
  1242  0419                     	;# 
  1243  041A                     	;# 
  1244  041A                     	;# 
  1245  041B                     	;# 
  1246  041C                     	;# 
  1247  041C                     	;# 
  1248  041D                     	;# 
  1249  041E                     	;# 
  1250  041F                     	;# 
  1251  048C                     	;# 
  1252  048C                     	;# 
  1253  048D                     	;# 
  1254  048E                     	;# 
  1255  048F                     	;# 
  1256  048F                     	;# 
  1257  0490                     	;# 
  1258  0491                     	;# 
  1259  0492                     	;# 
  1260  0492                     	;# 
  1261  0493                     	;# 
  1262  0494                     	;# 
  1263  0495                     	;# 
  1264  0495                     	;# 
  1265  0496                     	;# 
  1266  0497                     	;# 
  1267  0498                     	;# 
  1268  0499                     	;# 
  1269  049A                     	;# 
  1270  049B                     	;# 
  1271  049C                     	;# 
  1272  049D                     	;# 
  1273  050C                     	;# 
  1274  050C                     	;# 
  1275  050D                     	;# 
  1276  050E                     	;# 
  1277  050F                     	;# 
  1278  050F                     	;# 
  1279  0510                     	;# 
  1280  0511                     	;# 
  1281  0512                     	;# 
  1282  0512                     	;# 
  1283  0513                     	;# 
  1284  0514                     	;# 
  1285  0515                     	;# 
  1286  0515                     	;# 
  1287  0516                     	;# 
  1288  0517                     	;# 
  1289  0518                     	;# 
  1290  0519                     	;# 
  1291  051A                     	;# 
  1292  051B                     	;# 
  1293  051C                     	;# 
  1294  051D                     	;# 
  1295  058C                     	;# 
  1296  058C                     	;# 
  1297  058D                     	;# 
  1298  058E                     	;# 
  1299  058F                     	;# 
  1300  058F                     	;# 
  1301  0590                     	;# 
  1302  0591                     	;# 
  1303  0592                     	;# 
  1304  0593                     	;# 
  1305  060C                     	;# 
  1306  060D                     	;# 
  1307  060E                     	;# 
  1308  060F                     	;# 
  1309  0610                     	;# 
  1310  0611                     	;# 
  1311  0612                     	;# 
  1312  0613                     	;# 
  1313  0614                     	;# 
  1314  0616                     	;# 
  1315  0617                     	;# 
  1316  0618                     	;# 
  1317  0619                     	;# 
  1318  061A                     	;# 
  1319  061B                     	;# 
  1320  061C                     	;# 
  1321  061D                     	;# 
  1322  061E                     	;# 
  1323  068C                     	;# 
  1324  068D                     	;# 
  1325  068E                     	;# 
  1326  068F                     	;# 
  1327  0690                     	;# 
  1328  0691                     	;# 
  1329  0692                     	;# 
  1330  0693                     	;# 
  1331  0694                     	;# 
  1332  070C                     	;# 
  1333  070D                     	;# 
  1334  070E                     	;# 
  1335  070F                     	;# 
  1336  0710                     	;# 
  1337  0711                     	;# 
  1338  0712                     	;# 
  1339  0713                     	;# 
  1340  0714                     	;# 
  1341  0716                     	;# 
  1342  0717                     	;# 
  1343  0718                     	;# 
  1344  0719                     	;# 
  1345  071A                     	;# 
  1346  071B                     	;# 
  1347  071C                     	;# 
  1348  071D                     	;# 
  1349  071E                     	;# 
  1350  0796                     	;# 
  1351  0797                     	;# 
  1352  0798                     	;# 
  1353  0799                     	;# 
  1354  079A                     	;# 
  1355  079B                     	;# 
  1356  080C                     	;# 
  1357  080D                     	;# 
  1358  080E                     	;# 
  1359  080F                     	;# 
  1360  0810                     	;# 
  1361  0811                     	;# 
  1362  0812                     	;# 
  1363  0813                     	;# 
  1364  0814                     	;# 
  1365  081A                     	;# 
  1366  081B                     	;# 
  1367  081C                     	;# 
  1368  081D                     	;# 
  1369  081E                     	;# 
  1370  081F                     	;# 
  1371  088C                     	;# 
  1372  088D                     	;# 
  1373  088E                     	;# 
  1374  088F                     	;# 
  1375  0890                     	;# 
  1376  0891                     	;# 
  1377  0892                     	;# 
  1378  0893                     	;# 
  1379  0895                     	;# 
  1380  0896                     	;# 
  1381  0897                     	;# 
  1382  0898                     	;# 
  1383  0899                     	;# 
  1384  089A                     	;# 
  1385  089B                     	;# 
  1386  090C                     	;# 
  1387  090E                     	;# 
  1388  090F                     	;# 
  1389  091F                     	;# 
  1390  091F                     	;# 
  1391  098F                     	;# 
  1392  098F                     	;# 
  1393  0990                     	;# 
  1394  0991                     	;# 
  1395  0992                     	;# 
  1396  0993                     	;# 
  1397  0994                     	;# 
  1398  0995                     	;# 
  1399  0996                     	;# 
  1400  0997                     	;# 
  1401  0E0F                     	;# 
  1402  0E10                     	;# 
  1403  0E11                     	;# 
  1404  0E12                     	;# 
  1405  0E13                     	;# 
  1406  0E14                     	;# 
  1407  0E15                     	;# 
  1408  0E16                     	;# 
  1409  0E17                     	;# 
  1410  0E18                     	;# 
  1411  0E19                     	;# 
  1412  0E1A                     	;# 
  1413  0E1B                     	;# 
  1414  0E1C                     	;# 
  1415  0E1D                     	;# 
  1416  0E1E                     	;# 
  1417  0E1F                     	;# 
  1418  0E20                     	;# 
  1419  0E21                     	;# 
  1420  0E22                     	;# 
  1421  0E23                     	;# 
  1422  0E24                     	;# 
  1423  0E25                     	;# 
  1424  0E26                     	;# 
  1425  0E27                     	;# 
  1426  0E28                     	;# 
  1427  0E29                     	;# 
  1428  0E2A                     	;# 
  1429  0E2B                     	;# 
  1430  0E2C                     	;# 
  1431  0E2D                     	;# 
  1432  0E2E                     	;# 
  1433  0E2F                     	;# 
  1434  0E30                     	;# 
  1435  0E31                     	;# 
  1436  0E32                     	;# 
  1437  0E33                     	;# 
  1438  0E34                     	;# 
  1439  0E35                     	;# 
  1440  0E36                     	;# 
  1441  0E37                     	;# 
  1442  0E8F                     	;# 
  1443  0E90                     	;# 
  1444  0E91                     	;# 
  1445  0E92                     	;# 
  1446  0E93                     	;# 
  1447  0E94                     	;# 
  1448  0E95                     	;# 
  1449  0E96                     	;# 
  1450  0E97                     	;# 
  1451  0E9C                     	;# 
  1452  0E9D                     	;# 
  1453  0E9E                     	;# 
  1454  0EA1                     	;# 
  1455  0EA2                     	;# 
  1456  0EA3                     	;# 
  1457  0EA4                     	;# 
  1458  0EA5                     	;# 
  1459  0EA9                     	;# 
  1460  0EAA                     	;# 
  1461  0EAB                     	;# 
  1462  0EAC                     	;# 
  1463  0EB1                     	;# 
  1464  0EB2                     	;# 
  1465  0EB3                     	;# 
  1466  0EB8                     	;# 
  1467  0EB9                     	;# 
  1468  0EBA                     	;# 
  1469  0EBB                     	;# 
  1470  0EBC                     	;# 
  1471  0EBD                     	;# 
  1472  0EBE                     	;# 
  1473  0EC3                     	;# 
  1474  0EC5                     	;# 
  1475  0EC6                     	;# 
  1476  0EC7                     	;# 
  1477  0EC8                     	;# 
  1478  0EC9                     	;# 
  1479  0ECA                     	;# 
  1480  0ECB                     	;# 
  1481  0ECC                     	;# 
  1482  0F10                     	;# 
  1483  0F11                     	;# 
  1484  0F12                     	;# 
  1485  0F13                     	;# 
  1486  0F14                     	;# 
  1487  0F15                     	;# 
  1488  0F16                     	;# 
  1489  0F17                     	;# 
  1490  0F18                     	;# 
  1491  0F19                     	;# 
  1492  0F1A                     	;# 
  1493  0F1B                     	;# 
  1494  0F1C                     	;# 
  1495  0F1D                     	;# 
  1496  0F1E                     	;# 
  1497  0F1F                     	;# 
  1498  0F20                     	;# 
  1499  0F21                     	;# 
  1500  0F22                     	;# 
  1501  0F23                     	;# 
  1502  0F24                     	;# 
  1503  0F25                     	;# 
  1504  0F26                     	;# 
  1505  0F27                     	;# 
  1506  0F38                     	;# 
  1507  0F39                     	;# 
  1508  0F3A                     	;# 
  1509  0F3B                     	;# 
  1510  0F3C                     	;# 
  1511  0F3D                     	;# 
  1512  0F3E                     	;# 
  1513  0F3F                     	;# 
  1514  0F40                     	;# 
  1515  0F41                     	;# 
  1516  0F43                     	;# 
  1517  0F44                     	;# 
  1518  0F45                     	;# 
  1519  0F46                     	;# 
  1520  0F47                     	;# 
  1521  0F48                     	;# 
  1522  0F49                     	;# 
  1523  0F4A                     	;# 
  1524  0F4B                     	;# 
  1525  0F4C                     	;# 
  1526  0F4E                     	;# 
  1527  0F4F                     	;# 
  1528  0F50                     	;# 
  1529  0F51                     	;# 
  1530  0F52                     	;# 
  1531  0F53                     	;# 
  1532  0F54                     	;# 
  1533  0F55                     	;# 
  1534  0F56                     	;# 
  1535  0F57                     	;# 
  1536  0F65                     	;# 
  1537  0F68                     	;# 
  1538  0F69                     	;# 
  1539  0F6A                     	;# 
  1540  0F6B                     	;# 
  1541  0FE4                     	;# 
  1542  0FE5                     	;# 
  1543  0FE6                     	;# 
  1544  0FE7                     	;# 
  1545  0FE8                     	;# 
  1546  0FE9                     	;# 
  1547  0FEA                     	;# 
  1548  0FEB                     	;# 
  1549  0FED                     	;# 
  1550  0FEE                     	;# 
  1551  0FEF                     	;# 
  1552  0016                     _LATA	set	22
  1553  0017                     _LATB	set	23
  1554  0018                     _LATC	set	24
  1555  001E                     _T0CON0	set	30
  1556  001E                     _T0CON0bits	set	30
  1557  001F                     _T0CON1	set	31
  1558  001D                     _TMR0H	set	29
  1559  001C                     _TMR0L	set	28
  1560  0011                     _TRISA	set	17
  1561  0012                     _TRISB	set	18
  1562  0013                     _TRISC	set	19
  1563  005F                     _GIE	set	95
  1564  0060                     _RA0	set	96
  1565  0061                     _RA1	set	97
  1566  0062                     _RA2	set	98
  1567  0063                     _RA3	set	99
  1568  0065                     _RA5	set	101
  1569  0066                     _RA6	set	102
  1570  0067                     _RA7	set	103
  1571  0068                     _RB0	set	104
  1572  0069                     _RB1	set	105
  1573  006A                     _RB2	set	106
  1574  006B                     _RB3	set	107
  1575  006C                     _RB4	set	108
  1576  0070                     _RC0	set	112
  1577  0071                     _RC1	set	113
  1578  0072                     _RC2	set	114
  1579  0073                     _RC3	set	115
  1580  0074                     _RC4	set	116
  1581  0076                     _RC6	set	118
  1582  0077                     _RC7	set	119
  1583  070C                     _PIR0bits	set	1804
  1584  3865                     _TMR0IF	set	14437
  1585  088D                     _OSCCON1	set	2189
  1586  088F                     _OSCCON3	set	2191
  1587  0891                     _OSCEN	set	2193
  1588  0893                     _OSCFRQ	set	2195
  1589  0892                     _OSCTUNE	set	2194
  1590  0E8F                     _PPSLOCK	set	3727
  1591  0E8F                     _PPSLOCKbits	set	3727
  1592  0E91                     _T0CKIPPSbits	set	3729
  1593  0F38                     _ANSELA	set	3896
  1594  0F43                     _ANSELB	set	3907
  1595  0F4E                     _ANSELC	set	3918
  1596  0F3A                     _ODCONA	set	3898
  1597  0F45                     _ODCONB	set	3909
  1598  0F50                     _ODCONC	set	3920
  1599  0F39                     _WPUA	set	3897
  1600  0F44                     _WPUB	set	3908
  1601  0F4F                     _WPUC	set	3919
  1602  0F65                     _WPUE	set	3941
  1603                           
  1604                           ; #config settings
  1605  0000                     
  1606                           	psect	cinit
  1607  07FC                     start_initialization:	
  1608  07FC                     __initialization:	
  1609                           
  1610                           ; Clear objects allocated to BITCOMMON
  1611  07FC  01F8               	clrf	(__pbitbssCOMMON/(0+8))& (0+127)
  1612  07FD                     end_of_initialization:	
  1613                           ;End of C runtime variable initialization code
  1614                           
  1615  07FD                     __end_of__initialization:	
  1616  07FD  0020               	movlb	0
  1617  07FE  3186  2E29         	ljmp	_main	;jump to C main() function
  1618                           
  1619                           	psect	bitbssCOMMON
  1620  03C0                     __pbitbssCOMMON:	
  1621  03C0                     main@INCREMENT:	
  1622  03C0                     	ds	1
  1623                           
  1624                           	psect	cstackCOMMON
  1625  0070                     __pcstackCOMMON:	
  1626  0070                     ?_OSCILLATOR_Initialize:	
  1627  0070                     ??_OSCILLATOR_Initialize:	
  1628                           ; 1 bytes @ 0x0
  1629                           
  1630  0070                     ?_TMR0_Initialize:	
  1631                           ; 1 bytes @ 0x0
  1632                           
  1633  0070                     ??_TMR0_Initialize:	
  1634                           ; 1 bytes @ 0x0
  1635                           
  1636  0070                     ?_PIN_MANAGER_Initialize:	
  1637                           ; 1 bytes @ 0x0
  1638                           
  1639  0070                     ??_PIN_MANAGER_Initialize:	
  1640                           ; 1 bytes @ 0x0
  1641                           
  1642  0070                     ?_SYSTEM_Initialize:	
  1643                           ; 1 bytes @ 0x0
  1644                           
  1645  0070                     ?_main:	
  1646                           ; 1 bytes @ 0x0
  1647                           
  1648  0070                     PIN_MANAGER_Initialize@state:	
  1649                           ; 1 bytes @ 0x0
  1650                           
  1651                           
  1652                           ; 1 bytes @ 0x0
  1653  0070                     	ds	1
  1654  0071                     ??_SYSTEM_Initialize:	
  1655  0071                     ??_main:	
  1656                           ; 1 bytes @ 0x1
  1657                           
  1658                           
  1659                           ; 1 bytes @ 0x1
  1660  0071                     	ds	1
  1661  0072                     main@sec:	
  1662                           
  1663                           ; 1 bytes @ 0x2
  1664  0072                     	ds	1
  1665  0073                     main@DEBOUNCE:	
  1666                           
  1667                           ; 2 bytes @ 0x3
  1668  0073                     	ds	2
  1669  0075                     main@SEC_COUNT:	
  1670                           
  1671                           ; 1 bytes @ 0x5
  1672  0075                     	ds	1
  1673  0076                     main@HOUR_COUNT:	
  1674                           
  1675                           ; 1 bytes @ 0x6
  1676  0076                     	ds	1
  1677  0077                     main@MIN_COUNT:	
  1678                           
  1679                           ; 1 bytes @ 0x7
  1680  0077                     	ds	1
  1681                           
  1682                           	psect	maintext
  1683  0629                     __pmaintext:	
  1684 ;;
  1685 ;;Main: autosize = 0, tempsize = 1, incstack = 0, save=0
  1686 ;;
  1687 ;; *************** function _main *****************
  1688 ;; Defined at:
  1689 ;;		line 5 in file "main.c"
  1690 ;; Parameters:    Size  Location     Type
  1691 ;;		None
  1692 ;; Auto vars:     Size  Location     Type
  1693 ;;  DEBOUNCE        2    3[COMMON] int 
  1694 ;;  MIN_COUNT       1    7[COMMON] unsigned char 
  1695 ;;  HOUR_COUNT      1    6[COMMON] unsigned char 
  1696 ;;  SEC_COUNT       1    5[COMMON] unsigned char 
  1697 ;;  sec             1    2[COMMON] unsigned char 
  1698 ;; Return value:  Size  Location     Type
  1699 ;;                  1    wreg      void 
  1700 ;; Registers used:
  1701 ;;		wreg, status,2, status,0, pclath, cstack
  1702 ;; Tracked objects:
  1703 ;;		On entry : B1F/0
  1704 ;;		On exit  : 0/0
  1705 ;;		Unchanged: 0/0
  1706 ;; Data sizes:     COMMON   BANK0   BANK1   BANK2   BANK3   BANK4   BANK5   BANK6   BANK7   BANK8   BANK9  BANK10  BANK1
      +1  BANK12
  1707 ;;      Params:         0       0       0       0       0       0       0       0       0       0       0       0       
      +0       0
  1708 ;;      Locals:         6       0       0       0       0       0       0       0       0       0       0       0       
      +0       0
  1709 ;;      Temps:          1       0       0       0       0       0       0       0       0       0       0       0       
      +0       0
  1710 ;;      Totals:         7       0       0       0       0       0       0       0       0       0       0       0       
      +0       0
  1711 ;;Total ram usage:        7 bytes
  1712 ;; Hardware stack levels required when called:    2
  1713 ;; This function calls:
  1714 ;;		_SYSTEM_Initialize
  1715 ;;		_TMR0_Initialize
  1716 ;; This function is called by:
  1717 ;;		Startup code after reset
  1718 ;; This function uses a non-reentrant model
  1719 ;;
  1720                           
  1721                           
  1722                           ;psect for function _main
  1723  0629                     _main:	
  1724                           
  1725                           ;main.c: 7: SYSTEM_Initialize();
  1726                           
  1727                           ;incstack = 0
  1728                           ; Regs used in _main: [wreg+status,2+status,0+pclath+cstack]
  1729  0629  3185  25DE  3186   	fcall	_SYSTEM_Initialize
  1730                           
  1731                           ;main.c: 9: TMR0_Initialize();
  1732  062C  3185  25EC  3186   	fcall	_TMR0_Initialize
  1733                           
  1734                           ;main.c: 11: char sec = 0, SEC_COUNT, MIN_COUNT, HOUR_COUNT;
  1735  062F  01F2               	clrf	main@sec
  1736                           
  1737                           ;main.c: 12: int DEBOUNCE = 0;
  1738  0630  01F3               	clrf	main@DEBOUNCE
  1739  0631  01F4               	clrf	main@DEBOUNCE+1
  1740  0632                     l649:	
  1741                           ;main.c: 14: static bit INCREMENT;
  1742                           ;main.c: 16: while (1)
  1743                           
  1744                           
  1745                           ;main.c: 17: {
  1746                           ;main.c: 18: if (TMR0IF==1)
  1747  0632  002E               	movlb	14	; select bank14
  1748  0633  1E8C               	btfss	12,5	;volatile
  1749  0634  2E3A               	goto	l126
  1750                           
  1751                           ;main.c: 19: {
  1752                           ;main.c: 20: TMR0IF=0;
  1753  0635  128C               	bcf	12,5	;volatile
  1754                           
  1755                           ;main.c: 21: sec+=1;
  1756  0636  3001               	movlw	1
  1757  0637  00F1               	movwf	??_main
  1758  0638  0871               	movf	??_main,w
  1759  0639  07F2               	addwf	main@sec,f
  1760  063A                     l126:	
  1761                           
  1762                           ;main.c: 22: }
  1763                           ;main.c: 24: if (sec>0)
  1764  063A  0872               	movf	main@sec,w
  1765  063B  1903               	btfsc	3,2
  1766  063C  2E90               	goto	l677
  1767                           
  1768                           ;main.c: 25: {
  1769                           ;main.c: 26: SEC_COUNT+=1;
  1770  063D  3001               	movlw	1
  1771  063E  00F1               	movwf	??_main
  1772  063F  0871               	movf	??_main,w
  1773  0640  07F5               	addwf	main@SEC_COUNT,f
  1774                           
  1775                           ;main.c: 36: sec=0;
  1776  0641  01F2               	clrf	main@sec
  1777                           
  1778                           ;main.c: 38: if (SEC_COUNT>59)
  1779  0642  303C               	movlw	60
  1780  0643  0275               	subwf	main@SEC_COUNT,w
  1781  0644  1C03               	skipc
  1782  0645  2E48               	goto	l665
  1783                           
  1784                           ;main.c: 39: {
  1785                           ;main.c: 40: SEC_COUNT=0;
  1786  0646  01F5               	clrf	main@SEC_COUNT
  1787                           
  1788                           ;main.c: 41: INCREMENT=1;
  1789  0647  1478               	bsf	main@INCREMENT/(0+8),main@INCREMENT& (0+7)
  1790  0648                     l665:	
  1791                           
  1792                           ;main.c: 42: }
  1793                           ;main.c: 43: RB4 = !(SEC_COUNT & 0x01);
  1794  0648  1875               	btfsc	main@SEC_COUNT,0
  1795  0649  2E4D               	goto	u60
  1796  064A  0020               	movlb	0	; select bank0
  1797  064B  160D               	bsf	13,4	;volatile
  1798  064C  2E4F               	goto	l667
  1799  064D                     u60:	
  1800  064D  0020               	movlb	0	; select bank0
  1801  064E  120D               	bcf	13,4	;volatile
  1802  064F                     l667:	
  1803                           
  1804                           ;main.c: 44: RB3 = !((SEC_COUNT & 0x02) >> 1);
  1805  064F  0875               	movf	main@SEC_COUNT,w
  1806  0650  00F1               	movwf	??_main
  1807  0651  3001               	movlw	1
  1808  0652                     u85:	
  1809  0652  36F1               	lsrf	??_main,f
  1810  0653  0B89               	decfsz	9,f
  1811  0654  2E52               	goto	u85
  1812  0655  1871               	btfsc	??_main,0
  1813  0656  2E5A               	goto	u90
  1814  0657  0020               	movlb	0	; select bank0
  1815  0658  158D               	bsf	13,3	;volatile
  1816  0659  2E5C               	goto	l669
  1817  065A                     u90:	
  1818  065A  0020               	movlb	0	; select bank0
  1819  065B  118D               	bcf	13,3	;volatile
  1820  065C                     l669:	
  1821                           
  1822                           ;main.c: 45: RB2 = !((SEC_COUNT & 0x04) >> 2);
  1823  065C  0875               	movf	main@SEC_COUNT,w
  1824  065D  00F1               	movwf	??_main
  1825  065E  3002               	movlw	2
  1826  065F                     u115:	
  1827  065F  36F1               	lsrf	??_main,f
  1828  0660  0B89               	decfsz	9,f
  1829  0661  2E5F               	goto	u115
  1830  0662  1871               	btfsc	??_main,0
  1831  0663  2E67               	goto	u120
  1832  0664  0020               	movlb	0	; select bank0
  1833  0665  150D               	bsf	13,2	;volatile
  1834  0666  2E69               	goto	l671
  1835  0667                     u120:	
  1836  0667  0020               	movlb	0	; select bank0
  1837  0668  110D               	bcf	13,2	;volatile
  1838  0669                     l671:	
  1839                           
  1840                           ;main.c: 46: RB1 = !((SEC_COUNT & 0x08) >> 3);
  1841  0669  0875               	movf	main@SEC_COUNT,w
  1842  066A  00F1               	movwf	??_main
  1843  066B  3003               	movlw	3
  1844  066C                     u145:	
  1845  066C  36F1               	lsrf	??_main,f
  1846  066D  0B89               	decfsz	9,f
  1847  066E  2E6C               	goto	u145
  1848  066F  1871               	btfsc	??_main,0
  1849  0670  2E74               	goto	u150
  1850  0671  0020               	movlb	0	; select bank0
  1851  0672  148D               	bsf	13,1	;volatile
  1852  0673  2E76               	goto	l673
  1853  0674                     u150:	
  1854  0674  0020               	movlb	0	; select bank0
  1855  0675  108D               	bcf	13,1	;volatile
  1856  0676                     l673:	
  1857                           
  1858                           ;main.c: 47: RB0 = !((SEC_COUNT & 0x10) >> 4);
  1859  0676  0875               	movf	main@SEC_COUNT,w
  1860  0677  00F1               	movwf	??_main
  1861  0678  3004               	movlw	4
  1862  0679                     u175:	
  1863  0679  36F1               	lsrf	??_main,f
  1864  067A  0B89               	decfsz	9,f
  1865  067B  2E79               	goto	u175
  1866  067C  1871               	btfsc	??_main,0
  1867  067D  2E81               	goto	u180
  1868  067E  0020               	movlb	0	; select bank0
  1869  067F  140D               	bsf	13,0	;volatile
  1870  0680  2E83               	goto	l675
  1871  0681                     u180:	
  1872  0681  0020               	movlb	0	; select bank0
  1873  0682  100D               	bcf	13,0	;volatile
  1874  0683                     l675:	
  1875                           
  1876                           ;main.c: 48: RA7 = !((SEC_COUNT & 0x20) >> 5);
  1877  0683  0875               	movf	main@SEC_COUNT,w
  1878  0684  00F1               	movwf	??_main
  1879  0685  3005               	movlw	5
  1880  0686                     u205:	
  1881  0686  36F1               	lsrf	??_main,f
  1882  0687  0B89               	decfsz	9,f
  1883  0688  2E86               	goto	u205
  1884  0689  1871               	btfsc	??_main,0
  1885  068A  2E8E               	goto	u210
  1886  068B  0020               	movlb	0	; select bank0
  1887  068C  178C               	bsf	12,7	;volatile
  1888  068D  2E90               	goto	l677
  1889  068E                     u210:	
  1890  068E  0020               	movlb	0	; select bank0
  1891  068F  138C               	bcf	12,7	;volatile
  1892  0690                     l677:	
  1893                           
  1894                           ;main.c: 50: }
  1895                           ;main.c: 52: if (INCREMENT>0)
  1896  0690  1C78               	btfss	main@INCREMENT/(0+8),main@INCREMENT& (0+7)
  1897  0691  2EE5               	goto	l701
  1898                           
  1899                           ;main.c: 53: {
  1900                           ;main.c: 54: INCREMENT=0;
  1901  0692  1078               	bcf	main@INCREMENT/(0+8),main@INCREMENT& (0+7)
  1902                           
  1903                           ;main.c: 55: MIN_COUNT+=1;
  1904  0693  3001               	movlw	1
  1905  0694  00F1               	movwf	??_main
  1906  0695  0871               	movf	??_main,w
  1907  0696  07F7               	addwf	main@MIN_COUNT,f
  1908                           
  1909                           ;main.c: 56: if (MIN_COUNT>59)
  1910  0697  303C               	movlw	60
  1911  0698  0277               	subwf	main@MIN_COUNT,w
  1912  0699  1C03               	skipc
  1913  069A  2E9D               	goto	l689
  1914                           
  1915                           ;main.c: 57: {
  1916                           ;main.c: 58: INCREMENT=1;
  1917  069B  1478               	bsf	main@INCREMENT/(0+8),main@INCREMENT& (0+7)
  1918                           
  1919                           ;main.c: 59: MIN_COUNT=0;
  1920  069C  01F7               	clrf	main@MIN_COUNT
  1921  069D                     l689:	
  1922                           
  1923                           ;main.c: 60: }
  1924                           ;main.c: 61: RA6 = !(MIN_COUNT & 0x01);
  1925  069D  1877               	btfsc	main@MIN_COUNT,0
  1926  069E  2EA2               	goto	u250
  1927  069F  0020               	movlb	0	; select bank0
  1928  06A0  170C               	bsf	12,6	;volatile
  1929  06A1  2EA4               	goto	l691
  1930  06A2                     u250:	
  1931  06A2  0020               	movlb	0	; select bank0
  1932  06A3  130C               	bcf	12,6	;volatile
  1933  06A4                     l691:	
  1934                           
  1935                           ;main.c: 62: RA5 = !((MIN_COUNT & 0x02) >> 1);
  1936  06A4  0877               	movf	main@MIN_COUNT,w
  1937  06A5  00F1               	movwf	??_main
  1938  06A6  3001               	movlw	1
  1939  06A7                     u275:	
  1940  06A7  36F1               	lsrf	??_main,f
  1941  06A8  0B89               	decfsz	9,f
  1942  06A9  2EA7               	goto	u275
  1943  06AA  1871               	btfsc	??_main,0
  1944  06AB  2EAF               	goto	u280
  1945  06AC  0020               	movlb	0	; select bank0
  1946  06AD  168C               	bsf	12,5	;volatile
  1947  06AE  2EB1               	goto	l693
  1948  06AF                     u280:	
  1949  06AF  0020               	movlb	0	; select bank0
  1950  06B0  128C               	bcf	12,5	;volatile
  1951  06B1                     l693:	
  1952                           
  1953                           ;main.c: 63: RA3 = !((MIN_COUNT & 0x04) >> 2);
  1954  06B1  0877               	movf	main@MIN_COUNT,w
  1955  06B2  00F1               	movwf	??_main
  1956  06B3  3002               	movlw	2
  1957  06B4                     u305:	
  1958  06B4  36F1               	lsrf	??_main,f
  1959  06B5  0B89               	decfsz	9,f
  1960  06B6  2EB4               	goto	u305
  1961  06B7  1871               	btfsc	??_main,0
  1962  06B8  2EBC               	goto	u310
  1963  06B9  0020               	movlb	0	; select bank0
  1964  06BA  158C               	bsf	12,3	;volatile
  1965  06BB  2EBE               	goto	l695
  1966  06BC                     u310:	
  1967  06BC  0020               	movlb	0	; select bank0
  1968  06BD  118C               	bcf	12,3	;volatile
  1969  06BE                     l695:	
  1970                           
  1971                           ;main.c: 64: RA2 = !((MIN_COUNT & 0x08) >> 3);
  1972  06BE  0877               	movf	main@MIN_COUNT,w
  1973  06BF  00F1               	movwf	??_main
  1974  06C0  3003               	movlw	3
  1975  06C1                     u335:	
  1976  06C1  36F1               	lsrf	??_main,f
  1977  06C2  0B89               	decfsz	9,f
  1978  06C3  2EC1               	goto	u335
  1979  06C4  1871               	btfsc	??_main,0
  1980  06C5  2EC9               	goto	u340
  1981  06C6  0020               	movlb	0	; select bank0
  1982  06C7  150C               	bsf	12,2	;volatile
  1983  06C8  2ECB               	goto	l697
  1984  06C9                     u340:	
  1985  06C9  0020               	movlb	0	; select bank0
  1986  06CA  110C               	bcf	12,2	;volatile
  1987  06CB                     l697:	
  1988                           
  1989                           ;main.c: 65: RA1 = !((MIN_COUNT & 0x10) >> 4);
  1990  06CB  0877               	movf	main@MIN_COUNT,w
  1991  06CC  00F1               	movwf	??_main
  1992  06CD  3004               	movlw	4
  1993  06CE                     u365:	
  1994  06CE  36F1               	lsrf	??_main,f
  1995  06CF  0B89               	decfsz	9,f
  1996  06D0  2ECE               	goto	u365
  1997  06D1  1871               	btfsc	??_main,0
  1998  06D2  2ED6               	goto	u370
  1999  06D3  0020               	movlb	0	; select bank0
  2000  06D4  148C               	bsf	12,1	;volatile
  2001  06D5  2ED8               	goto	l699
  2002  06D6                     u370:	
  2003  06D6  0020               	movlb	0	; select bank0
  2004  06D7  108C               	bcf	12,1	;volatile
  2005  06D8                     l699:	
  2006                           
  2007                           ;main.c: 66: RA0 = !((MIN_COUNT & 0x20) >> 5);
  2008  06D8  0877               	movf	main@MIN_COUNT,w
  2009  06D9  00F1               	movwf	??_main
  2010  06DA  3005               	movlw	5
  2011  06DB                     u395:	
  2012  06DB  36F1               	lsrf	??_main,f
  2013  06DC  0B89               	decfsz	9,f
  2014  06DD  2EDB               	goto	u395
  2015  06DE  1871               	btfsc	??_main,0
  2016  06DF  2EE3               	goto	u400
  2017  06E0  0020               	movlb	0	; select bank0
  2018  06E1  140C               	bsf	12,0	;volatile
  2019  06E2  2EE5               	goto	l701
  2020  06E3                     u400:	
  2021  06E3  0020               	movlb	0	; select bank0
  2022  06E4  100C               	bcf	12,0	;volatile
  2023  06E5                     l701:	
  2024                           
  2025                           ;main.c: 67: }
  2026                           ;main.c: 69: if (INCREMENT>0)
  2027  06E5  1C78               	btfss	main@INCREMENT/(0+8),main@INCREMENT& (0+7)
  2028  06E6  2F2B               	goto	l721
  2029                           
  2030                           ;main.c: 70: {
  2031                           ;main.c: 71: INCREMENT=0;
  2032  06E7  1078               	bcf	main@INCREMENT/(0+8),main@INCREMENT& (0+7)
  2033                           
  2034                           ;main.c: 72: HOUR_COUNT+=1;
  2035  06E8  3001               	movlw	1
  2036  06E9  00F1               	movwf	??_main
  2037  06EA  0871               	movf	??_main,w
  2038  06EB  07F6               	addwf	main@HOUR_COUNT,f
  2039                           
  2040                           ;main.c: 73: if (HOUR_COUNT>23)
  2041  06EC  3018               	movlw	24
  2042  06ED  0276               	subwf	main@HOUR_COUNT,w
  2043  06EE  1803               	btfsc	3,0
  2044                           
  2045                           ;main.c: 74: {
  2046                           ;main.c: 75: HOUR_COUNT=0;
  2047  06EF  01F6               	clrf	main@HOUR_COUNT
  2048                           
  2049                           ;main.c: 76: }
  2050                           ;main.c: 77: RC4 = !(HOUR_COUNT & 0x01);
  2051  06F0  1876               	btfsc	main@HOUR_COUNT,0
  2052  06F1  2EF5               	goto	u440
  2053  06F2  0020               	movlb	0	; select bank0
  2054  06F3  160E               	bsf	14,4	;volatile
  2055  06F4  2EF7               	goto	l713
  2056  06F5                     u440:	
  2057  06F5  0020               	movlb	0	; select bank0
  2058  06F6  120E               	bcf	14,4	;volatile
  2059  06F7                     l713:	
  2060                           
  2061                           ;main.c: 78: RC3 = !((HOUR_COUNT & 0x02) >> 1);
  2062  06F7  0876               	movf	main@HOUR_COUNT,w
  2063  06F8  00F1               	movwf	??_main
  2064  06F9  3001               	movlw	1
  2065  06FA                     u465:	
  2066  06FA  36F1               	lsrf	??_main,f
  2067  06FB  0B89               	decfsz	9,f
  2068  06FC  2EFA               	goto	u465
  2069  06FD  1871               	btfsc	??_main,0
  2070  06FE  2F02               	goto	u470
  2071  06FF  0020               	movlb	0	; select bank0
  2072  0700  158E               	bsf	14,3	;volatile
  2073  0701  2F04               	goto	l715
  2074  0702                     u470:	
  2075  0702  0020               	movlb	0	; select bank0
  2076  0703  118E               	bcf	14,3	;volatile
  2077  0704                     l715:	
  2078                           
  2079                           ;main.c: 79: RC2 = !((HOUR_COUNT & 0x04) >> 2);
  2080  0704  0876               	movf	main@HOUR_COUNT,w
  2081  0705  00F1               	movwf	??_main
  2082  0706  3002               	movlw	2
  2083  0707                     u495:	
  2084  0707  36F1               	lsrf	??_main,f
  2085  0708  0B89               	decfsz	9,f
  2086  0709  2F07               	goto	u495
  2087  070A  1871               	btfsc	??_main,0
  2088  070B  2F0F               	goto	u500
  2089  070C  0020               	movlb	0	; select bank0
  2090  070D  150E               	bsf	14,2	;volatile
  2091  070E  2F11               	goto	l717
  2092  070F                     u500:	
  2093  070F  0020               	movlb	0	; select bank0
  2094  0710  110E               	bcf	14,2	;volatile
  2095  0711                     l717:	
  2096                           
  2097                           ;main.c: 80: RC1 = !((HOUR_COUNT & 0x08) >> 3);
  2098  0711  0876               	movf	main@HOUR_COUNT,w
  2099  0712  00F1               	movwf	??_main
  2100  0713  3003               	movlw	3
  2101  0714                     u525:	
  2102  0714  36F1               	lsrf	??_main,f
  2103  0715  0B89               	decfsz	9,f
  2104  0716  2F14               	goto	u525
  2105  0717  1871               	btfsc	??_main,0
  2106  0718  2F1C               	goto	u530
  2107  0719  0020               	movlb	0	; select bank0
  2108  071A  148E               	bsf	14,1	;volatile
  2109  071B  2F1E               	goto	l719
  2110  071C                     u530:	
  2111  071C  0020               	movlb	0	; select bank0
  2112  071D  108E               	bcf	14,1	;volatile
  2113  071E                     l719:	
  2114                           
  2115                           ;main.c: 81: RC0 = !((HOUR_COUNT & 0x10) >> 4);
  2116  071E  0876               	movf	main@HOUR_COUNT,w
  2117  071F  00F1               	movwf	??_main
  2118  0720  3004               	movlw	4
  2119  0721                     u555:	
  2120  0721  36F1               	lsrf	??_main,f
  2121  0722  0B89               	decfsz	9,f
  2122  0723  2F21               	goto	u555
  2123  0724  1871               	btfsc	??_main,0
  2124  0725  2F29               	goto	u560
  2125  0726  0020               	movlb	0	; select bank0
  2126  0727  140E               	bsf	14,0	;volatile
  2127  0728  2F2B               	goto	l721
  2128  0729                     u560:	
  2129  0729  0020               	movlb	0	; select bank0
  2130  072A  100E               	bcf	14,0	;volatile
  2131  072B                     l721:	
  2132                           
  2133                           ;main.c: 82: }
  2134                           ;main.c: 84: if (RC6==1 && DEBOUNCE==0)
  2135  072B  0020               	movlb	0	; select bank0
  2136  072C  1F0E               	btfss	14,6	;volatile
  2137  072D  2F91               	goto	l749
  2138  072E  0873               	movf	main@DEBOUNCE,w
  2139  072F  0474               	iorwf	main@DEBOUNCE+1,w
  2140  0730  1D03               	btfss	3,2
  2141  0731  2F91               	goto	l749
  2142                           
  2143                           ;main.c: 85: {
  2144                           ;main.c: 86: MIN_COUNT+=1;
  2145  0732  3001               	movlw	1
  2146  0733  00F1               	movwf	??_main
  2147  0734  0871               	movf	??_main,w
  2148  0735  07F7               	addwf	main@MIN_COUNT,f
  2149                           
  2150                           ;main.c: 88: if(MIN_COUNT>59)
  2151  0736  303C               	movlw	60
  2152  0737  0277               	subwf	main@MIN_COUNT,w
  2153  0738  1803               	btfsc	3,0
  2154                           
  2155                           ;main.c: 89: {
  2156                           ;main.c: 90: MIN_COUNT=0;
  2157  0739  01F7               	clrf	main@MIN_COUNT
  2158                           
  2159                           ;main.c: 91: }
  2160                           ;main.c: 93: SEC_COUNT= -1;
  2161  073A  30FF               	movlw	255
  2162  073B  00F1               	movwf	??_main
  2163  073C  0871               	movf	??_main,w
  2164  073D  00F5               	movwf	main@SEC_COUNT
  2165                           
  2166                           ;main.c: 94: RB4 = !(SEC_COUNT & 0x01);
  2167  073E  1875               	btfsc	main@SEC_COUNT,0
  2168  073F  2F43               	goto	u610
  2169  0740  0020               	movlb	0	; select bank0
  2170  0741  160D               	bsf	13,4	;volatile
  2171  0742  2F45               	goto	l735
  2172  0743                     u610:	
  2173  0743  0020               	movlb	0	; select bank0
  2174  0744  120D               	bcf	13,4	;volatile
  2175  0745                     l735:	
  2176                           
  2177                           ;main.c: 95: RA6 = !(MIN_COUNT & 0x01);
  2178  0745  1877               	btfsc	main@MIN_COUNT,0
  2179  0746  2F4A               	goto	u630
  2180  0747  0020               	movlb	0	; select bank0
  2181  0748  170C               	bsf	12,6	;volatile
  2182  0749  2F4C               	goto	l737
  2183  074A                     u630:	
  2184  074A  0020               	movlb	0	; select bank0
  2185  074B  130C               	bcf	12,6	;volatile
  2186  074C                     l737:	
  2187                           
  2188                           ;main.c: 96: RA5 = !((MIN_COUNT & 0x02) >> 1);
  2189  074C  0877               	movf	main@MIN_COUNT,w
  2190  074D  00F1               	movwf	??_main
  2191  074E  3001               	movlw	1
  2192  074F                     u655:	
  2193  074F  36F1               	lsrf	??_main,f
  2194  0750  0B89               	decfsz	9,f
  2195  0751  2F4F               	goto	u655
  2196  0752  1871               	btfsc	??_main,0
  2197  0753  2F57               	goto	u660
  2198  0754  0020               	movlb	0	; select bank0
  2199  0755  168C               	bsf	12,5	;volatile
  2200  0756  2F59               	goto	l739
  2201  0757                     u660:	
  2202  0757  0020               	movlb	0	; select bank0
  2203  0758  128C               	bcf	12,5	;volatile
  2204  0759                     l739:	
  2205                           
  2206                           ;main.c: 97: RA3 = !((MIN_COUNT & 0x04) >> 2);
  2207  0759  0877               	movf	main@MIN_COUNT,w
  2208  075A  00F1               	movwf	??_main
  2209  075B  3002               	movlw	2
  2210  075C                     u685:	
  2211  075C  36F1               	lsrf	??_main,f
  2212  075D  0B89               	decfsz	9,f
  2213  075E  2F5C               	goto	u685
  2214  075F  1871               	btfsc	??_main,0
  2215  0760  2F64               	goto	u690
  2216  0761  0020               	movlb	0	; select bank0
  2217  0762  158C               	bsf	12,3	;volatile
  2218  0763  2F66               	goto	l741
  2219  0764                     u690:	
  2220  0764  0020               	movlb	0	; select bank0
  2221  0765  118C               	bcf	12,3	;volatile
  2222  0766                     l741:	
  2223                           
  2224                           ;main.c: 98: RA2 = !((MIN_COUNT & 0x08) >> 3);
  2225  0766  0877               	movf	main@MIN_COUNT,w
  2226  0767  00F1               	movwf	??_main
  2227  0768  3003               	movlw	3
  2228  0769                     u715:	
  2229  0769  36F1               	lsrf	??_main,f
  2230  076A  0B89               	decfsz	9,f
  2231  076B  2F69               	goto	u715
  2232  076C  1871               	btfsc	??_main,0
  2233  076D  2F71               	goto	u720
  2234  076E  0020               	movlb	0	; select bank0
  2235  076F  150C               	bsf	12,2	;volatile
  2236  0770  2F73               	goto	l743
  2237  0771                     u720:	
  2238  0771  0020               	movlb	0	; select bank0
  2239  0772  110C               	bcf	12,2	;volatile
  2240  0773                     l743:	
  2241                           
  2242                           ;main.c: 99: RA1 = !((MIN_COUNT & 0x10) >> 4);
  2243  0773  0877               	movf	main@MIN_COUNT,w
  2244  0774  00F1               	movwf	??_main
  2245  0775  3004               	movlw	4
  2246  0776                     u745:	
  2247  0776  36F1               	lsrf	??_main,f
  2248  0777  0B89               	decfsz	9,f
  2249  0778  2F76               	goto	u745
  2250  0779  1871               	btfsc	??_main,0
  2251  077A  2F7E               	goto	u750
  2252  077B  0020               	movlb	0	; select bank0
  2253  077C  148C               	bsf	12,1	;volatile
  2254  077D  2F80               	goto	l745
  2255  077E                     u750:	
  2256  077E  0020               	movlb	0	; select bank0
  2257  077F  108C               	bcf	12,1	;volatile
  2258  0780                     l745:	
  2259                           
  2260                           ;main.c: 100: RA0 = !((MIN_COUNT & 0x20) >> 5);
  2261  0780  0877               	movf	main@MIN_COUNT,w
  2262  0781  00F1               	movwf	??_main
  2263  0782  3005               	movlw	5
  2264  0783                     u775:	
  2265  0783  36F1               	lsrf	??_main,f
  2266  0784  0B89               	decfsz	9,f
  2267  0785  2F83               	goto	u775
  2268  0786  1871               	btfsc	??_main,0
  2269  0787  2F8B               	goto	u780
  2270  0788  0020               	movlb	0	; select bank0
  2271  0789  140C               	bsf	12,0	;volatile
  2272  078A  2F8D               	goto	l747
  2273  078B                     u780:	
  2274  078B  0020               	movlb	0	; select bank0
  2275  078C  100C               	bcf	12,0	;volatile
  2276  078D                     l747:	
  2277                           
  2278                           ;main.c: 101: DEBOUNCE=1;
  2279  078D  3001               	movlw	1
  2280  078E  00F3               	movwf	main@DEBOUNCE
  2281  078F  3000               	movlw	0
  2282  0790  00F4               	movwf	main@DEBOUNCE+1
  2283  0791                     l749:	
  2284                           
  2285                           ;main.c: 102: }
  2286                           ;main.c: 104: if (RC7==1 && DEBOUNCE==0)
  2287  0791  1F8E               	btfss	14,7	;volatile
  2288  0792  2FDE               	goto	l771
  2289  0793  0873               	movf	main@DEBOUNCE,w
  2290  0794  0474               	iorwf	main@DEBOUNCE+1,w
  2291  0795  1D03               	btfss	3,2
  2292  0796  2FDE               	goto	l771
  2293                           
  2294                           ;main.c: 105: {
  2295                           ;main.c: 106: HOUR_COUNT+=1;
  2296  0797  3001               	movlw	1
  2297  0798  00F1               	movwf	??_main
  2298  0799  0871               	movf	??_main,w
  2299  079A  07F6               	addwf	main@HOUR_COUNT,f
  2300                           
  2301                           ;main.c: 108: if(HOUR_COUNT>23)
  2302  079B  3018               	movlw	24
  2303  079C  0276               	subwf	main@HOUR_COUNT,w
  2304  079D  1803               	btfsc	3,0
  2305                           
  2306                           ;main.c: 109: {
  2307                           ;main.c: 110: HOUR_COUNT=0;
  2308  079E  01F6               	clrf	main@HOUR_COUNT
  2309                           
  2310                           ;main.c: 111: }
  2311                           ;main.c: 113: RC4 = !(HOUR_COUNT & 0x01);
  2312  079F  1876               	btfsc	main@HOUR_COUNT,0
  2313  07A0  2FA4               	goto	u830
  2314  07A1  0020               	movlb	0	; select bank0
  2315  07A2  160E               	bsf	14,4	;volatile
  2316  07A3  2FA6               	goto	l761
  2317  07A4                     u830:	
  2318  07A4  0020               	movlb	0	; select bank0
  2319  07A5  120E               	bcf	14,4	;volatile
  2320  07A6                     l761:	
  2321                           
  2322                           ;main.c: 114: RC3 = !((HOUR_COUNT & 0x02) >> 1);
  2323  07A6  0876               	movf	main@HOUR_COUNT,w
  2324  07A7  00F1               	movwf	??_main
  2325  07A8  3001               	movlw	1
  2326  07A9                     u855:	
  2327  07A9  36F1               	lsrf	??_main,f
  2328  07AA  0B89               	decfsz	9,f
  2329  07AB  2FA9               	goto	u855
  2330  07AC  1871               	btfsc	??_main,0
  2331  07AD  2FB1               	goto	u860
  2332  07AE  0020               	movlb	0	; select bank0
  2333  07AF  158E               	bsf	14,3	;volatile
  2334  07B0  2FB3               	goto	l763
  2335  07B1                     u860:	
  2336  07B1  0020               	movlb	0	; select bank0
  2337  07B2  118E               	bcf	14,3	;volatile
  2338  07B3                     l763:	
  2339                           
  2340                           ;main.c: 115: RC2 = !((HOUR_COUNT & 0x04) >> 2);
  2341  07B3  0876               	movf	main@HOUR_COUNT,w
  2342  07B4  00F1               	movwf	??_main
  2343  07B5  3002               	movlw	2
  2344  07B6                     u885:	
  2345  07B6  36F1               	lsrf	??_main,f
  2346  07B7  0B89               	decfsz	9,f
  2347  07B8  2FB6               	goto	u885
  2348  07B9  1871               	btfsc	??_main,0
  2349  07BA  2FBE               	goto	u890
  2350  07BB  0020               	movlb	0	; select bank0
  2351  07BC  150E               	bsf	14,2	;volatile
  2352  07BD  2FC0               	goto	l765
  2353  07BE                     u890:	
  2354  07BE  0020               	movlb	0	; select bank0
  2355  07BF  110E               	bcf	14,2	;volatile
  2356  07C0                     l765:	
  2357                           
  2358                           ;main.c: 116: RC1 = !((HOUR_COUNT & 0x08) >> 3);
  2359  07C0  0876               	movf	main@HOUR_COUNT,w
  2360  07C1  00F1               	movwf	??_main
  2361  07C2  3003               	movlw	3
  2362  07C3                     u915:	
  2363  07C3  36F1               	lsrf	??_main,f
  2364  07C4  0B89               	decfsz	9,f
  2365  07C5  2FC3               	goto	u915
  2366  07C6  1871               	btfsc	??_main,0
  2367  07C7  2FCB               	goto	u920
  2368  07C8  0020               	movlb	0	; select bank0
  2369  07C9  148E               	bsf	14,1	;volatile
  2370  07CA  2FCD               	goto	l767
  2371  07CB                     u920:	
  2372  07CB  0020               	movlb	0	; select bank0
  2373  07CC  108E               	bcf	14,1	;volatile
  2374  07CD                     l767:	
  2375                           
  2376                           ;main.c: 117: RC0 = !((HOUR_COUNT & 0x10) >> 4);
  2377  07CD  0876               	movf	main@HOUR_COUNT,w
  2378  07CE  00F1               	movwf	??_main
  2379  07CF  3004               	movlw	4
  2380  07D0                     u945:	
  2381  07D0  36F1               	lsrf	??_main,f
  2382  07D1  0B89               	decfsz	9,f
  2383  07D2  2FD0               	goto	u945
  2384  07D3  1871               	btfsc	??_main,0
  2385  07D4  2FD8               	goto	u950
  2386  07D5  0020               	movlb	0	; select bank0
  2387  07D6  140E               	bsf	14,0	;volatile
  2388  07D7  2FDA               	goto	l769
  2389  07D8                     u950:	
  2390  07D8  0020               	movlb	0	; select bank0
  2391  07D9  100E               	bcf	14,0	;volatile
  2392  07DA                     l769:	
  2393                           
  2394                           ;main.c: 118: DEBOUNCE = 1;
  2395  07DA  3001               	movlw	1
  2396  07DB  00F3               	movwf	main@DEBOUNCE
  2397  07DC  3000               	movlw	0
  2398  07DD  00F4               	movwf	main@DEBOUNCE+1
  2399  07DE                     l771:	
  2400                           
  2401                           ;main.c: 119: }
  2402                           ;main.c: 121: if (DEBOUNCE>0)
  2403  07DE  0874               	movf	main@DEBOUNCE+1,w
  2404  07DF  3A80               	xorlw	128
  2405  07E0  00F1               	movwf	??_main
  2406  07E1  3080               	movlw	128
  2407  07E2  0271               	subwf	??_main,w
  2408  07E3  1D03               	skipz
  2409  07E4  2FE7               	goto	u975
  2410  07E5  3001               	movlw	1
  2411  07E6  0273               	subwf	main@DEBOUNCE,w
  2412  07E7                     u975:	
  2413  07E7  1C03               	skipc
  2414  07E8  2FED               	goto	l137
  2415                           
  2416                           ;main.c: 122: {
  2417                           ;main.c: 123: DEBOUNCE+=1;
  2418  07E9  3001               	movlw	1
  2419  07EA  07F3               	addwf	main@DEBOUNCE,f
  2420  07EB  3000               	movlw	0
  2421  07EC  3DF4               	addwfc	main@DEBOUNCE+1,f
  2422  07ED                     l137:	
  2423                           
  2424                           ;main.c: 124: }
  2425                           ;main.c: 126: if (DEBOUNCE>500)
  2426  07ED  0874               	movf	main@DEBOUNCE+1,w
  2427  07EE  3A80               	xorlw	128
  2428  07EF  00F1               	movwf	??_main
  2429  07F0  3081               	movlw	129
  2430  07F1  0271               	subwf	??_main,w
  2431  07F2  1D03               	skipz
  2432  07F3  2FF6               	goto	u985
  2433  07F4  30F5               	movlw	245
  2434  07F5  0273               	subwf	main@DEBOUNCE,w
  2435  07F6                     u985:	
  2436  07F6  1C03               	skipc
  2437  07F7  2FFA               	goto	l138
  2438                           
  2439                           ;main.c: 127: {
  2440                           ;main.c: 128: DEBOUNCE=0;
  2441  07F8  01F3               	clrf	main@DEBOUNCE
  2442  07F9  01F4               	clrf	main@DEBOUNCE+1
  2443  07FA                     l138:	
  2444  07FA  0064               	clrwdt	;# 
  2445  07FB  2E32               	goto	l649
  2446  07FC                     __end_of_main:	
  2447                           
  2448                           	psect	text1
  2449  05EC                     __ptext1:	
  2450 ;; *************** function _TMR0_Initialize *****************
  2451 ;; Defined at:
  2452 ;;		line 4 in file "tmr0.c"
  2453 ;; Parameters:    Size  Location     Type
  2454 ;;		None
  2455 ;; Auto vars:     Size  Location     Type
  2456 ;;		None
  2457 ;; Return value:  Size  Location     Type
  2458 ;;                  1    wreg      void 
  2459 ;; Registers used:
  2460 ;;		wreg, status,2
  2461 ;; Tracked objects:
  2462 ;;		On entry : 0/0
  2463 ;;		On exit  : 0/0
  2464 ;;		Unchanged: 0/0
  2465 ;; Data sizes:     COMMON   BANK0   BANK1   BANK2   BANK3   BANK4   BANK5   BANK6   BANK7   BANK8   BANK9  BANK10  BANK1
      +1  BANK12
  2466 ;;      Params:         0       0       0       0       0       0       0       0       0       0       0       0       
      +0       0
  2467 ;;      Locals:         0       0       0       0       0       0       0       0       0       0       0       0       
      +0       0
  2468 ;;      Temps:          0       0       0       0       0       0       0       0       0       0       0       0       
      +0       0
  2469 ;;      Totals:         0       0       0       0       0       0       0       0       0       0       0       0       
      +0       0
  2470 ;;Total ram usage:        0 bytes
  2471 ;; Hardware stack levels used:    1
  2472 ;; This function calls:
  2473 ;;		Nothing
  2474 ;; This function is called by:
  2475 ;;		_main
  2476 ;; This function uses a non-reentrant model
  2477 ;;
  2478                           
  2479                           
  2480                           ;psect for function _TMR0_Initialize
  2481  05EC                     _TMR0_Initialize:	
  2482                           
  2483                           ;tmr0.c: 6: T0CON0 = 0x00;
  2484                           
  2485                           ;incstack = 0
  2486                           ; Regs used in _TMR0_Initialize: [wreg+status,2]
  2487  05EC  0020               	movlb	0	; select bank0
  2488  05ED  019E               	clrf	30	;volatile
  2489                           
  2490                           ;tmr0.c: 8: T0CON1 = 0x17;
  2491  05EE  3017               	movlw	23
  2492  05EF  009F               	movwf	31	;volatile
  2493                           
  2494                           ;tmr0.c: 10: TMR0H = 0xFF;
  2495  05F0  30FF               	movlw	255
  2496  05F1  009D               	movwf	29	;volatile
  2497                           
  2498                           ;tmr0.c: 12: TMR0L = 0x00;
  2499  05F2  019C               	clrf	28	;volatile
  2500                           
  2501                           ;tmr0.c: 14: PIR0bits.TMR0IF = 0;
  2502  05F3  002E               	movlb	14	; select bank14
  2503  05F4  128C               	bcf	12,5	;volatile
  2504                           
  2505                           ;tmr0.c: 16: T0CON0bits.T0EN = 1;
  2506  05F5  0020               	movlb	0	; select bank0
  2507  05F6  179E               	bsf	30,7	;volatile
  2508  05F7  0008               	return
  2509  05F8                     __end_of_TMR0_Initialize:	
  2510                           
  2511                           	psect	text2
  2512  05DE                     __ptext2:	
  2513 ;; *************** function _SYSTEM_Initialize *****************
  2514 ;; Defined at:
  2515 ;;		line 74 in file "system.c"
  2516 ;; Parameters:    Size  Location     Type
  2517 ;;		None
  2518 ;; Auto vars:     Size  Location     Type
  2519 ;;		None
  2520 ;; Return value:  Size  Location     Type
  2521 ;;                  1    wreg      void 
  2522 ;; Registers used:
  2523 ;;		wreg, status,2, status,0, pclath, cstack
  2524 ;; Tracked objects:
  2525 ;;		On entry : 0/0
  2526 ;;		On exit  : 0/0
  2527 ;;		Unchanged: 0/0
  2528 ;; Data sizes:     COMMON   BANK0   BANK1   BANK2   BANK3   BANK4   BANK5   BANK6   BANK7   BANK8   BANK9  BANK10  BANK1
      +1  BANK12
  2529 ;;      Params:         0       0       0       0       0       0       0       0       0       0       0       0       
      +0       0
  2530 ;;      Locals:         0       0       0       0       0       0       0       0       0       0       0       0       
      +0       0
  2531 ;;      Temps:          0       0       0       0       0       0       0       0       0       0       0       0       
      +0       0
  2532 ;;      Totals:         0       0       0       0       0       0       0       0       0       0       0       0       
      +0       0
  2533 ;;Total ram usage:        0 bytes
  2534 ;; Hardware stack levels used:    1
  2535 ;; Hardware stack levels required when called:    1
  2536 ;; This function calls:
  2537 ;;		_OSCILLATOR_Initialize
  2538 ;;		_PIN_MANAGER_Initialize
  2539 ;; This function is called by:
  2540 ;;		_main
  2541 ;; This function uses a non-reentrant model
  2542 ;;
  2543                           
  2544                           
  2545                           ;psect for function _SYSTEM_Initialize
  2546  05DE                     _SYSTEM_Initialize:	
  2547                           
  2548                           ;system.c: 76: PIN_MANAGER_Initialize();
  2549                           
  2550                           ;incstack = 0
  2551                           ; Regs used in _SYSTEM_Initialize: [wreg+status,2+status,0+pclath+cstack]
  2552  05DE  3185  25F8  3185   	fcall	_PIN_MANAGER_Initialize
  2553                           
  2554                           ;system.c: 77: OSCILLATOR_Initialize();
  2555  05E1  3185  25E4         	fcall	_OSCILLATOR_Initialize
  2556  05E3  0008               	return
  2557  05E4                     __end_of_SYSTEM_Initialize:	
  2558                           
  2559                           	psect	text3
  2560  05F8                     __ptext3:	
  2561 ;; *************** function _PIN_MANAGER_Initialize *****************
  2562 ;; Defined at:
  2563 ;;		line 36 in file "system.c"
  2564 ;; Parameters:    Size  Location     Type
  2565 ;;		None
  2566 ;; Auto vars:     Size  Location     Type
  2567 ;;  state           1    0[COMMON] unsigned char 
  2568 ;; Return value:  Size  Location     Type
  2569 ;;                  1    wreg      void 
  2570 ;; Registers used:
  2571 ;;		wreg, status,2, status,0
  2572 ;; Tracked objects:
  2573 ;;		On entry : 0/0
  2574 ;;		On exit  : 0/0
  2575 ;;		Unchanged: 0/0
  2576 ;; Data sizes:     COMMON   BANK0   BANK1   BANK2   BANK3   BANK4   BANK5   BANK6   BANK7   BANK8   BANK9  BANK10  BANK1
      +1  BANK12
  2577 ;;      Params:         0       0       0       0       0       0       0       0       0       0       0       0       
      +0       0
  2578 ;;      Locals:         1       0       0       0       0       0       0       0       0       0       0       0       
      +0       0
  2579 ;;      Temps:          0       0       0       0       0       0       0       0       0       0       0       0       
      +0       0
  2580 ;;      Totals:         1       0       0       0       0       0       0       0       0       0       0       0       
      +0       0
  2581 ;;Total ram usage:        1 bytes
  2582 ;; Hardware stack levels used:    1
  2583 ;; This function calls:
  2584 ;;		Nothing
  2585 ;; This function is called by:
  2586 ;;		_SYSTEM_Initialize
  2587 ;; This function uses a non-reentrant model
  2588 ;;
  2589                           
  2590                           
  2591                           ;psect for function _PIN_MANAGER_Initialize
  2592  05F8                     _PIN_MANAGER_Initialize:	
  2593                           
  2594                           ;system.c: 38: LATA = 0xEF;
  2595                           
  2596                           ;incstack = 0
  2597                           ; Regs used in _PIN_MANAGER_Initialize: [wreg+status,2+status,0]
  2598  05F8  30EF               	movlw	239
  2599  05F9  0020               	movlb	0	; select bank0
  2600  05FA  0096               	movwf	22	;volatile
  2601                           
  2602                           ;system.c: 39: LATB = 0x1F;
  2603  05FB  301F               	movlw	31
  2604  05FC  0097               	movwf	23	;volatile
  2605                           
  2606                           ;system.c: 40: LATC = 0x1D;
  2607  05FD  301D               	movlw	29
  2608  05FE  0098               	movwf	24	;volatile
  2609                           
  2610                           ;system.c: 42: TRISA = 0x10;
  2611  05FF  3010               	movlw	16
  2612  0600  0091               	movwf	17	;volatile
  2613                           
  2614                           ;system.c: 43: TRISB = 0x00;
  2615  0601  0192               	clrf	18	;volatile
  2616                           
  2617                           ;system.c: 44: TRISC = 0xC0;
  2618  0602  30C0               	movlw	192
  2619  0603  0093               	movwf	19	;volatile
  2620                           
  2621                           ;system.c: 46: ANSELC = 0x00;
  2622  0604  003E               	movlb	30	; select bank30
  2623  0605  01CE               	clrf	78	;volatile
  2624                           
  2625                           ;system.c: 47: ANSELB = 0x00;
  2626  0606  01C3               	clrf	67	;volatile
  2627                           
  2628                           ;system.c: 48: ANSELA = 0x00;
  2629  0607  01B8               	clrf	56	;volatile
  2630                           
  2631                           ;system.c: 50: WPUE = 0x00;
  2632  0608  01E5               	clrf	101	;volatile
  2633                           
  2634                           ;system.c: 51: WPUB = 0x00;
  2635  0609  01C4               	clrf	68	;volatile
  2636                           
  2637                           ;system.c: 52: WPUA = 0x00;
  2638  060A  01B9               	clrf	57	;volatile
  2639                           
  2640                           ;system.c: 53: WPUC = 0x00;
  2641  060B  01CF               	clrf	79	;volatile
  2642                           
  2643                           ;system.c: 55: ODCONA = 0x00;
  2644  060C  01BA               	clrf	58	;volatile
  2645                           
  2646                           ;system.c: 56: ODCONB = 0x00;
  2647  060D  01C5               	clrf	69	;volatile
  2648                           
  2649                           ;system.c: 57: ODCONC = 0x00;
  2650  060E  01D0               	clrf	80	;volatile
  2651                           
  2652                           ;system.c: 59: bool state = (unsigned char)GIE;
  2653  060F  3000               	movlw	0
  2654  0610  1B8B               	btfsc	11,7	;volatile
  2655  0611  3001               	movlw	1
  2656  0612  00F0               	movwf	PIN_MANAGER_Initialize@state
  2657                           
  2658                           ;system.c: 60: GIE = 0;
  2659  0613  138B               	bcf	11,7	;volatile
  2660                           
  2661                           ;system.c: 61: PPSLOCK = 0x55;
  2662  0614  3055               	movlw	85
  2663  0615  003D               	movlb	29	; select bank29
  2664  0616  008F               	movwf	15	;volatile
  2665                           
  2666                           ;system.c: 62: PPSLOCK = 0xAA;
  2667  0617  30AA               	movlw	170
  2668  0618  008F               	movwf	15	;volatile
  2669                           
  2670                           ;system.c: 63: PPSLOCKbits.PPSLOCKED = 0x00;
  2671  0619  100F               	bcf	15,0	;volatile
  2672                           
  2673                           ;system.c: 65: T0CKIPPSbits.T0CKIPPS = 0x04;
  2674  061A  0811               	movf	17,w	;volatile
  2675  061B  39F0               	andlw	-16
  2676  061C  3804               	iorlw	4
  2677  061D  0091               	movwf	17	;volatile
  2678                           
  2679                           ;system.c: 67: PPSLOCK = 0x55;
  2680  061E  3055               	movlw	85
  2681  061F  008F               	movwf	15	;volatile
  2682                           
  2683                           ;system.c: 68: PPSLOCK = 0xAA;
  2684  0620  30AA               	movlw	170
  2685  0621  008F               	movwf	15	;volatile
  2686                           
  2687                           ;system.c: 69: PPSLOCKbits.PPSLOCKED = 0x01;
  2688  0622  140F               	bsf	15,0	;volatile
  2689                           
  2690                           ;system.c: 71: GIE = state;
  2691  0623  1C70               	btfss	PIN_MANAGER_Initialize@state,0
  2692  0624  2E27               	goto	u10
  2693  0625  178B               	bsf	11,7	;volatile
  2694  0626  0008               	return
  2695  0627                     u10:	
  2696  0627  138B               	bcf	11,7	;volatile
  2697  0628  0008               	return
  2698  0629                     __end_of_PIN_MANAGER_Initialize:	
  2699                           
  2700                           	psect	text4
  2701  05E4                     __ptext4:	
  2702 ;; *************** function _OSCILLATOR_Initialize *****************
  2703 ;; Defined at:
  2704 ;;		line 80 in file "system.c"
  2705 ;; Parameters:    Size  Location     Type
  2706 ;;		None
  2707 ;; Auto vars:     Size  Location     Type
  2708 ;;		None
  2709 ;; Return value:  Size  Location     Type
  2710 ;;                  1    wreg      void 
  2711 ;; Registers used:
  2712 ;;		wreg, status,2
  2713 ;; Tracked objects:
  2714 ;;		On entry : 0/0
  2715 ;;		On exit  : 0/0
  2716 ;;		Unchanged: 0/0
  2717 ;; Data sizes:     COMMON   BANK0   BANK1   BANK2   BANK3   BANK4   BANK5   BANK6   BANK7   BANK8   BANK9  BANK10  BANK1
      +1  BANK12
  2718 ;;      Params:         0       0       0       0       0       0       0       0       0       0       0       0       
      +0       0
  2719 ;;      Locals:         0       0       0       0       0       0       0       0       0       0       0       0       
      +0       0
  2720 ;;      Temps:          0       0       0       0       0       0       0       0       0       0       0       0       
      +0       0
  2721 ;;      Totals:         0       0       0       0       0       0       0       0       0       0       0       0       
      +0       0
  2722 ;;Total ram usage:        0 bytes
  2723 ;; Hardware stack levels used:    1
  2724 ;; This function calls:
  2725 ;;		Nothing
  2726 ;; This function is called by:
  2727 ;;		_SYSTEM_Initialize
  2728 ;; This function uses a non-reentrant model
  2729 ;;
  2730                           
  2731                           
  2732                           ;psect for function _OSCILLATOR_Initialize
  2733  05E4                     _OSCILLATOR_Initialize:	
  2734                           
  2735                           ;system.c: 82: OSCCON1 = 0x62;
  2736                           
  2737                           ;incstack = 0
  2738                           ; Regs used in _OSCILLATOR_Initialize: [wreg+status,2]
  2739  05E4  3062               	movlw	98
  2740  05E5  0031               	movlb	17	; select bank17
  2741  05E6  008D               	movwf	13	;volatile
  2742                           
  2743                           ;system.c: 84: OSCCON3 = 0x00;
  2744  05E7  018F               	clrf	15	;volatile
  2745                           
  2746                           ;system.c: 86: OSCEN = 0x00;
  2747  05E8  0191               	clrf	17	;volatile
  2748                           
  2749                           ;system.c: 88: OSCFRQ = 0x00;
  2750  05E9  0193               	clrf	19	;volatile
  2751                           
  2752                           ;system.c: 90: OSCTUNE = 0x00;
  2753  05EA  0192               	clrf	18	;volatile
  2754  05EB  0008               	return
  2755  05EC                     __end_of_OSCILLATOR_Initialize:	
  2756  007E                     btemp	set	126	;btemp
  2757  007E                     wtemp	set	126
  2758  007E                     wtemp0	set	126
  2759  0080                     wtemp1	set	128
  2760  0082                     wtemp2	set	130
  2761  0084                     wtemp3	set	132
  2762  0086                     wtemp4	set	134
  2763  0088                     wtemp5	set	136
  2764  007F                     wtemp6	set	127
  2765  007E                     ttemp	set	126
  2766  007E                     ttemp0	set	126
  2767  0081                     ttemp1	set	129
  2768  0084                     ttemp2	set	132
  2769  0087                     ttemp3	set	135
  2770  007F                     ttemp4	set	127
  2771  007E                     ltemp	set	126
  2772  007E                     ltemp0	set	126
  2773  0082                     ltemp1	set	130
  2774  0086                     ltemp2	set	134
  2775  0080                     ltemp3	set	128


Data Sizes:
    Strings     0
    Constant    0
    Data        0
    BSS         0
    Persistent  0
    Stack       0

Auto Spaces:
    Space          Size  Autos    Used
    COMMON           14      8       9
    BANK0            80      0       0
    BANK1            80      0       0
    BANK2            80      0       0
    BANK3            80      0       0
    BANK4            80      0       0
    BANK5            80      0       0
    BANK6            80      0       0
    BANK7            80      0       0
    BANK8            80      0       0
    BANK9            80      0       0
    BANK10           80      0       0
    BANK11           80      0       0
    BANK12           48      0       0

Pointer List with Targets:

    None.

Critical Paths under _main in COMMON

    _SYSTEM_Initialize->_PIN_MANAGER_Initialize

Critical Paths under _main in BANK0

    None.

Critical Paths under _main in BANK1

    None.

Critical Paths under _main in BANK2

    None.

Critical Paths under _main in BANK3

    None.

Critical Paths under _main in BANK4

    None.

Critical Paths under _main in BANK5

    None.

Critical Paths under _main in BANK6

    None.

Critical Paths under _main in BANK7

    None.

Critical Paths under _main in BANK8

    None.

Critical Paths under _main in BANK9

    None.

Critical Paths under _main in BANK10

    None.

Critical Paths under _main in BANK11

    None.

Critical Paths under _main in BANK12

    None.

Call Graph Tables:

 ---------------------------------------------------------------------------------
 (Depth) Function   	        Calls       Base Space   Used Autos Params    Refs
 ---------------------------------------------------------------------------------
 (0) _main                                                 7     7      0     600
                                              1 COMMON     7     7      0
                  _SYSTEM_Initialize
                    _TMR0_Initialize
 ---------------------------------------------------------------------------------
 (1) _TMR0_Initialize                                      0     0      0       0
 ---------------------------------------------------------------------------------
 (1) _SYSTEM_Initialize                                    0     0      0      15
              _OSCILLATOR_Initialize
             _PIN_MANAGER_Initialize
 ---------------------------------------------------------------------------------
 (2) _PIN_MANAGER_Initialize                               1     1      0      15
                                              0 COMMON     1     1      0
 ---------------------------------------------------------------------------------
 (2) _OSCILLATOR_Initialize                                0     0      0       0
 ---------------------------------------------------------------------------------
 Estimated maximum stack depth 2
 ---------------------------------------------------------------------------------

 Call Graph Graphs:

 _main (ROOT)
   _SYSTEM_Initialize
     _OSCILLATOR_Initialize
     _PIN_MANAGER_Initialize
   _TMR0_Initialize

 Address spaces:
Name               Size   Autos  Total    Cost      Usage
BIGRAM             3F0      0       0       0        0.0%
EEDATA             100      0       0       0        0.0%
NULL                 0      0       0       0        0.0%
CODE                 0      0       0       0        0.0%
BITCOMMON            E      0       1       1        7.1%
BITSFR0              0      0       0       1        0.0%
SFR0                 0      0       0       1        0.0%
COMMON               E      8       9       2       64.3%
BITSFR1              0      0       0       2        0.0%
SFR1                 0      0       0       2        0.0%
BITSFR2              0      0       0       3        0.0%
SFR2                 0      0       0       3        0.0%
STACK                0      0       0       3        0.0%
BITBANK0            50      0       0       4        0.0%
BITSFR3              0      0       0       4        0.0%
SFR3                 0      0       0       4        0.0%
BANK0               50      0       0       5        0.0%
BITSFR4              0      0       0       5        0.0%
SFR4                 0      0       0       5        0.0%
BITBANK1            50      0       0       6        0.0%
BITSFR5              0      0       0       6        0.0%
SFR5                 0      0       0       6        0.0%
BANK1               50      0       0       7        0.0%
BITSFR6              0      0       0       7        0.0%
SFR6                 0      0       0       7        0.0%
BITBANK2            50      0       0       8        0.0%
BITSFR7              0      0       0       8        0.0%
SFR7                 0      0       0       8        0.0%
BANK2               50      0       0       9        0.0%
BITSFR8              0      0       0       9        0.0%
SFR8                 0      0       0       9        0.0%
BITBANK3            50      0       0      10        0.0%
BITSFR9              0      0       0      10        0.0%
SFR9                 0      0       0      10        0.0%
BANK3               50      0       0      11        0.0%
BITSFR10             0      0       0      11        0.0%
SFR10                0      0       0      11        0.0%
BITBANK4            50      0       0      12        0.0%
BITSFR11             0      0       0      12        0.0%
SFR11                0      0       0      12        0.0%
BANK4               50      0       0      13        0.0%
BITSFR12             0      0       0      13        0.0%
SFR12                0      0       0      13        0.0%
BITBANK5            50      0       0      14        0.0%
BITSFR13             0      0       0      14        0.0%
SFR13                0      0       0      14        0.0%
BANK5               50      0       0      15        0.0%
BITSFR14             0      0       0      15        0.0%
SFR14                0      0       0      15        0.0%
BITBANK6            50      0       0      16        0.0%
BITSFR15             0      0       0      16        0.0%
SFR15                0      0       0      16        0.0%
BANK6               50      0       0      17        0.0%
BITSFR16             0      0       0      17        0.0%
SFR16                0      0       0      17        0.0%
BITBANK7            50      0       0      18        0.0%
BITSFR17             0      0       0      18        0.0%
SFR17                0      0       0      18        0.0%
BANK7               50      0       0      19        0.0%
BITSFR18             0      0       0      19        0.0%
SFR18                0      0       0      19        0.0%
BITSFR19             0      0       0      20        0.0%
SFR19                0      0       0      20        0.0%
ABS                  0      0       9      20        0.0%
BITBANK8            50      0       0      21        0.0%
BITSFR20             0      0       0      21        0.0%
SFR20                0      0       0      21        0.0%
BANK8               50      0       0      22        0.0%
BITSFR21             0      0       0      22        0.0%
SFR21                0      0       0      22        0.0%
BITBANK9            50      0       0      23        0.0%
BITSFR22             0      0       0      23        0.0%
SFR22                0      0       0      23        0.0%
BANK9               50      0       0      24        0.0%
BITSFR23             0      0       0      24        0.0%
SFR23                0      0       0      24        0.0%
BITBANK10           50      0       0      25        0.0%
BITSFR24             0      0       0      25        0.0%
SFR24                0      0       0      25        0.0%
BANK10              50      0       0      26        0.0%
BITSFR25             0      0       0      26        0.0%
SFR25                0      0       0      26        0.0%
BITBANK11           50      0       0      27        0.0%
BITSFR26             0      0       0      27        0.0%
SFR26                0      0       0      27        0.0%
BANK11              50      0       0      28        0.0%
BITSFR27             0      0       0      28        0.0%
SFR27                0      0       0      28        0.0%
BITBANK12           30      0       0      29        0.0%
BITSFR28             0      0       0      29        0.0%
SFR28                0      0       0      29        0.0%
BANK12              30      0       0      30        0.0%
BITSFR29             0      0       0      30        0.0%
SFR29                0      0       0      30        0.0%
BITSFR30             0      0       0      31        0.0%
SFR30                0      0       0      31        0.0%
DATA                 0      0       9      31        0.0%
BITSFR31             0      0       0      32        0.0%
SFR31                0      0       0      32        0.0%


Microchip Technology PIC Macro Assembler V1.38 build -256452561 
Symbol Table                                                                                   Wed Jul 19 11:59:41 2017

                    __CFG_CP$OFF 0000                               u10 0627                               u60 064D  
                             u90 065A                               u85 0652                      __CFG_LVP$ON 0000  
                            l126 063A                              l137 07ED                              l138 07FA  
                            l701 06E5                              l713 06F7                              l721 072B  
                            l715 0704                              l741 0766                              l717 0711  
                            l743 0773                              l735 0745                              l719 071E  
                            l671 0669                              l761 07A6                              l745 0780  
                            l737 074C                              l673 0676                              l665 0648  
                            l649 0632                              l763 07B3                              l771 07DE  
                            l747 078D                              l739 0759                              l691 06A4  
                            l675 0683                              l667 064F                              l765 07C0  
                            l749 0791                              l693 06B1                              l669 065C  
                            l677 0690                              l767 07CD                              l695 06BE  
                            l769 07DA                              l697 06CB                              l689 069D  
                            l699 06D8                              _GIE 005F                              _RA0 0060  
                            _RA1 0061                              _RB0 0068                              _RA2 0062  
                            _RB1 0069                              _RA3 0063                              _RC0 0070  
                            _RB2 006A                              _RC1 0071                              _RB3 006B  
                            _RA5 0065                              _RC2 0072                              _RB4 006C  
                            _RA6 0066                              _RC3 0073                              _RA7 0067  
                            _RC4 0074                              _RC6 0076                              _RC7 0077  
                            u120 0667                              u210 068E                              u115 065F  
                            u205 0686                              u310 06BC                              u150 0674  
                            u400 06E3                              u305 06B4                              u145 066C  
                            u250 06A2                              u500 070F                              u340 06C9  
                            u180 0681                              u335 06C1                              u175 0679  
                            u440 06F5                              u280 06AF                              u610 0743  
                            u530 071C                              u370 06D6                     __CFG_CPD$OFF 0000  
                            u275 06A7                              u525 0714                              u365 06CE  
                            u630 074A                              u470 0702                              u720 0771  
                            u560 0729                              u465 06FA                              u715 0769  
                            u555 0721                              u395 06DB                              u660 0757  
                            u830 07A4                              u750 077E                              u655 074F  
                            u495 0707                              u920 07CB                              u745 0776  
                            u690 0764                              u915 07C3                              u860 07B1  
                            u780 078B                              u685 075C                              u950 07D8  
                            u855 07A9                              u775 0783                              u945 07D0  
                            u890 07BE                              u885 07B6                              u975 07E7  
                            u985 07F6                     __CFG_BORV$LO 0000                              wreg 0009  
                   __CFG_ZCD$OFF 0000                     __CFG_WDTE$ON 0000                             _LATA 0016  
                           _LATB 0017                             _LATC 0018                             _WPUA 0F39  
                           _WPUB 0F44                             _WPUC 0F4F                             _WPUE 0F65  
                   __CFG_WRT$OFF 0000                    __CFG_FCMEN$ON 0000                             _main 0629  
                           btemp 007E                             ltemp 007E                             start 0002  
                           ttemp 007E                             wtemp 007E                    __CFG_CSWEN$ON 0000  
                  __CFG_MCLRE$ON 0000          __end_of_TMR0_Initialize 05F8   __size_of_OSCILLATOR_Initialize 0008  
  __end_of_OSCILLATOR_Initialize 05EC                            ?_main 0070                            _OSCEN 0891  
                          _TMR0H 001D                            _TMR0L 001C                            _TRISA 0011  
                          _TRISB 0012                            _TRISC 0013                    __CFG_PWRTE$ON 0000  
                 __pbitbssCOMMON 03C0                   __CFG_BOREN$OFF 0000                            ltemp0 007E  
                          ltemp1 0082                            ltemp2 0086                            ltemp3 0080  
                          ttemp0 007E                            ttemp1 0081                            ttemp2 0084  
                          ttemp3 0087                            ttemp4 007F                            status 0003  
                          wtemp0 007E                            wtemp1 0080                            wtemp2 0082  
                          wtemp3 0084                            wtemp4 0086                            wtemp5 0088  
                          wtemp6 007F                  __initialization 07FC                     __end_of_main 07FC  
                         ??_main 0071                           _ANSELA 0F38                           _ANSELB 0F43  
                         _ANSELC 0F4E               __CFG_RSTOSC$HFINT1 0000                           _T0CON0 001E  
                         _T0CON1 001F                           _ODCONA 0F3A                           _ODCONB 0F45  
                         _ODCONC 0F50                   __CFG_WDTCCS$SC 0000                           _OSCFRQ 0893  
                         _TMR0IF 3865                   __CFG_STVREN$ON 0000                 ?_TMR0_Initialize 0070  
              _SYSTEM_Initialize 05DE          __end_of__initialization 07FD               ?_SYSTEM_Initialize 0070  
                 __pcstackCOMMON 0070              ??_SYSTEM_Initialize 0071                     _T0CKIPPSbits 0E91  
      __end_of_SYSTEM_Initialize 05E4                       __pmaintext 0629                  __CFG_PPS1WAY$ON 0000  
                        _OSCCON1 088D                          _OSCCON3 088F                          _OSCTUNE 0892  
                        _PPSLOCK 0E8F             __CFG_SCANE$available 0000                          __ptext1 05EC  
                        __ptext2 05DE                          __ptext3 05F8                          __ptext4 05E4  
          _OSCILLATOR_Initialize 05E4         ??_PIN_MANAGER_Initialize 0070       __size_of_SYSTEM_Initialize 0006  
                        main@sec 0072             end_of_initialization 07FD            __CFG_WDTCPS$WDTCPS_31 0000  
               __CFG_FEXTOSC$OFF 0000           ?_OSCILLATOR_Initialize 0070              start_initialization 07FC  
       __size_of_TMR0_Initialize 000C  __size_of_PIN_MANAGER_Initialize 0031                 __CFG_LPBOREN$OFF 0000  
                      ___latbits 0002           _PIN_MANAGER_Initialize 05F8                ??_TMR0_Initialize 0070  
                       _PIR0bits 070C          ??_OSCILLATOR_Initialize 0070                       _T0CON0bits 001E  
                  __size_of_main 01D3             __CFG_WDTCWS$WDTCWS_7 0000                   main@HOUR_COUNT 0076  
    PIN_MANAGER_Initialize@state 0070                    main@INCREMENT 03C0          ?_PIN_MANAGER_Initialize 0070  
              __CFG_CLKOUTEN$OFF 0000                      _PPSLOCKbits 0E8F                     main@DEBOUNCE 0073  
                  main@MIN_COUNT 0077                    main@SEC_COUNT 0075                  _TMR0_Initialize 05EC  
 __end_of_PIN_MANAGER_Initialize 0629  
