

Microchip Technology PIC LITE Macro Assembler V1.38 build -256452561 
                                                                                               Mon Apr 09 18:11:07 2018

Microchip Technology Omniscient Code Generator v1.38 (Free mode) build 201607010351
     1                           	processor	16F18855
     2                           	opt	pw 120
     3                           	opt	lm
     4                           	psect	stringtext,global,class=STRCODE,delta=2
     5                           	psect	cinit,global,class=CODE,merge=1,delta=2
     6                           	psect	bssBANK0,global,class=BANK0,space=1,delta=1
     7                           	psect	cstackCOMMON,global,class=COMMON,space=1,delta=1
     8                           	psect	cstackBANK0,global,class=BANK0,space=1,delta=1
     9                           	psect	maintext,global,class=CODE,merge=1,split=1,delta=2
    10                           	psect	text1,local,class=CODE,merge=1,delta=2
    11                           	psect	text2,local,class=CODE,merge=1,delta=2
    12                           	psect	text3,local,class=CODE,merge=1,delta=2
    13                           	psect	text4,local,class=CODE,merge=1,delta=2
    14                           	psect	text5,local,class=CODE,merge=1,delta=2
    15                           	psect	text6,local,class=CODE,merge=1,delta=2
    16                           	psect	text7,local,class=CODE,merge=1,delta=2
    17                           	psect	text8,local,class=CODE,merge=1,delta=2
    18                           	psect	text9,local,class=CODE,merge=1,delta=2
    19                           	psect	text10,local,class=CODE,merge=1,delta=2
    20                           	psect	text11,local,class=CODE,merge=1,delta=2
    21                           	psect	text12,local,class=CODE,merge=1,delta=2
    22                           	psect	text13,local,class=CODE,merge=1,delta=2
    23                           	psect	text14,local,class=CODE,merge=1,delta=2
    24                           	dabs	1,0x7E,2
    25  0000                     	;# 
    26  0001                     	;# 
    27  0002                     	;# 
    28  0003                     	;# 
    29  0004                     	;# 
    30  0005                     	;# 
    31  0006                     	;# 
    32  0007                     	;# 
    33  0008                     	;# 
    34  0009                     	;# 
    35  000A                     	;# 
    36  000B                     	;# 
    37  000C                     	;# 
    38  000D                     	;# 
    39  000E                     	;# 
    40  0010                     	;# 
    41  0011                     	;# 
    42  0012                     	;# 
    43  0013                     	;# 
    44  0016                     	;# 
    45  0017                     	;# 
    46  0018                     	;# 
    47  001C                     	;# 
    48  001C                     	;# 
    49  001D                     	;# 
    50  001D                     	;# 
    51  001E                     	;# 
    52  001F                     	;# 
    53  008C                     	;# 
    54  008C                     	;# 
    55  008D                     	;# 
    56  008E                     	;# 
    57  008E                     	;# 
    58  008F                     	;# 
    59  0090                     	;# 
    60  0090                     	;# 
    61  0091                     	;# 
    62  0093                     	;# 
    63  0094                     	;# 
    64  0095                     	;# 
    65  0096                     	;# 
    66  0097                     	;# 
    67  0098                     	;# 
    68  0099                     	;# 
    69  009A                     	;# 
    70  009B                     	;# 
    71  009C                     	;# 
    72  009D                     	;# 
    73  009E                     	;# 
    74  010C                     	;# 
    75  010D                     	;# 
    76  010E                     	;# 
    77  010E                     	;# 
    78  010F                     	;# 
    79  0110                     	;# 
    80  0110                     	;# 
    81  0111                     	;# 
    82  0112                     	;# 
    83  0112                     	;# 
    84  0113                     	;# 
    85  0114                     	;# 
    86  0114                     	;# 
    87  0115                     	;# 
    88  0116                     	;# 
    89  0116                     	;# 
    90  0117                     	;# 
    91  0119                     	;# 
    92  0119                     	;# 
    93  0119                     	;# 
    94  011A                     	;# 
    95  011A                     	;# 
    96  011A                     	;# 
    97  011B                     	;# 
    98  011B                     	;# 
    99  011B                     	;# 
   100  011B                     	;# 
   101  011B                     	;# 
   102  011C                     	;# 
   103  011C                     	;# 
   104  011C                     	;# 
   105  011D                     	;# 
   106  011D                     	;# 
   107  011D                     	;# 
   108  011E                     	;# 
   109  011E                     	;# 
   110  011E                     	;# 
   111  011F                     	;# 
   112  011F                     	;# 
   113  011F                     	;# 
   114  011F                     	;# 
   115  011F                     	;# 
   116  018C                     	;# 
   117  018D                     	;# 
   118  018E                     	;# 
   119  018F                     	;# 
   120  0190                     	;# 
   121  0191                     	;# 
   122  0192                     	;# 
   123  0196                     	;# 
   124  0197                     	;# 
   125  0198                     	;# 
   126  0199                     	;# 
   127  019A                     	;# 
   128  019B                     	;# 
   129  019C                     	;# 
   130  020C                     	;# 
   131  020D                     	;# 
   132  020E                     	;# 
   133  020F                     	;# 
   134  020F                     	;# 
   135  0210                     	;# 
   136  0210                     	;# 
   137  0211                     	;# 
   138  0211                     	;# 
   139  0212                     	;# 
   140  0213                     	;# 
   141  0214                     	;# 
   142  0215                     	;# 
   143  0215                     	;# 
   144  0216                     	;# 
   145  0216                     	;# 
   146  0217                     	;# 
   147  0217                     	;# 
   148  0218                     	;# 
   149  0219                     	;# 
   150  021A                     	;# 
   151  021B                     	;# 
   152  021B                     	;# 
   153  021C                     	;# 
   154  021C                     	;# 
   155  021D                     	;# 
   156  021D                     	;# 
   157  021E                     	;# 
   158  021F                     	;# 
   159  028C                     	;# 
   160  028C                     	;# 
   161  028D                     	;# 
   162  028D                     	;# 
   163  028E                     	;# 
   164  028F                     	;# 
   165  0290                     	;# 
   166  0290                     	;# 
   167  0291                     	;# 
   168  0292                     	;# 
   169  0292                     	;# 
   170  0293                     	;# 
   171  0293                     	;# 
   172  0294                     	;# 
   173  0295                     	;# 
   174  0296                     	;# 
   175  0296                     	;# 
   176  0297                     	;# 
   177  0298                     	;# 
   178  0298                     	;# 
   179  0299                     	;# 
   180  0299                     	;# 
   181  029A                     	;# 
   182  029B                     	;# 
   183  029C                     	;# 
   184  029C                     	;# 
   185  029D                     	;# 
   186  030C                     	;# 
   187  030C                     	;# 
   188  030D                     	;# 
   189  030E                     	;# 
   190  030F                     	;# 
   191  0310                     	;# 
   192  0310                     	;# 
   193  0311                     	;# 
   194  0312                     	;# 
   195  0313                     	;# 
   196  0314                     	;# 
   197  0314                     	;# 
   198  0315                     	;# 
   199  0316                     	;# 
   200  0317                     	;# 
   201  0318                     	;# 
   202  0318                     	;# 
   203  0319                     	;# 
   204  031A                     	;# 
   205  031B                     	;# 
   206  031C                     	;# 
   207  031C                     	;# 
   208  031D                     	;# 
   209  031E                     	;# 
   210  031F                     	;# 
   211  038C                     	;# 
   212  038D                     	;# 
   213  038E                     	;# 
   214  0390                     	;# 
   215  0391                     	;# 
   216  0392                     	;# 
   217  040C                     	;# 
   218  040D                     	;# 
   219  040E                     	;# 
   220  040F                     	;# 
   221  0410                     	;# 
   222  0411                     	;# 
   223  0416                     	;# 
   224  0416                     	;# 
   225  0417                     	;# 
   226  0418                     	;# 
   227  0418                     	;# 
   228  0419                     	;# 
   229  041A                     	;# 
   230  041A                     	;# 
   231  041B                     	;# 
   232  041C                     	;# 
   233  041C                     	;# 
   234  041D                     	;# 
   235  041E                     	;# 
   236  041F                     	;# 
   237  048C                     	;# 
   238  048C                     	;# 
   239  048D                     	;# 
   240  048E                     	;# 
   241  048F                     	;# 
   242  048F                     	;# 
   243  0490                     	;# 
   244  0491                     	;# 
   245  0492                     	;# 
   246  0492                     	;# 
   247  0493                     	;# 
   248  0494                     	;# 
   249  0495                     	;# 
   250  0495                     	;# 
   251  0496                     	;# 
   252  0497                     	;# 
   253  0498                     	;# 
   254  0499                     	;# 
   255  049A                     	;# 
   256  049B                     	;# 
   257  049C                     	;# 
   258  049D                     	;# 
   259  050C                     	;# 
   260  050C                     	;# 
   261  050D                     	;# 
   262  050E                     	;# 
   263  050F                     	;# 
   264  050F                     	;# 
   265  0510                     	;# 
   266  0511                     	;# 
   267  0512                     	;# 
   268  0512                     	;# 
   269  0513                     	;# 
   270  0514                     	;# 
   271  0515                     	;# 
   272  0515                     	;# 
   273  0516                     	;# 
   274  0517                     	;# 
   275  0518                     	;# 
   276  0519                     	;# 
   277  051A                     	;# 
   278  051B                     	;# 
   279  051C                     	;# 
   280  051D                     	;# 
   281  058C                     	;# 
   282  058C                     	;# 
   283  058D                     	;# 
   284  058E                     	;# 
   285  058F                     	;# 
   286  058F                     	;# 
   287  0590                     	;# 
   288  0591                     	;# 
   289  0592                     	;# 
   290  0593                     	;# 
   291  060C                     	;# 
   292  060D                     	;# 
   293  060E                     	;# 
   294  060F                     	;# 
   295  0610                     	;# 
   296  0611                     	;# 
   297  0612                     	;# 
   298  0613                     	;# 
   299  0614                     	;# 
   300  0616                     	;# 
   301  0617                     	;# 
   302  0618                     	;# 
   303  0619                     	;# 
   304  061A                     	;# 
   305  061B                     	;# 
   306  061C                     	;# 
   307  061D                     	;# 
   308  061E                     	;# 
   309  068C                     	;# 
   310  068D                     	;# 
   311  068E                     	;# 
   312  068F                     	;# 
   313  0690                     	;# 
   314  0691                     	;# 
   315  0692                     	;# 
   316  0693                     	;# 
   317  0694                     	;# 
   318  070C                     	;# 
   319  070D                     	;# 
   320  070E                     	;# 
   321  070F                     	;# 
   322  0710                     	;# 
   323  0711                     	;# 
   324  0712                     	;# 
   325  0713                     	;# 
   326  0714                     	;# 
   327  0716                     	;# 
   328  0717                     	;# 
   329  0718                     	;# 
   330  0719                     	;# 
   331  071A                     	;# 
   332  071B                     	;# 
   333  071C                     	;# 
   334  071D                     	;# 
   335  071E                     	;# 
   336  0796                     	;# 
   337  0797                     	;# 
   338  0798                     	;# 
   339  0799                     	;# 
   340  079A                     	;# 
   341  079B                     	;# 
   342  080C                     	;# 
   343  080D                     	;# 
   344  080E                     	;# 
   345  080F                     	;# 
   346  0810                     	;# 
   347  0811                     	;# 
   348  0812                     	;# 
   349  0813                     	;# 
   350  0814                     	;# 
   351  081A                     	;# 
   352  081B                     	;# 
   353  081C                     	;# 
   354  081D                     	;# 
   355  081E                     	;# 
   356  081F                     	;# 
   357  088C                     	;# 
   358  088D                     	;# 
   359  088E                     	;# 
   360  088F                     	;# 
   361  0890                     	;# 
   362  0891                     	;# 
   363  0892                     	;# 
   364  0893                     	;# 
   365  0895                     	;# 
   366  0896                     	;# 
   367  0897                     	;# 
   368  0898                     	;# 
   369  0899                     	;# 
   370  089A                     	;# 
   371  089B                     	;# 
   372  090C                     	;# 
   373  090E                     	;# 
   374  090F                     	;# 
   375  091F                     	;# 
   376  091F                     	;# 
   377  098F                     	;# 
   378  098F                     	;# 
   379  0990                     	;# 
   380  0991                     	;# 
   381  0992                     	;# 
   382  0993                     	;# 
   383  0994                     	;# 
   384  0995                     	;# 
   385  0996                     	;# 
   386  0997                     	;# 
   387  0E0F                     	;# 
   388  0E10                     	;# 
   389  0E11                     	;# 
   390  0E12                     	;# 
   391  0E13                     	;# 
   392  0E14                     	;# 
   393  0E15                     	;# 
   394  0E16                     	;# 
   395  0E17                     	;# 
   396  0E18                     	;# 
   397  0E19                     	;# 
   398  0E1A                     	;# 
   399  0E1B                     	;# 
   400  0E1C                     	;# 
   401  0E1D                     	;# 
   402  0E1E                     	;# 
   403  0E1F                     	;# 
   404  0E20                     	;# 
   405  0E21                     	;# 
   406  0E22                     	;# 
   407  0E23                     	;# 
   408  0E24                     	;# 
   409  0E25                     	;# 
   410  0E26                     	;# 
   411  0E27                     	;# 
   412  0E28                     	;# 
   413  0E29                     	;# 
   414  0E2A                     	;# 
   415  0E2B                     	;# 
   416  0E2C                     	;# 
   417  0E2D                     	;# 
   418  0E2E                     	;# 
   419  0E2F                     	;# 
   420  0E30                     	;# 
   421  0E31                     	;# 
   422  0E32                     	;# 
   423  0E33                     	;# 
   424  0E34                     	;# 
   425  0E35                     	;# 
   426  0E36                     	;# 
   427  0E37                     	;# 
   428  0E8F                     	;# 
   429  0E90                     	;# 
   430  0E91                     	;# 
   431  0E92                     	;# 
   432  0E93                     	;# 
   433  0E94                     	;# 
   434  0E95                     	;# 
   435  0E96                     	;# 
   436  0E97                     	;# 
   437  0E9C                     	;# 
   438  0E9D                     	;# 
   439  0E9E                     	;# 
   440  0EA1                     	;# 
   441  0EA2                     	;# 
   442  0EA3                     	;# 
   443  0EA4                     	;# 
   444  0EA5                     	;# 
   445  0EA9                     	;# 
   446  0EAA                     	;# 
   447  0EAB                     	;# 
   448  0EAC                     	;# 
   449  0EB1                     	;# 
   450  0EB2                     	;# 
   451  0EB3                     	;# 
   452  0EB8                     	;# 
   453  0EB9                     	;# 
   454  0EBA                     	;# 
   455  0EBB                     	;# 
   456  0EBC                     	;# 
   457  0EBD                     	;# 
   458  0EBE                     	;# 
   459  0EC3                     	;# 
   460  0EC5                     	;# 
   461  0EC6                     	;# 
   462  0EC7                     	;# 
   463  0EC8                     	;# 
   464  0EC9                     	;# 
   465  0ECA                     	;# 
   466  0ECB                     	;# 
   467  0ECC                     	;# 
   468  0F10                     	;# 
   469  0F11                     	;# 
   470  0F12                     	;# 
   471  0F13                     	;# 
   472  0F14                     	;# 
   473  0F15                     	;# 
   474  0F16                     	;# 
   475  0F17                     	;# 
   476  0F18                     	;# 
   477  0F19                     	;# 
   478  0F1A                     	;# 
   479  0F1B                     	;# 
   480  0F1C                     	;# 
   481  0F1D                     	;# 
   482  0F1E                     	;# 
   483  0F1F                     	;# 
   484  0F20                     	;# 
   485  0F21                     	;# 
   486  0F22                     	;# 
   487  0F23                     	;# 
   488  0F24                     	;# 
   489  0F25                     	;# 
   490  0F26                     	;# 
   491  0F27                     	;# 
   492  0F38                     	;# 
   493  0F39                     	;# 
   494  0F3A                     	;# 
   495  0F3B                     	;# 
   496  0F3C                     	;# 
   497  0F3D                     	;# 
   498  0F3E                     	;# 
   499  0F3F                     	;# 
   500  0F40                     	;# 
   501  0F41                     	;# 
   502  0F43                     	;# 
   503  0F44                     	;# 
   504  0F45                     	;# 
   505  0F46                     	;# 
   506  0F47                     	;# 
   507  0F48                     	;# 
   508  0F49                     	;# 
   509  0F4A                     	;# 
   510  0F4B                     	;# 
   511  0F4C                     	;# 
   512  0F4E                     	;# 
   513  0F4F                     	;# 
   514  0F50                     	;# 
   515  0F51                     	;# 
   516  0F52                     	;# 
   517  0F53                     	;# 
   518  0F54                     	;# 
   519  0F55                     	;# 
   520  0F56                     	;# 
   521  0F57                     	;# 
   522  0F65                     	;# 
   523  0F68                     	;# 
   524  0F69                     	;# 
   525  0F6A                     	;# 
   526  0F6B                     	;# 
   527  0FE4                     	;# 
   528  0FE5                     	;# 
   529  0FE6                     	;# 
   530  0FE7                     	;# 
   531  0FE8                     	;# 
   532  0FE9                     	;# 
   533  0FEA                     	;# 
   534  0FEB                     	;# 
   535  0FED                     	;# 
   536  0FEE                     	;# 
   537  0FEF                     	;# 
   538  0000                     	;# 
   539  0001                     	;# 
   540  0002                     	;# 
   541  0003                     	;# 
   542  0004                     	;# 
   543  0005                     	;# 
   544  0006                     	;# 
   545  0007                     	;# 
   546  0008                     	;# 
   547  0009                     	;# 
   548  000A                     	;# 
   549  000B                     	;# 
   550  000C                     	;# 
   551  000D                     	;# 
   552  000E                     	;# 
   553  0010                     	;# 
   554  0011                     	;# 
   555  0012                     	;# 
   556  0013                     	;# 
   557  0016                     	;# 
   558  0017                     	;# 
   559  0018                     	;# 
   560  001C                     	;# 
   561  001C                     	;# 
   562  001D                     	;# 
   563  001D                     	;# 
   564  001E                     	;# 
   565  001F                     	;# 
   566  008C                     	;# 
   567  008C                     	;# 
   568  008D                     	;# 
   569  008E                     	;# 
   570  008E                     	;# 
   571  008F                     	;# 
   572  0090                     	;# 
   573  0090                     	;# 
   574  0091                     	;# 
   575  0093                     	;# 
   576  0094                     	;# 
   577  0095                     	;# 
   578  0096                     	;# 
   579  0097                     	;# 
   580  0098                     	;# 
   581  0099                     	;# 
   582  009A                     	;# 
   583  009B                     	;# 
   584  009C                     	;# 
   585  009D                     	;# 
   586  009E                     	;# 
   587  010C                     	;# 
   588  010D                     	;# 
   589  010E                     	;# 
   590  010E                     	;# 
   591  010F                     	;# 
   592  0110                     	;# 
   593  0110                     	;# 
   594  0111                     	;# 
   595  0112                     	;# 
   596  0112                     	;# 
   597  0113                     	;# 
   598  0114                     	;# 
   599  0114                     	;# 
   600  0115                     	;# 
   601  0116                     	;# 
   602  0116                     	;# 
   603  0117                     	;# 
   604  0119                     	;# 
   605  0119                     	;# 
   606  0119                     	;# 
   607  011A                     	;# 
   608  011A                     	;# 
   609  011A                     	;# 
   610  011B                     	;# 
   611  011B                     	;# 
   612  011B                     	;# 
   613  011B                     	;# 
   614  011B                     	;# 
   615  011C                     	;# 
   616  011C                     	;# 
   617  011C                     	;# 
   618  011D                     	;# 
   619  011D                     	;# 
   620  011D                     	;# 
   621  011E                     	;# 
   622  011E                     	;# 
   623  011E                     	;# 
   624  011F                     	;# 
   625  011F                     	;# 
   626  011F                     	;# 
   627  011F                     	;# 
   628  011F                     	;# 
   629  018C                     	;# 
   630  018D                     	;# 
   631  018E                     	;# 
   632  018F                     	;# 
   633  0190                     	;# 
   634  0191                     	;# 
   635  0192                     	;# 
   636  0196                     	;# 
   637  0197                     	;# 
   638  0198                     	;# 
   639  0199                     	;# 
   640  019A                     	;# 
   641  019B                     	;# 
   642  019C                     	;# 
   643  020C                     	;# 
   644  020D                     	;# 
   645  020E                     	;# 
   646  020F                     	;# 
   647  020F                     	;# 
   648  0210                     	;# 
   649  0210                     	;# 
   650  0211                     	;# 
   651  0211                     	;# 
   652  0212                     	;# 
   653  0213                     	;# 
   654  0214                     	;# 
   655  0215                     	;# 
   656  0215                     	;# 
   657  0216                     	;# 
   658  0216                     	;# 
   659  0217                     	;# 
   660  0217                     	;# 
   661  0218                     	;# 
   662  0219                     	;# 
   663  021A                     	;# 
   664  021B                     	;# 
   665  021B                     	;# 
   666  021C                     	;# 
   667  021C                     	;# 
   668  021D                     	;# 
   669  021D                     	;# 
   670  021E                     	;# 
   671  021F                     	;# 
   672  028C                     	;# 
   673  028C                     	;# 
   674  028D                     	;# 
   675  028D                     	;# 
   676  028E                     	;# 
   677  028F                     	;# 
   678  0290                     	;# 
   679  0290                     	;# 
   680  0291                     	;# 
   681  0292                     	;# 
   682  0292                     	;# 
   683  0293                     	;# 
   684  0293                     	;# 
   685  0294                     	;# 
   686  0295                     	;# 
   687  0296                     	;# 
   688  0296                     	;# 
   689  0297                     	;# 
   690  0298                     	;# 
   691  0298                     	;# 
   692  0299                     	;# 
   693  0299                     	;# 
   694  029A                     	;# 
   695  029B                     	;# 
   696  029C                     	;# 
   697  029C                     	;# 
   698  029D                     	;# 
   699  030C                     	;# 
   700  030C                     	;# 
   701  030D                     	;# 
   702  030E                     	;# 
   703  030F                     	;# 
   704  0310                     	;# 
   705  0310                     	;# 
   706  0311                     	;# 
   707  0312                     	;# 
   708  0313                     	;# 
   709  0314                     	;# 
   710  0314                     	;# 
   711  0315                     	;# 
   712  0316                     	;# 
   713  0317                     	;# 
   714  0318                     	;# 
   715  0318                     	;# 
   716  0319                     	;# 
   717  031A                     	;# 
   718  031B                     	;# 
   719  031C                     	;# 
   720  031C                     	;# 
   721  031D                     	;# 
   722  031E                     	;# 
   723  031F                     	;# 
   724  038C                     	;# 
   725  038D                     	;# 
   726  038E                     	;# 
   727  0390                     	;# 
   728  0391                     	;# 
   729  0392                     	;# 
   730  040C                     	;# 
   731  040D                     	;# 
   732  040E                     	;# 
   733  040F                     	;# 
   734  0410                     	;# 
   735  0411                     	;# 
   736  0416                     	;# 
   737  0416                     	;# 
   738  0417                     	;# 
   739  0418                     	;# 
   740  0418                     	;# 
   741  0419                     	;# 
   742  041A                     	;# 
   743  041A                     	;# 
   744  041B                     	;# 
   745  041C                     	;# 
   746  041C                     	;# 
   747  041D                     	;# 
   748  041E                     	;# 
   749  041F                     	;# 
   750  048C                     	;# 
   751  048C                     	;# 
   752  048D                     	;# 
   753  048E                     	;# 
   754  048F                     	;# 
   755  048F                     	;# 
   756  0490                     	;# 
   757  0491                     	;# 
   758  0492                     	;# 
   759  0492                     	;# 
   760  0493                     	;# 
   761  0494                     	;# 
   762  0495                     	;# 
   763  0495                     	;# 
   764  0496                     	;# 
   765  0497                     	;# 
   766  0498                     	;# 
   767  0499                     	;# 
   768  049A                     	;# 
   769  049B                     	;# 
   770  049C                     	;# 
   771  049D                     	;# 
   772  050C                     	;# 
   773  050C                     	;# 
   774  050D                     	;# 
   775  050E                     	;# 
   776  050F                     	;# 
   777  050F                     	;# 
   778  0510                     	;# 
   779  0511                     	;# 
   780  0512                     	;# 
   781  0512                     	;# 
   782  0513                     	;# 
   783  0514                     	;# 
   784  0515                     	;# 
   785  0515                     	;# 
   786  0516                     	;# 
   787  0517                     	;# 
   788  0518                     	;# 
   789  0519                     	;# 
   790  051A                     	;# 
   791  051B                     	;# 
   792  051C                     	;# 
   793  051D                     	;# 
   794  058C                     	;# 
   795  058C                     	;# 
   796  058D                     	;# 
   797  058E                     	;# 
   798  058F                     	;# 
   799  058F                     	;# 
   800  0590                     	;# 
   801  0591                     	;# 
   802  0592                     	;# 
   803  0593                     	;# 
   804  060C                     	;# 
   805  060D                     	;# 
   806  060E                     	;# 
   807  060F                     	;# 
   808  0610                     	;# 
   809  0611                     	;# 
   810  0612                     	;# 
   811  0613                     	;# 
   812  0614                     	;# 
   813  0616                     	;# 
   814  0617                     	;# 
   815  0618                     	;# 
   816  0619                     	;# 
   817  061A                     	;# 
   818  061B                     	;# 
   819  061C                     	;# 
   820  061D                     	;# 
   821  061E                     	;# 
   822  068C                     	;# 
   823  068D                     	;# 
   824  068E                     	;# 
   825  068F                     	;# 
   826  0690                     	;# 
   827  0691                     	;# 
   828  0692                     	;# 
   829  0693                     	;# 
   830  0694                     	;# 
   831  070C                     	;# 
   832  070D                     	;# 
   833  070E                     	;# 
   834  070F                     	;# 
   835  0710                     	;# 
   836  0711                     	;# 
   837  0712                     	;# 
   838  0713                     	;# 
   839  0714                     	;# 
   840  0716                     	;# 
   841  0717                     	;# 
   842  0718                     	;# 
   843  0719                     	;# 
   844  071A                     	;# 
   845  071B                     	;# 
   846  071C                     	;# 
   847  071D                     	;# 
   848  071E                     	;# 
   849  0796                     	;# 
   850  0797                     	;# 
   851  0798                     	;# 
   852  0799                     	;# 
   853  079A                     	;# 
   854  079B                     	;# 
   855  080C                     	;# 
   856  080D                     	;# 
   857  080E                     	;# 
   858  080F                     	;# 
   859  0810                     	;# 
   860  0811                     	;# 
   861  0812                     	;# 
   862  0813                     	;# 
   863  0814                     	;# 
   864  081A                     	;# 
   865  081B                     	;# 
   866  081C                     	;# 
   867  081D                     	;# 
   868  081E                     	;# 
   869  081F                     	;# 
   870  088C                     	;# 
   871  088D                     	;# 
   872  088E                     	;# 
   873  088F                     	;# 
   874  0890                     	;# 
   875  0891                     	;# 
   876  0892                     	;# 
   877  0893                     	;# 
   878  0895                     	;# 
   879  0896                     	;# 
   880  0897                     	;# 
   881  0898                     	;# 
   882  0899                     	;# 
   883  089A                     	;# 
   884  089B                     	;# 
   885  090C                     	;# 
   886  090E                     	;# 
   887  090F                     	;# 
   888  091F                     	;# 
   889  091F                     	;# 
   890  098F                     	;# 
   891  098F                     	;# 
   892  0990                     	;# 
   893  0991                     	;# 
   894  0992                     	;# 
   895  0993                     	;# 
   896  0994                     	;# 
   897  0995                     	;# 
   898  0996                     	;# 
   899  0997                     	;# 
   900  0E0F                     	;# 
   901  0E10                     	;# 
   902  0E11                     	;# 
   903  0E12                     	;# 
   904  0E13                     	;# 
   905  0E14                     	;# 
   906  0E15                     	;# 
   907  0E16                     	;# 
   908  0E17                     	;# 
   909  0E18                     	;# 
   910  0E19                     	;# 
   911  0E1A                     	;# 
   912  0E1B                     	;# 
   913  0E1C                     	;# 
   914  0E1D                     	;# 
   915  0E1E                     	;# 
   916  0E1F                     	;# 
   917  0E20                     	;# 
   918  0E21                     	;# 
   919  0E22                     	;# 
   920  0E23                     	;# 
   921  0E24                     	;# 
   922  0E25                     	;# 
   923  0E26                     	;# 
   924  0E27                     	;# 
   925  0E28                     	;# 
   926  0E29                     	;# 
   927  0E2A                     	;# 
   928  0E2B                     	;# 
   929  0E2C                     	;# 
   930  0E2D                     	;# 
   931  0E2E                     	;# 
   932  0E2F                     	;# 
   933  0E30                     	;# 
   934  0E31                     	;# 
   935  0E32                     	;# 
   936  0E33                     	;# 
   937  0E34                     	;# 
   938  0E35                     	;# 
   939  0E36                     	;# 
   940  0E37                     	;# 
   941  0E8F                     	;# 
   942  0E90                     	;# 
   943  0E91                     	;# 
   944  0E92                     	;# 
   945  0E93                     	;# 
   946  0E94                     	;# 
   947  0E95                     	;# 
   948  0E96                     	;# 
   949  0E97                     	;# 
   950  0E9C                     	;# 
   951  0E9D                     	;# 
   952  0E9E                     	;# 
   953  0EA1                     	;# 
   954  0EA2                     	;# 
   955  0EA3                     	;# 
   956  0EA4                     	;# 
   957  0EA5                     	;# 
   958  0EA9                     	;# 
   959  0EAA                     	;# 
   960  0EAB                     	;# 
   961  0EAC                     	;# 
   962  0EB1                     	;# 
   963  0EB2                     	;# 
   964  0EB3                     	;# 
   965  0EB8                     	;# 
   966  0EB9                     	;# 
   967  0EBA                     	;# 
   968  0EBB                     	;# 
   969  0EBC                     	;# 
   970  0EBD                     	;# 
   971  0EBE                     	;# 
   972  0EC3                     	;# 
   973  0EC5                     	;# 
   974  0EC6                     	;# 
   975  0EC7                     	;# 
   976  0EC8                     	;# 
   977  0EC9                     	;# 
   978  0ECA                     	;# 
   979  0ECB                     	;# 
   980  0ECC                     	;# 
   981  0F10                     	;# 
   982  0F11                     	;# 
   983  0F12                     	;# 
   984  0F13                     	;# 
   985  0F14                     	;# 
   986  0F15                     	;# 
   987  0F16                     	;# 
   988  0F17                     	;# 
   989  0F18                     	;# 
   990  0F19                     	;# 
   991  0F1A                     	;# 
   992  0F1B                     	;# 
   993  0F1C                     	;# 
   994  0F1D                     	;# 
   995  0F1E                     	;# 
   996  0F1F                     	;# 
   997  0F20                     	;# 
   998  0F21                     	;# 
   999  0F22                     	;# 
  1000  0F23                     	;# 
  1001  0F24                     	;# 
  1002  0F25                     	;# 
  1003  0F26                     	;# 
  1004  0F27                     	;# 
  1005  0F38                     	;# 
  1006  0F39                     	;# 
  1007  0F3A                     	;# 
  1008  0F3B                     	;# 
  1009  0F3C                     	;# 
  1010  0F3D                     	;# 
  1011  0F3E                     	;# 
  1012  0F3F                     	;# 
  1013  0F40                     	;# 
  1014  0F41                     	;# 
  1015  0F43                     	;# 
  1016  0F44                     	;# 
  1017  0F45                     	;# 
  1018  0F46                     	;# 
  1019  0F47                     	;# 
  1020  0F48                     	;# 
  1021  0F49                     	;# 
  1022  0F4A                     	;# 
  1023  0F4B                     	;# 
  1024  0F4C                     	;# 
  1025  0F4E                     	;# 
  1026  0F4F                     	;# 
  1027  0F50                     	;# 
  1028  0F51                     	;# 
  1029  0F52                     	;# 
  1030  0F53                     	;# 
  1031  0F54                     	;# 
  1032  0F55                     	;# 
  1033  0F56                     	;# 
  1034  0F57                     	;# 
  1035  0F65                     	;# 
  1036  0F68                     	;# 
  1037  0F69                     	;# 
  1038  0F6A                     	;# 
  1039  0F6B                     	;# 
  1040  0FE4                     	;# 
  1041  0FE5                     	;# 
  1042  0FE6                     	;# 
  1043  0FE7                     	;# 
  1044  0FE8                     	;# 
  1045  0FE9                     	;# 
  1046  0FEA                     	;# 
  1047  0FEB                     	;# 
  1048  0FED                     	;# 
  1049  0FEE                     	;# 
  1050  0FEF                     	;# 
  1051  0000                     	;# 
  1052  0001                     	;# 
  1053  0002                     	;# 
  1054  0003                     	;# 
  1055  0004                     	;# 
  1056  0005                     	;# 
  1057  0006                     	;# 
  1058  0007                     	;# 
  1059  0008                     	;# 
  1060  0009                     	;# 
  1061  000A                     	;# 
  1062  000B                     	;# 
  1063  000C                     	;# 
  1064  000D                     	;# 
  1065  000E                     	;# 
  1066  0010                     	;# 
  1067  0011                     	;# 
  1068  0012                     	;# 
  1069  0013                     	;# 
  1070  0016                     	;# 
  1071  0017                     	;# 
  1072  0018                     	;# 
  1073  001C                     	;# 
  1074  001C                     	;# 
  1075  001D                     	;# 
  1076  001D                     	;# 
  1077  001E                     	;# 
  1078  001F                     	;# 
  1079  008C                     	;# 
  1080  008C                     	;# 
  1081  008D                     	;# 
  1082  008E                     	;# 
  1083  008E                     	;# 
  1084  008F                     	;# 
  1085  0090                     	;# 
  1086  0090                     	;# 
  1087  0091                     	;# 
  1088  0093                     	;# 
  1089  0094                     	;# 
  1090  0095                     	;# 
  1091  0096                     	;# 
  1092  0097                     	;# 
  1093  0098                     	;# 
  1094  0099                     	;# 
  1095  009A                     	;# 
  1096  009B                     	;# 
  1097  009C                     	;# 
  1098  009D                     	;# 
  1099  009E                     	;# 
  1100  010C                     	;# 
  1101  010D                     	;# 
  1102  010E                     	;# 
  1103  010E                     	;# 
  1104  010F                     	;# 
  1105  0110                     	;# 
  1106  0110                     	;# 
  1107  0111                     	;# 
  1108  0112                     	;# 
  1109  0112                     	;# 
  1110  0113                     	;# 
  1111  0114                     	;# 
  1112  0114                     	;# 
  1113  0115                     	;# 
  1114  0116                     	;# 
  1115  0116                     	;# 
  1116  0117                     	;# 
  1117  0119                     	;# 
  1118  0119                     	;# 
  1119  0119                     	;# 
  1120  011A                     	;# 
  1121  011A                     	;# 
  1122  011A                     	;# 
  1123  011B                     	;# 
  1124  011B                     	;# 
  1125  011B                     	;# 
  1126  011B                     	;# 
  1127  011B                     	;# 
  1128  011C                     	;# 
  1129  011C                     	;# 
  1130  011C                     	;# 
  1131  011D                     	;# 
  1132  011D                     	;# 
  1133  011D                     	;# 
  1134  011E                     	;# 
  1135  011E                     	;# 
  1136  011E                     	;# 
  1137  011F                     	;# 
  1138  011F                     	;# 
  1139  011F                     	;# 
  1140  011F                     	;# 
  1141  011F                     	;# 
  1142  018C                     	;# 
  1143  018D                     	;# 
  1144  018E                     	;# 
  1145  018F                     	;# 
  1146  0190                     	;# 
  1147  0191                     	;# 
  1148  0192                     	;# 
  1149  0196                     	;# 
  1150  0197                     	;# 
  1151  0198                     	;# 
  1152  0199                     	;# 
  1153  019A                     	;# 
  1154  019B                     	;# 
  1155  019C                     	;# 
  1156  020C                     	;# 
  1157  020D                     	;# 
  1158  020E                     	;# 
  1159  020F                     	;# 
  1160  020F                     	;# 
  1161  0210                     	;# 
  1162  0210                     	;# 
  1163  0211                     	;# 
  1164  0211                     	;# 
  1165  0212                     	;# 
  1166  0213                     	;# 
  1167  0214                     	;# 
  1168  0215                     	;# 
  1169  0215                     	;# 
  1170  0216                     	;# 
  1171  0216                     	;# 
  1172  0217                     	;# 
  1173  0217                     	;# 
  1174  0218                     	;# 
  1175  0219                     	;# 
  1176  021A                     	;# 
  1177  021B                     	;# 
  1178  021B                     	;# 
  1179  021C                     	;# 
  1180  021C                     	;# 
  1181  021D                     	;# 
  1182  021D                     	;# 
  1183  021E                     	;# 
  1184  021F                     	;# 
  1185  028C                     	;# 
  1186  028C                     	;# 
  1187  028D                     	;# 
  1188  028D                     	;# 
  1189  028E                     	;# 
  1190  028F                     	;# 
  1191  0290                     	;# 
  1192  0290                     	;# 
  1193  0291                     	;# 
  1194  0292                     	;# 
  1195  0292                     	;# 
  1196  0293                     	;# 
  1197  0293                     	;# 
  1198  0294                     	;# 
  1199  0295                     	;# 
  1200  0296                     	;# 
  1201  0296                     	;# 
  1202  0297                     	;# 
  1203  0298                     	;# 
  1204  0298                     	;# 
  1205  0299                     	;# 
  1206  0299                     	;# 
  1207  029A                     	;# 
  1208  029B                     	;# 
  1209  029C                     	;# 
  1210  029C                     	;# 
  1211  029D                     	;# 
  1212  030C                     	;# 
  1213  030C                     	;# 
  1214  030D                     	;# 
  1215  030E                     	;# 
  1216  030F                     	;# 
  1217  0310                     	;# 
  1218  0310                     	;# 
  1219  0311                     	;# 
  1220  0312                     	;# 
  1221  0313                     	;# 
  1222  0314                     	;# 
  1223  0314                     	;# 
  1224  0315                     	;# 
  1225  0316                     	;# 
  1226  0317                     	;# 
  1227  0318                     	;# 
  1228  0318                     	;# 
  1229  0319                     	;# 
  1230  031A                     	;# 
  1231  031B                     	;# 
  1232  031C                     	;# 
  1233  031C                     	;# 
  1234  031D                     	;# 
  1235  031E                     	;# 
  1236  031F                     	;# 
  1237  038C                     	;# 
  1238  038D                     	;# 
  1239  038E                     	;# 
  1240  0390                     	;# 
  1241  0391                     	;# 
  1242  0392                     	;# 
  1243  040C                     	;# 
  1244  040D                     	;# 
  1245  040E                     	;# 
  1246  040F                     	;# 
  1247  0410                     	;# 
  1248  0411                     	;# 
  1249  0416                     	;# 
  1250  0416                     	;# 
  1251  0417                     	;# 
  1252  0418                     	;# 
  1253  0418                     	;# 
  1254  0419                     	;# 
  1255  041A                     	;# 
  1256  041A                     	;# 
  1257  041B                     	;# 
  1258  041C                     	;# 
  1259  041C                     	;# 
  1260  041D                     	;# 
  1261  041E                     	;# 
  1262  041F                     	;# 
  1263  048C                     	;# 
  1264  048C                     	;# 
  1265  048D                     	;# 
  1266  048E                     	;# 
  1267  048F                     	;# 
  1268  048F                     	;# 
  1269  0490                     	;# 
  1270  0491                     	;# 
  1271  0492                     	;# 
  1272  0492                     	;# 
  1273  0493                     	;# 
  1274  0494                     	;# 
  1275  0495                     	;# 
  1276  0495                     	;# 
  1277  0496                     	;# 
  1278  0497                     	;# 
  1279  0498                     	;# 
  1280  0499                     	;# 
  1281  049A                     	;# 
  1282  049B                     	;# 
  1283  049C                     	;# 
  1284  049D                     	;# 
  1285  050C                     	;# 
  1286  050C                     	;# 
  1287  050D                     	;# 
  1288  050E                     	;# 
  1289  050F                     	;# 
  1290  050F                     	;# 
  1291  0510                     	;# 
  1292  0511                     	;# 
  1293  0512                     	;# 
  1294  0512                     	;# 
  1295  0513                     	;# 
  1296  0514                     	;# 
  1297  0515                     	;# 
  1298  0515                     	;# 
  1299  0516                     	;# 
  1300  0517                     	;# 
  1301  0518                     	;# 
  1302  0519                     	;# 
  1303  051A                     	;# 
  1304  051B                     	;# 
  1305  051C                     	;# 
  1306  051D                     	;# 
  1307  058C                     	;# 
  1308  058C                     	;# 
  1309  058D                     	;# 
  1310  058E                     	;# 
  1311  058F                     	;# 
  1312  058F                     	;# 
  1313  0590                     	;# 
  1314  0591                     	;# 
  1315  0592                     	;# 
  1316  0593                     	;# 
  1317  060C                     	;# 
  1318  060D                     	;# 
  1319  060E                     	;# 
  1320  060F                     	;# 
  1321  0610                     	;# 
  1322  0611                     	;# 
  1323  0612                     	;# 
  1324  0613                     	;# 
  1325  0614                     	;# 
  1326  0616                     	;# 
  1327  0617                     	;# 
  1328  0618                     	;# 
  1329  0619                     	;# 
  1330  061A                     	;# 
  1331  061B                     	;# 
  1332  061C                     	;# 
  1333  061D                     	;# 
  1334  061E                     	;# 
  1335  068C                     	;# 
  1336  068D                     	;# 
  1337  068E                     	;# 
  1338  068F                     	;# 
  1339  0690                     	;# 
  1340  0691                     	;# 
  1341  0692                     	;# 
  1342  0693                     	;# 
  1343  0694                     	;# 
  1344  070C                     	;# 
  1345  070D                     	;# 
  1346  070E                     	;# 
  1347  070F                     	;# 
  1348  0710                     	;# 
  1349  0711                     	;# 
  1350  0712                     	;# 
  1351  0713                     	;# 
  1352  0714                     	;# 
  1353  0716                     	;# 
  1354  0717                     	;# 
  1355  0718                     	;# 
  1356  0719                     	;# 
  1357  071A                     	;# 
  1358  071B                     	;# 
  1359  071C                     	;# 
  1360  071D                     	;# 
  1361  071E                     	;# 
  1362  0796                     	;# 
  1363  0797                     	;# 
  1364  0798                     	;# 
  1365  0799                     	;# 
  1366  079A                     	;# 
  1367  079B                     	;# 
  1368  080C                     	;# 
  1369  080D                     	;# 
  1370  080E                     	;# 
  1371  080F                     	;# 
  1372  0810                     	;# 
  1373  0811                     	;# 
  1374  0812                     	;# 
  1375  0813                     	;# 
  1376  0814                     	;# 
  1377  081A                     	;# 
  1378  081B                     	;# 
  1379  081C                     	;# 
  1380  081D                     	;# 
  1381  081E                     	;# 
  1382  081F                     	;# 
  1383  088C                     	;# 
  1384  088D                     	;# 
  1385  088E                     	;# 
  1386  088F                     	;# 
  1387  0890                     	;# 
  1388  0891                     	;# 
  1389  0892                     	;# 
  1390  0893                     	;# 
  1391  0895                     	;# 
  1392  0896                     	;# 
  1393  0897                     	;# 
  1394  0898                     	;# 
  1395  0899                     	;# 
  1396  089A                     	;# 
  1397  089B                     	;# 
  1398  090C                     	;# 
  1399  090E                     	;# 
  1400  090F                     	;# 
  1401  091F                     	;# 
  1402  091F                     	;# 
  1403  098F                     	;# 
  1404  098F                     	;# 
  1405  0990                     	;# 
  1406  0991                     	;# 
  1407  0992                     	;# 
  1408  0993                     	;# 
  1409  0994                     	;# 
  1410  0995                     	;# 
  1411  0996                     	;# 
  1412  0997                     	;# 
  1413  0E0F                     	;# 
  1414  0E10                     	;# 
  1415  0E11                     	;# 
  1416  0E12                     	;# 
  1417  0E13                     	;# 
  1418  0E14                     	;# 
  1419  0E15                     	;# 
  1420  0E16                     	;# 
  1421  0E17                     	;# 
  1422  0E18                     	;# 
  1423  0E19                     	;# 
  1424  0E1A                     	;# 
  1425  0E1B                     	;# 
  1426  0E1C                     	;# 
  1427  0E1D                     	;# 
  1428  0E1E                     	;# 
  1429  0E1F                     	;# 
  1430  0E20                     	;# 
  1431  0E21                     	;# 
  1432  0E22                     	;# 
  1433  0E23                     	;# 
  1434  0E24                     	;# 
  1435  0E25                     	;# 
  1436  0E26                     	;# 
  1437  0E27                     	;# 
  1438  0E28                     	;# 
  1439  0E29                     	;# 
  1440  0E2A                     	;# 
  1441  0E2B                     	;# 
  1442  0E2C                     	;# 
  1443  0E2D                     	;# 
  1444  0E2E                     	;# 
  1445  0E2F                     	;# 
  1446  0E30                     	;# 
  1447  0E31                     	;# 
  1448  0E32                     	;# 
  1449  0E33                     	;# 
  1450  0E34                     	;# 
  1451  0E35                     	;# 
  1452  0E36                     	;# 
  1453  0E37                     	;# 
  1454  0E8F                     	;# 
  1455  0E90                     	;# 
  1456  0E91                     	;# 
  1457  0E92                     	;# 
  1458  0E93                     	;# 
  1459  0E94                     	;# 
  1460  0E95                     	;# 
  1461  0E96                     	;# 
  1462  0E97                     	;# 
  1463  0E9C                     	;# 
  1464  0E9D                     	;# 
  1465  0E9E                     	;# 
  1466  0EA1                     	;# 
  1467  0EA2                     	;# 
  1468  0EA3                     	;# 
  1469  0EA4                     	;# 
  1470  0EA5                     	;# 
  1471  0EA9                     	;# 
  1472  0EAA                     	;# 
  1473  0EAB                     	;# 
  1474  0EAC                     	;# 
  1475  0EB1                     	;# 
  1476  0EB2                     	;# 
  1477  0EB3                     	;# 
  1478  0EB8                     	;# 
  1479  0EB9                     	;# 
  1480  0EBA                     	;# 
  1481  0EBB                     	;# 
  1482  0EBC                     	;# 
  1483  0EBD                     	;# 
  1484  0EBE                     	;# 
  1485  0EC3                     	;# 
  1486  0EC5                     	;# 
  1487  0EC6                     	;# 
  1488  0EC7                     	;# 
  1489  0EC8                     	;# 
  1490  0EC9                     	;# 
  1491  0ECA                     	;# 
  1492  0ECB                     	;# 
  1493  0ECC                     	;# 
  1494  0F10                     	;# 
  1495  0F11                     	;# 
  1496  0F12                     	;# 
  1497  0F13                     	;# 
  1498  0F14                     	;# 
  1499  0F15                     	;# 
  1500  0F16                     	;# 
  1501  0F17                     	;# 
  1502  0F18                     	;# 
  1503  0F19                     	;# 
  1504  0F1A                     	;# 
  1505  0F1B                     	;# 
  1506  0F1C                     	;# 
  1507  0F1D                     	;# 
  1508  0F1E                     	;# 
  1509  0F1F                     	;# 
  1510  0F20                     	;# 
  1511  0F21                     	;# 
  1512  0F22                     	;# 
  1513  0F23                     	;# 
  1514  0F24                     	;# 
  1515  0F25                     	;# 
  1516  0F26                     	;# 
  1517  0F27                     	;# 
  1518  0F38                     	;# 
  1519  0F39                     	;# 
  1520  0F3A                     	;# 
  1521  0F3B                     	;# 
  1522  0F3C                     	;# 
  1523  0F3D                     	;# 
  1524  0F3E                     	;# 
  1525  0F3F                     	;# 
  1526  0F40                     	;# 
  1527  0F41                     	;# 
  1528  0F43                     	;# 
  1529  0F44                     	;# 
  1530  0F45                     	;# 
  1531  0F46                     	;# 
  1532  0F47                     	;# 
  1533  0F48                     	;# 
  1534  0F49                     	;# 
  1535  0F4A                     	;# 
  1536  0F4B                     	;# 
  1537  0F4C                     	;# 
  1538  0F4E                     	;# 
  1539  0F4F                     	;# 
  1540  0F50                     	;# 
  1541  0F51                     	;# 
  1542  0F52                     	;# 
  1543  0F53                     	;# 
  1544  0F54                     	;# 
  1545  0F55                     	;# 
  1546  0F56                     	;# 
  1547  0F57                     	;# 
  1548  0F65                     	;# 
  1549  0F68                     	;# 
  1550  0F69                     	;# 
  1551  0F6A                     	;# 
  1552  0F6B                     	;# 
  1553  0FE4                     	;# 
  1554  0FE5                     	;# 
  1555  0FE6                     	;# 
  1556  0FE7                     	;# 
  1557  0FE8                     	;# 
  1558  0FE9                     	;# 
  1559  0FEA                     	;# 
  1560  0FEB                     	;# 
  1561  0FED                     	;# 
  1562  0FEE                     	;# 
  1563  0FEF                     	;# 
  1564                           
  1565                           	psect	stringtext
  1566  0800                     __pstringtext:	
  1567  0800                     _fonts:	
  1568  0800  3400               	retlw	0
  1569  0801  3400               	retlw	0
  1570  0802  3400               	retlw	0
  1571  0803  3400               	retlw	0
  1572  0804  344E               	retlw	78
  1573  0805  3400               	retlw	0
  1574  0806  3406               	retlw	6
  1575  0807  3400               	retlw	0
  1576  0808  3406               	retlw	6
  1577  0809  34FF               	retlw	255
  1578  080A  34FF               	retlw	255
  1579  080B  34FF               	retlw	255
  1580  080C  3448               	retlw	72
  1581  080D  34D6               	retlw	214
  1582  080E  3424               	retlw	36
  1583  080F  3412               	retlw	18
  1584  0810  3408               	retlw	8
  1585  0811  3424               	retlw	36
  1586  0812  34FF               	retlw	255
  1587  0813  34FF               	retlw	255
  1588  0814  34FF               	retlw	255
  1589  0815  3400               	retlw	0
  1590  0816  3406               	retlw	6
  1591  0817  3400               	retlw	0
  1592  0818  3438               	retlw	56
  1593  0819  3444               	retlw	68
  1594  081A  3482               	retlw	130
  1595  081B  3482               	retlw	130
  1596  081C  3444               	retlw	68
  1597  081D  3438               	retlw	56
  1598  081E  3414               	retlw	20
  1599  081F  3408               	retlw	8
  1600  0820  343E               	retlw	62
  1601  0821  3410               	retlw	16
  1602  0822  3438               	retlw	56
  1603  0823  3410               	retlw	16
  1604  0824  34A0               	retlw	160
  1605  0825  3460               	retlw	96
  1606  0826  3400               	retlw	0
  1607  0827  3410               	retlw	16
  1608  0828  3410               	retlw	16
  1609  0829  3410               	retlw	16
  1610  082A  3460               	retlw	96
  1611  082B  3460               	retlw	96
  1612  082C  3400               	retlw	0
  1613  082D  3460               	retlw	96
  1614  082E  3418               	retlw	24
  1615  082F  3406               	retlw	6
  1616  0830  347C               	retlw	124
  1617  0831  3442               	retlw	66
  1618  0832  347C               	retlw	124
  1619  0833  3444               	retlw	68
  1620  0834  347E               	retlw	126
  1621  0835  3440               	retlw	64
  1622  0836  3464               	retlw	100
  1623  0837  3452               	retlw	82
  1624  0838  344C               	retlw	76
  1625  0839  344A               	retlw	74
  1626  083A  344A               	retlw	74
  1627  083B  3434               	retlw	52
  1628  083C  3438               	retlw	56
  1629  083D  3424               	retlw	36
  1630  083E  347E               	retlw	126
  1631  083F  344E               	retlw	78
  1632  0840  344A               	retlw	74
  1633  0841  3432               	retlw	50
  1634  0842  343C               	retlw	60
  1635  0843  344A               	retlw	74
  1636  0844  3432               	retlw	50
  1637  0845  3462               	retlw	98
  1638  0846  341A               	retlw	26
  1639  0847  3406               	retlw	6
  1640  0848  3476               	retlw	118
  1641  0849  344A               	retlw	74
  1642  084A  3476               	retlw	118
  1643  084B  344C               	retlw	76
  1644  084C  3452               	retlw	82
  1645  084D  343C               	retlw	60
  1646  084E  346C               	retlw	108
  1647  084F  346C               	retlw	108
  1648  0850  3400               	retlw	0
  1649  0851  34AC               	retlw	172
  1650  0852  346C               	retlw	108
  1651  0853  3400               	retlw	0
  1652  0854  3410               	retlw	16
  1653  0855  3428               	retlw	40
  1654  0856  3444               	retlw	68
  1655  0857  3428               	retlw	40
  1656  0858  3428               	retlw	40
  1657  0859  3428               	retlw	40
  1658  085A  3444               	retlw	68
  1659  085B  3428               	retlw	40
  1660  085C  3410               	retlw	16
  1661  085D  3402               	retlw	2
  1662  085E  3459               	retlw	89
  1663  085F  3406               	retlw	6
  1664  0860  34FF               	retlw	255
  1665  0861  34FF               	retlw	255
  1666  0862  34FF               	retlw	255
  1667  0863  347C               	retlw	124
  1668  0864  3412               	retlw	18
  1669  0865  347C               	retlw	124
  1670  0866  347E               	retlw	126
  1671  0867  345A               	retlw	90
  1672  0868  3434               	retlw	52
  1673  0869  343C               	retlw	60
  1674  086A  3442               	retlw	66
  1675  086B  3442               	retlw	66
  1676  086C  347E               	retlw	126
  1677  086D  3442               	retlw	66
  1678  086E  343C               	retlw	60
  1679  086F  347E               	retlw	126
  1680  0870  344A               	retlw	74
  1681  0871  3442               	retlw	66
  1682  0872  347E               	retlw	126
  1683  0873  340A               	retlw	10
  1684  0874  340A               	retlw	10
  1685  0875  343C               	retlw	60
  1686  0876  3452               	retlw	82
  1687  0877  3434               	retlw	52
  1688  0878  347E               	retlw	126
  1689  0879  3408               	retlw	8
  1690  087A  347E               	retlw	126
  1691  087B  3442               	retlw	66
  1692  087C  347E               	retlw	126
  1693  087D  3442               	retlw	66
  1694  087E  3430               	retlw	48
  1695  087F  3440               	retlw	64
  1696  0880  343E               	retlw	62
  1697  0881  347E               	retlw	126
  1698  0882  3418               	retlw	24
  1699  0883  3466               	retlw	102
  1700  0884  347E               	retlw	126
  1701  0885  3440               	retlw	64
  1702  0886  3440               	retlw	64
  1703  0887  347E               	retlw	126
  1704  0888  341C               	retlw	28
  1705  0889  347E               	retlw	126
  1706  088A  347E               	retlw	126
  1707  088B  3402               	retlw	2
  1708  088C  347E               	retlw	126
  1709  088D  343C               	retlw	60
  1710  088E  3442               	retlw	66
  1711  088F  343C               	retlw	60
  1712  0890  347E               	retlw	126
  1713  0891  3412               	retlw	18
  1714  0892  340C               	retlw	12
  1715  0893  347E               	retlw	126
  1716  0894  3462               	retlw	98
  1717  0895  34FE               	retlw	254
  1718  0896  347E               	retlw	126
  1719  0897  3432               	retlw	50
  1720  0898  344E               	retlw	78
  1721  0899  3444               	retlw	68
  1722  089A  344A               	retlw	74
  1723  089B  3432               	retlw	50
  1724  089C  3402               	retlw	2
  1725  089D  347E               	retlw	126
  1726  089E  3402               	retlw	2
  1727  089F  347E               	retlw	126
  1728  08A0  3440               	retlw	64
  1729  08A1  347E               	retlw	126
  1730  08A2  343E               	retlw	62
  1731  08A3  3440               	retlw	64
  1732  08A4  343E               	retlw	62
  1733  08A5  347E               	retlw	126
  1734  08A6  3438               	retlw	56
  1735  08A7  347E               	retlw	126
  1736  08A8  3466               	retlw	102
  1737  08A9  3418               	retlw	24
  1738  08AA  3466               	retlw	102
  1739  08AB  340E               	retlw	14
  1740  08AC  3470               	retlw	112
  1741  08AD  340E               	retlw	14
  1742  08AE  3462               	retlw	98
  1743  08AF  345A               	retlw	90
  1744  08B0  3446               	retlw	70
  1745  08B1  3400               	retlw	0
  1746  08B2  347E               	retlw	126
  1747  08B3  3442               	retlw	66
  1748  08B4  3406               	retlw	6
  1749  08B5  3418               	retlw	24
  1750  08B6  3460               	retlw	96
  1751  08B7  3442               	retlw	66
  1752  08B8  347E               	retlw	126
  1753  08B9  3400               	retlw	0
  1754  08BA  3404               	retlw	4
  1755  08BB  3402               	retlw	2
  1756  08BC  3404               	retlw	4
  1757  08BD  3440               	retlw	64
  1758  08BE  3440               	retlw	64
  1759  08BF  3440               	retlw	64
  1760  08C0  3400               	retlw	0
  1761  08C1  3402               	retlw	2
  1762  08C2  3404               	retlw	4
  1763  08C3  3474               	retlw	116
  1764  08C4  3454               	retlw	84
  1765  08C5  3478               	retlw	120
  1766  08C6  347E               	retlw	126
  1767  08C7  3448               	retlw	72
  1768  08C8  3430               	retlw	48
  1769  08C9  3430               	retlw	48
  1770  08CA  3448               	retlw	72
  1771  08CB  3448               	retlw	72
  1772  08CC  3430               	retlw	48
  1773  08CD  3448               	retlw	72
  1774  08CE  347E               	retlw	126
  1775  08CF  3438               	retlw	56
  1776  08D0  3454               	retlw	84
  1777  08D1  3458               	retlw	88
  1778  08D2  347C               	retlw	124
  1779  08D3  340A               	retlw	10
  1780  08D4  3402               	retlw	2
  1781  08D5  3498               	retlw	152
  1782  08D6  34A4               	retlw	164
  1783  08D7  347C               	retlw	124
  1784  08D8  347E               	retlw	126
  1785  08D9  3408               	retlw	8
  1786  08DA  3470               	retlw	112
  1787  08DB  3448               	retlw	72
  1788  08DC  347A               	retlw	122
  1789  08DD  3440               	retlw	64
  1790  08DE  3488               	retlw	136
  1791  08DF  34FA               	retlw	250
  1792  08E0  3400               	retlw	0
  1793  08E1  347E               	retlw	126
  1794  08E2  3418               	retlw	24
  1795  08E3  3464               	retlw	100
  1796  08E4  3442               	retlw	66
  1797  08E5  347E               	retlw	126
  1798  08E6  3440               	retlw	64
  1799  08E7  347C               	retlw	124
  1800  08E8  3438               	retlw	56
  1801  08E9  347C               	retlw	124
  1802  08EA  347C               	retlw	124
  1803  08EB  3404               	retlw	4
  1804  08EC  3478               	retlw	120
  1805  08ED  3438               	retlw	56
  1806  08EE  3444               	retlw	68
  1807  08EF  3438               	retlw	56
  1808  08F0  34FC               	retlw	252
  1809  08F1  3424               	retlw	36
  1810  08F2  3418               	retlw	24
  1811  08F3  3418               	retlw	24
  1812  08F4  3424               	retlw	36
  1813  08F5  34FC               	retlw	252
  1814  08F6  3478               	retlw	120
  1815  08F7  3404               	retlw	4
  1816  08F8  3404               	retlw	4
  1817  08F9  3448               	retlw	72
  1818  08FA  3454               	retlw	84
  1819  08FB  3424               	retlw	36
  1820  08FC  3404               	retlw	4
  1821  08FD  343E               	retlw	62
  1822  08FE  3444               	retlw	68
  1823  08FF  347C               	retlw	124
  1824  0900  3440               	retlw	64
  1825  0901  347C               	retlw	124
  1826  0902  343C               	retlw	60
  1827  0903  3440               	retlw	64
  1828  0904  343C               	retlw	60
  1829  0905  347C               	retlw	124
  1830  0906  3430               	retlw	48
  1831  0907  347C               	retlw	124
  1832  0908  346C               	retlw	108
  1833  0909  3410               	retlw	16
  1834  090A  346C               	retlw	108
  1835  090B  349C               	retlw	156
  1836  090C  34A0               	retlw	160
  1837  090D  347C               	retlw	124
  1838  090E  3464               	retlw	100
  1839  090F  3454               	retlw	84
  1840  0910  344C               	retlw	76
  1841  0911  340C               	retlw	12
  1842  0912  3412               	retlw	18
  1843  0913  340C               	retlw	12
  1844  0914  34FF               	retlw	255
  1845  0915  34FF               	retlw	255
  1846  0916  34FF               	retlw	255
  1847  0917  34FF               	retlw	255
  1848  0918  34FF               	retlw	255
  1849  0919  34FF               	retlw	255
  1850  091A  34FF               	retlw	255
  1851  091B  34FF               	retlw	255
  1852  091C  34FF               	retlw	255
  1853  091D  34FF               	retlw	255
  1854  091E  34FF               	retlw	255
  1855  091F  34FF               	retlw	255
  1856  0920  34FF               	retlw	255
  1857  0921  34FF               	retlw	255
  1858  0922  34FF               	retlw	255
  1859  0923  34FF               	retlw	255
  1860  0924  34FF               	retlw	255
  1861  0925  34FF               	retlw	255
  1862  0926  34FC               	retlw	252
  1863  0927  3440               	retlw	64
  1864  0928  347C               	retlw	124
  1865  0929  34FF               	retlw	255
  1866  092A  34FF               	retlw	255
  1867  092B  34FF               	retlw	255
  1868  092C  34FF               	retlw	255
  1869  092D  34FF               	retlw	255
  1870  092E  34FF               	retlw	255
  1871  092F                     __end_of_fonts:	
  1872  092F                     _coffee:	
  1873  092F  34FF               	retlw	255
  1874  0930  3401               	retlw	1
  1875  0931  3401               	retlw	1
  1876  0932  3401               	retlw	1
  1877  0933  3401               	retlw	1
  1878  0934  3401               	retlw	1
  1879  0935  3401               	retlw	1
  1880  0936  3401               	retlw	1
  1881  0937  3401               	retlw	1
  1882  0938  3401               	retlw	1
  1883  0939  3401               	retlw	1
  1884  093A  3401               	retlw	1
  1885  093B  3401               	retlw	1
  1886  093C  3401               	retlw	1
  1887  093D  3401               	retlw	1
  1888  093E  3401               	retlw	1
  1889  093F  3401               	retlw	1
  1890  0940  3401               	retlw	1
  1891  0941  3401               	retlw	1
  1892  0942  3401               	retlw	1
  1893  0943  3401               	retlw	1
  1894  0944  3401               	retlw	1
  1895  0945  3401               	retlw	1
  1896  0946  3401               	retlw	1
  1897  0947  3401               	retlw	1
  1898  0948  3401               	retlw	1
  1899  0949  3401               	retlw	1
  1900  094A  3481               	retlw	129
  1901  094B  34C1               	retlw	193
  1902  094C  34C1               	retlw	193
  1903  094D  34C1               	retlw	193
  1904  094E  3481               	retlw	129
  1905  094F  3401               	retlw	1
  1906  0950  3401               	retlw	1
  1907  0951  3401               	retlw	1
  1908  0952  3481               	retlw	129
  1909  0953  34C1               	retlw	193
  1910  0954  34C1               	retlw	193
  1911  0955  34C1               	retlw	193
  1912  0956  34C1               	retlw	193
  1913  0957  3401               	retlw	1
  1914  0958  34C1               	retlw	193
  1915  0959  34E1               	retlw	225
  1916  095A  3461               	retlw	97
  1917  095B  34E1               	retlw	225
  1918  095C  34C1               	retlw	193
  1919  095D  3481               	retlw	129
  1920  095E  3401               	retlw	1
  1921  095F  3481               	retlw	129
  1922  0960  34C1               	retlw	193
  1923  0961  34C1               	retlw	193
  1924  0962  3481               	retlw	129
  1925  0963  3481               	retlw	129
  1926  0964  3401               	retlw	1
  1927  0965  3401               	retlw	1
  1928  0966  3401               	retlw	1
  1929  0967  3401               	retlw	1
  1930  0968  3401               	retlw	1
  1931  0969  3401               	retlw	1
  1932  096A  3401               	retlw	1
  1933  096B  3401               	retlw	1
  1934  096C  3401               	retlw	1
  1935  096D  3401               	retlw	1
  1936  096E  3401               	retlw	1
  1937  096F  3401               	retlw	1
  1938  0970  3401               	retlw	1
  1939  0971  3401               	retlw	1
  1940  0972  3401               	retlw	1
  1941  0973  3401               	retlw	1
  1942  0974  3401               	retlw	1
  1943  0975  3401               	retlw	1
  1944  0976  3401               	retlw	1
  1945  0977  3401               	retlw	1
  1946  0978  3401               	retlw	1
  1947  0979  3401               	retlw	1
  1948  097A  3401               	retlw	1
  1949  097B  3401               	retlw	1
  1950  097C  3401               	retlw	1
  1951  097D  3401               	retlw	1
  1952  097E  3401               	retlw	1
  1953  097F  3401               	retlw	1
  1954  0980  3401               	retlw	1
  1955  0981  3401               	retlw	1
  1956  0982  34FF               	retlw	255
  1957  0983  34FF               	retlw	255
  1958  0984  3400               	retlw	0
  1959  0985  3400               	retlw	0
  1960  0986  3400               	retlw	0
  1961  0987  3400               	retlw	0
  1962  0988  3400               	retlw	0
  1963  0989  3400               	retlw	0
  1964  098A  3400               	retlw	0
  1965  098B  3400               	retlw	0
  1966  098C  3400               	retlw	0
  1967  098D  3400               	retlw	0
  1968  098E  3400               	retlw	0
  1969  098F  3400               	retlw	0
  1970  0990  3400               	retlw	0
  1971  0991  3400               	retlw	0
  1972  0992  3400               	retlw	0
  1973  0993  3400               	retlw	0
  1974  0994  3400               	retlw	0
  1975  0995  34C0               	retlw	192
  1976  0996  3440               	retlw	64
  1977  0997  34E0               	retlw	224
  1978  0998  34B0               	retlw	176
  1979  0999  3410               	retlw	16
  1980  099A  3400               	retlw	0
  1981  099B  341C               	retlw	28
  1982  099C  343E               	retlw	62
  1983  099D  347E               	retlw	126
  1984  099E  347F               	retlw	127
  1985  099F  347F               	retlw	127
  1986  09A0  347F               	retlw	127
  1987  09A1  347F               	retlw	127
  1988  09A2  347F               	retlw	127
  1989  09A3  347F               	retlw	127
  1990  09A4  3400               	retlw	0
  1991  09A5  3400               	retlw	0
  1992  09A6  3407               	retlw	7
  1993  09A7  340F               	retlw	15
  1994  09A8  340C               	retlw	12
  1995  09A9  340C               	retlw	12
  1996  09AA  3404               	retlw	4
  1997  09AB  3400               	retlw	0
  1998  09AC  3407               	retlw	7
  1999  09AD  340F               	retlw	15
  2000  09AE  340C               	retlw	12
  2001  09AF  340C               	retlw	12
  2002  09B0  340F               	retlw	15
  2003  09B1  3407               	retlw	7
  2004  09B2  341C               	retlw	28
  2005  09B3  341F               	retlw	31
  2006  09B4  3407               	retlw	7
  2007  09B5  3406               	retlw	6
  2008  09B6  3406               	retlw	6
  2009  09B7  3470               	retlw	112
  2010  09B8  343C               	retlw	60
  2011  09B9  341F               	retlw	31
  2012  09BA  340B               	retlw	11
  2013  09BB  341B               	retlw	27
  2014  09BC  34E6               	retlw	230
  2015  09BD  34F2               	retlw	242
  2016  09BE  34BC               	retlw	188
  2017  09BF  346C               	retlw	108
  2018  09C0  3438               	retlw	56
  2019  09C1  3498               	retlw	152
  2020  09C2  34D0               	retlw	208
  2021  09C3  34E0               	retlw	224
  2022  09C4  34B0               	retlw	176
  2023  09C5  3460               	retlw	96
  2024  09C6  3440               	retlw	64
  2025  09C7  3440               	retlw	64
  2026  09C8  3400               	retlw	0
  2027  09C9  3400               	retlw	0
  2028  09CA  3400               	retlw	0
  2029  09CB  3400               	retlw	0
  2030  09CC  3400               	retlw	0
  2031  09CD  3400               	retlw	0
  2032  09CE  3400               	retlw	0
  2033  09CF  3400               	retlw	0
  2034  09D0  3400               	retlw	0
  2035  09D1  3400               	retlw	0
  2036  09D2  3400               	retlw	0
  2037  09D3  3400               	retlw	0
  2038  09D4  3400               	retlw	0
  2039  09D5  3400               	retlw	0
  2040  09D6  34FF               	retlw	255
  2041  09D7  34FF               	retlw	255
  2042  09D8  3400               	retlw	0
  2043  09D9  3400               	retlw	0
  2044  09DA  3400               	retlw	0
  2045  09DB  3400               	retlw	0
  2046  09DC  3400               	retlw	0
  2047  09DD  3400               	retlw	0
  2048  09DE  3400               	retlw	0
  2049  09DF  3400               	retlw	0
  2050  09E0  3400               	retlw	0
  2051  09E1  3400               	retlw	0
  2052  09E2  3400               	retlw	0
  2053  09E3  3400               	retlw	0
  2054  09E4  3400               	retlw	0
  2055  09E5  3400               	retlw	0
  2056  09E6  3400               	retlw	0
  2057  09E7  3400               	retlw	0
  2058  09E8  3400               	retlw	0
  2059  09E9  3400               	retlw	0
  2060  09EA  3400               	retlw	0
  2061  09EB  3400               	retlw	0
  2062  09EC  340D               	retlw	13
  2063  09ED  340F               	retlw	15
  2064  09EE  3406               	retlw	6
  2065  09EF  3407               	retlw	7
  2066  09F0  3403               	retlw	3
  2067  09F1  3400               	retlw	0
  2068  09F2  3400               	retlw	0
  2069  09F3  3400               	retlw	0
  2070  09F4  3400               	retlw	0
  2071  09F5  3400               	retlw	0
  2072  09F6  3400               	retlw	0
  2073  09F7  3400               	retlw	0
  2074  09F8  3400               	retlw	0
  2075  09F9  3400               	retlw	0
  2076  09FA  3400               	retlw	0
  2077  09FB  3400               	retlw	0
  2078  09FC  3400               	retlw	0
  2079  09FD  3400               	retlw	0
  2080  09FE  34C0               	retlw	192
  2081  09FF  34F0               	retlw	240
  2082  0A00  3477               	retlw	119
  2083  0A01  341F               	retlw	31
  2084  0A02  34C8               	retlw	200
  2085  0A03  34C0               	retlw	192
  2086  0A04  3400               	retlw	0
  2087  0A05  3400               	retlw	0
  2088  0A06  3400               	retlw	0
  2089  0A07  3400               	retlw	0
  2090  0A08  3400               	retlw	0
  2091  0A09  3400               	retlw	0
  2092  0A0A  3400               	retlw	0
  2093  0A0B  3400               	retlw	0
  2094  0A0C  3400               	retlw	0
  2095  0A0D  3400               	retlw	0
  2096  0A0E  3400               	retlw	0
  2097  0A0F  3400               	retlw	0
  2098  0A10  3400               	retlw	0
  2099  0A11  3401               	retlw	1
  2100  0A12  3401               	retlw	1
  2101  0A13  3400               	retlw	0
  2102  0A14  3407               	retlw	7
  2103  0A15  3407               	retlw	7
  2104  0A16  340C               	retlw	12
  2105  0A17  340C               	retlw	12
  2106  0A18  3401               	retlw	1
  2107  0A19  3401               	retlw	1
  2108  0A1A  3400               	retlw	0
  2109  0A1B  3400               	retlw	0
  2110  0A1C  3400               	retlw	0
  2111  0A1D  3400               	retlw	0
  2112  0A1E  3400               	retlw	0
  2113  0A1F  3400               	retlw	0
  2114  0A20  3400               	retlw	0
  2115  0A21  3400               	retlw	0
  2116  0A22  3400               	retlw	0
  2117  0A23  3400               	retlw	0
  2118  0A24  3400               	retlw	0
  2119  0A25  3400               	retlw	0
  2120  0A26  3400               	retlw	0
  2121  0A27  3400               	retlw	0
  2122  0A28  3400               	retlw	0
  2123  0A29  3400               	retlw	0
  2124  0A2A  34FF               	retlw	255
  2125  0A2B  34FF               	retlw	255
  2126  0A2C  3400               	retlw	0
  2127  0A2D  3400               	retlw	0
  2128  0A2E  3400               	retlw	0
  2129  0A2F  3400               	retlw	0
  2130  0A30  3400               	retlw	0
  2131  0A31  3400               	retlw	0
  2132  0A32  3400               	retlw	0
  2133  0A33  3400               	retlw	0
  2134  0A34  3400               	retlw	0
  2135  0A35  3400               	retlw	0
  2136  0A36  3400               	retlw	0
  2137  0A37  3400               	retlw	0
  2138  0A38  3400               	retlw	0
  2139  0A39  3400               	retlw	0
  2140  0A3A  3400               	retlw	0
  2141  0A3B  3400               	retlw	0
  2142  0A3C  3400               	retlw	0
  2143  0A3D  3400               	retlw	0
  2144  0A3E  3400               	retlw	0
  2145  0A3F  3400               	retlw	0
  2146  0A40  3400               	retlw	0
  2147  0A41  3400               	retlw	0
  2148  0A42  3400               	retlw	0
  2149  0A43  3400               	retlw	0
  2150  0A44  3400               	retlw	0
  2151  0A45  3400               	retlw	0
  2152  0A46  3400               	retlw	0
  2153  0A47  3400               	retlw	0
  2154  0A48  3400               	retlw	0
  2155  0A49  3480               	retlw	128
  2156  0A4A  3480               	retlw	128
  2157  0A4B  3480               	retlw	128
  2158  0A4C  3480               	retlw	128
  2159  0A4D  34C0               	retlw	192
  2160  0A4E  34C0               	retlw	192
  2161  0A4F  34C0               	retlw	192
  2162  0A50  34C0               	retlw	192
  2163  0A51  34DE               	retlw	222
  2164  0A52  34FF               	retlw	255
  2165  0A53  34F1               	retlw	241
  2166  0A54  34E0               	retlw	224
  2167  0A55  34C0               	retlw	192
  2168  0A56  34E1               	retlw	225
  2169  0A57  34FF               	retlw	255
  2170  0A58  34DF               	retlw	223
  2171  0A59  34C4               	retlw	196
  2172  0A5A  34C0               	retlw	192
  2173  0A5B  34C0               	retlw	192
  2174  0A5C  34C0               	retlw	192
  2175  0A5D  34C0               	retlw	192
  2176  0A5E  34C0               	retlw	192
  2177  0A5F  34C0               	retlw	192
  2178  0A60  34C0               	retlw	192
  2179  0A61  3400               	retlw	0
  2180  0A62  3400               	retlw	0
  2181  0A63  3400               	retlw	0
  2182  0A64  3400               	retlw	0
  2183  0A65  3400               	retlw	0
  2184  0A66  3400               	retlw	0
  2185  0A67  3400               	retlw	0
  2186  0A68  3400               	retlw	0
  2187  0A69  3400               	retlw	0
  2188  0A6A  3400               	retlw	0
  2189  0A6B  3400               	retlw	0
  2190  0A6C  3400               	retlw	0
  2191  0A6D  3400               	retlw	0
  2192  0A6E  3400               	retlw	0
  2193  0A6F  3400               	retlw	0
  2194  0A70  3400               	retlw	0
  2195  0A71  3400               	retlw	0
  2196  0A72  3400               	retlw	0
  2197  0A73  3400               	retlw	0
  2198  0A74  3400               	retlw	0
  2199  0A75  3400               	retlw	0
  2200  0A76  3400               	retlw	0
  2201  0A77  3400               	retlw	0
  2202  0A78  3400               	retlw	0
  2203  0A79  3400               	retlw	0
  2204  0A7A  3400               	retlw	0
  2205  0A7B  3400               	retlw	0
  2206  0A7C  3400               	retlw	0
  2207  0A7D  3400               	retlw	0
  2208  0A7E  34FF               	retlw	255
  2209  0A7F  34FF               	retlw	255
  2210  0A80  3400               	retlw	0
  2211  0A81  3400               	retlw	0
  2212  0A82  3400               	retlw	0
  2213  0A83  3400               	retlw	0
  2214  0A84  3400               	retlw	0
  2215  0A85  3400               	retlw	0
  2216  0A86  3400               	retlw	0
  2217  0A87  3400               	retlw	0
  2218  0A88  3400               	retlw	0
  2219  0A89  3400               	retlw	0
  2220  0A8A  3400               	retlw	0
  2221  0A8B  3400               	retlw	0
  2222  0A8C  3400               	retlw	0
  2223  0A8D  3400               	retlw	0
  2224  0A8E  3400               	retlw	0
  2225  0A8F  3400               	retlw	0
  2226  0A90  3400               	retlw	0
  2227  0A91  3400               	retlw	0
  2228  0A92  3400               	retlw	0
  2229  0A93  3400               	retlw	0
  2230  0A94  3400               	retlw	0
  2231  0A95  3400               	retlw	0
  2232  0A96  3400               	retlw	0
  2233  0A97  3400               	retlw	0
  2234  0A98  3400               	retlw	0
  2235  0A99  3400               	retlw	0
  2236  0A9A  3400               	retlw	0
  2237  0A9B  3400               	retlw	0
  2238  0A9C  3400               	retlw	0
  2239  0A9D  34C7               	retlw	199
  2240  0A9E  34CF               	retlw	207
  2241  0A9F  349D               	retlw	157
  2242  0AA0  3491               	retlw	145
  2243  0AA1  34B7               	retlw	183
  2244  0AA2  34BF               	retlw	191
  2245  0AA3  34B8               	retlw	184
  2246  0AA4  34E0               	retlw	224
  2247  0AA5  34C0               	retlw	192
  2248  0AA6  3480               	retlw	128
  2249  0AA7  3480               	retlw	128
  2250  0AA8  3480               	retlw	128
  2251  0AA9  3480               	retlw	128
  2252  0AAA  3480               	retlw	128
  2253  0AAB  3480               	retlw	128
  2254  0AAC  3480               	retlw	128
  2255  0AAD  3480               	retlw	128
  2256  0AAE  34C0               	retlw	192
  2257  0AAF  34C0               	retlw	192
  2258  0AB0  34E0               	retlw	224
  2259  0AB1  34B8               	retlw	184
  2260  0AB2  349F               	retlw	159
  2261  0AB3  3487               	retlw	135
  2262  0AB4  34C1               	retlw	193
  2263  0AB5  34C0               	retlw	192
  2264  0AB6  3460               	retlw	96
  2265  0AB7  3400               	retlw	0
  2266  0AB8  3400               	retlw	0
  2267  0AB9  3400               	retlw	0
  2268  0ABA  3400               	retlw	0
  2269  0ABB  3400               	retlw	0
  2270  0ABC  3400               	retlw	0
  2271  0ABD  3400               	retlw	0
  2272  0ABE  3400               	retlw	0
  2273  0ABF  3400               	retlw	0
  2274  0AC0  3400               	retlw	0
  2275  0AC1  3400               	retlw	0
  2276  0AC2  3400               	retlw	0
  2277  0AC3  3400               	retlw	0
  2278  0AC4  3400               	retlw	0
  2279  0AC5  3400               	retlw	0
  2280  0AC6  3400               	retlw	0
  2281  0AC7  3400               	retlw	0
  2282  0AC8  3400               	retlw	0
  2283  0AC9  3400               	retlw	0
  2284  0ACA  3400               	retlw	0
  2285  0ACB  3400               	retlw	0
  2286  0ACC  3400               	retlw	0
  2287  0ACD  3400               	retlw	0
  2288  0ACE  3400               	retlw	0
  2289  0ACF  3400               	retlw	0
  2290  0AD0  3400               	retlw	0
  2291  0AD1  3400               	retlw	0
  2292  0AD2  34FF               	retlw	255
  2293  0AD3  34FF               	retlw	255
  2294  0AD4  3480               	retlw	128
  2295  0AD5  3480               	retlw	128
  2296  0AD6  3480               	retlw	128
  2297  0AD7  3480               	retlw	128
  2298  0AD8  3480               	retlw	128
  2299  0AD9  3480               	retlw	128
  2300  0ADA  3480               	retlw	128
  2301  0ADB  3480               	retlw	128
  2302  0ADC  3480               	retlw	128
  2303  0ADD  3480               	retlw	128
  2304  0ADE  3480               	retlw	128
  2305  0ADF  3480               	retlw	128
  2306  0AE0  3480               	retlw	128
  2307  0AE1  3480               	retlw	128
  2308  0AE2  3480               	retlw	128
  2309  0AE3  3480               	retlw	128
  2310  0AE4  3480               	retlw	128
  2311  0AE5  3480               	retlw	128
  2312  0AE6  3480               	retlw	128
  2313  0AE7  3480               	retlw	128
  2314  0AE8  3480               	retlw	128
  2315  0AE9  3480               	retlw	128
  2316  0AEA  3480               	retlw	128
  2317  0AEB  3480               	retlw	128
  2318  0AEC  3480               	retlw	128
  2319  0AED  3480               	retlw	128
  2320  0AEE  3480               	retlw	128
  2321  0AEF  3480               	retlw	128
  2322  0AF0  3480               	retlw	128
  2323  0AF1  3480               	retlw	128
  2324  0AF2  3481               	retlw	129
  2325  0AF3  3483               	retlw	131
  2326  0AF4  3483               	retlw	131
  2327  0AF5  3483               	retlw	131
  2328  0AF6  3483               	retlw	131
  2329  0AF7  3483               	retlw	131
  2330  0AF8  3483               	retlw	131
  2331  0AF9  3483               	retlw	131
  2332  0AFA  3483               	retlw	131
  2333  0AFB  3483               	retlw	131
  2334  0AFC  3483               	retlw	131
  2335  0AFD  3483               	retlw	131
  2336  0AFE  3483               	retlw	131
  2337  0AFF  3483               	retlw	131
  2338  0B00  3483               	retlw	131
  2339  0B01  3483               	retlw	131
  2340  0B02  3483               	retlw	131
  2341  0B03  3483               	retlw	131
  2342  0B04  3483               	retlw	131
  2343  0B05  3483               	retlw	131
  2344  0B06  3483               	retlw	131
  2345  0B07  3483               	retlw	131
  2346  0B08  3481               	retlw	129
  2347  0B09  3481               	retlw	129
  2348  0B0A  3480               	retlw	128
  2349  0B0B  3480               	retlw	128
  2350  0B0C  3480               	retlw	128
  2351  0B0D  3480               	retlw	128
  2352  0B0E  3480               	retlw	128
  2353  0B0F  3480               	retlw	128
  2354  0B10  3480               	retlw	128
  2355  0B11  3480               	retlw	128
  2356  0B12  3480               	retlw	128
  2357  0B13  3480               	retlw	128
  2358  0B14  3480               	retlw	128
  2359  0B15  3480               	retlw	128
  2360  0B16  3480               	retlw	128
  2361  0B17  3480               	retlw	128
  2362  0B18  3480               	retlw	128
  2363  0B19  3480               	retlw	128
  2364  0B1A  3480               	retlw	128
  2365  0B1B  3480               	retlw	128
  2366  0B1C  3480               	retlw	128
  2367  0B1D  3480               	retlw	128
  2368  0B1E  3480               	retlw	128
  2369  0B1F  3480               	retlw	128
  2370  0B20  3480               	retlw	128
  2371  0B21  3480               	retlw	128
  2372  0B22  3480               	retlw	128
  2373  0B23  3480               	retlw	128
  2374  0B24  3480               	retlw	128
  2375  0B25  3480               	retlw	128
  2376  0B26  34FF               	retlw	255
  2377  0B27                     __end_of_coffee:	
  2378  0016                     _LATA	set	22
  2379  0017                     _LATB	set	23
  2380  0017                     _LATBbits	set	23
  2381  0018                     _LATC	set	24
  2382  0011                     _TRISA	set	17
  2383  0012                     _TRISB	set	18
  2384  0012                     _TRISBbits	set	18
  2385  0013                     _TRISC	set	19
  2386  088D                     _OSCCON1	set	2189
  2387  088F                     _OSCCON3	set	2191
  2388  0891                     _OSCEN	set	2193
  2389  0893                     _OSCFRQ	set	2195
  2390  0892                     _OSCTUNE	set	2194
  2391  090C                     _FVRCON	set	2316
  2392  0F38                     _ANSELA	set	3896
  2393  0F43                     _ANSELB	set	3907
  2394  0F4E                     _ANSELC	set	3918
  2395  0F39                     _WPUA	set	3897
  2396  0F44                     _WPUB	set	3908
  2397  0F4F                     _WPUC	set	3919
  2398  0F65                     _WPUE	set	3941
  2399  0B27                     STR_2:	
  2400  0B27  3453               	retlw	83	;'S'
  2401  0B28  346F               	retlw	111	;'o'
  2402  0B29  346D               	retlw	109	;'m'
  2403  0B2A  3465               	retlw	101	;'e'
  2404  0B2B  3420               	retlw	32	;' '
  2405  0B2C  344D               	retlw	77	;'M'
  2406  0B2D  3469               	retlw	105	;'i'
  2407  0B2E  346E               	retlw	110	;'n'
  2408  0B2F  346F               	retlw	111	;'o'
  2409  0B30  3472               	retlw	114	;'r'
  2410  0B31  3420               	retlw	32	;' '
  2411  0B32  3442               	retlw	66	;'B'
  2412  0B33  3475               	retlw	117	;'u'
  2413  0B34  3467               	retlw	103	;'g'
  2414  0B35  3420               	retlw	32	;' '
  2415  0B36  3446               	retlw	70	;'F'
  2416  0B37  3469               	retlw	105	;'i'
  2417  0B38  3478               	retlw	120	;'x'
  2418  0B39  3465               	retlw	101	;'e'
  2419  0B3A  3473               	retlw	115	;'s'
  2420  0B3B  3420               	retlw	32	;' '
  2421  0B3C  3461               	retlw	97	;'a'
  2422  0B3D  346E               	retlw	110	;'n'
  2423  0B3E  3464               	retlw	100	;'d'
  2424  0B3F  3420               	retlw	32	;' '
  2425  0B40  3461               	retlw	97	;'a'
  2426  0B41  346C               	retlw	108	;'l'
  2427  0B42  346C               	retlw	108	;'l'
  2428  0B43  3420               	retlw	32	;' '
  2429  0B44  3477               	retlw	119	;'w'
  2430  0B45  3469               	retlw	105	;'i'
  2431  0B46  346C               	retlw	108	;'l'
  2432  0B47  346C               	retlw	108	;'l'
  2433  0B48  3420               	retlw	32	;' '
  2434  0B49  3462               	retlw	98	;'b'
  2435  0B4A  3465               	retlw	101	;'e'
  2436  0B4B  3420               	retlw	32	;' '
  2437  0B4C  3447               	retlw	71	;'G'
  2438  0B4D  346F               	retlw	111	;'o'
  2439  0B4E  346F               	retlw	111	;'o'
  2440  0B4F  3464               	retlw	100	;'d'
  2441  0B50  3421               	retlw	33	;'!'
  2442  0B51  3400               	retlw	0
  2443  0B52                     STR_1:	
  2444  0B52  3420               	retlw	32	;' '
  2445  0B53  344E               	retlw	78	;'N'
  2446  0B54  346F               	retlw	111	;'o'
  2447  0B55  346B               	retlw	107	;'k'
  2448  0B56  3469               	retlw	105	;'i'
  2449  0B57  3461               	retlw	97	;'a'
  2450  0B58  3420               	retlw	32	;' '
  2451  0B59  3435               	retlw	53	;'5'
  2452  0B5A  3431               	retlw	49	;'1'
  2453  0B5B  3431               	retlw	49	;'1'
  2454  0B5C  3430               	retlw	48	;'0'
  2455  0B5D  3420               	retlw	32	;' '
  2456  0B5E  3444               	retlw	68	;'D'
  2457  0B5F  3469               	retlw	105	;'i'
  2458  0B60  3473               	retlw	115	;'s'
  2459  0B61  3470               	retlw	112	;'p'
  2460  0B62  346C               	retlw	108	;'l'
  2461  0B63  3461               	retlw	97	;'a'
  2462  0B64  3479               	retlw	121	;'y'
  2463  0B65  3420               	retlw	32	;' '
  2464  0B66  3420               	retlw	32	;' '
  2465  0B67  3400               	retlw	0
  2466  0B68                     STR_8:	
  2467  0B68  344C               	retlw	76	;'L'
  2468  0B69  3441               	retlw	65	;'A'
  2469  0B6A  3459               	retlw	89	;'Y'
  2470  0B6B  344E               	retlw	78	;'N'
  2471  0B6C  3445               	retlw	69	;'E'
  2472  0B6D  3420               	retlw	32	;' '
  2473  0B6E  3453               	retlw	83	;'S'
  2474  0B6F  3455               	retlw	85	;'U'
  2475  0B70  3443               	retlw	67	;'C'
  2476  0B71  344B               	retlw	75	;'K'
  2477  0B72  3453               	retlw	83	;'S'
  2478  0B73  3420               	retlw	32	;' '
  2479  0B74  3443               	retlw	67	;'C'
  2480  0B75  344F               	retlw	79	;'O'
  2481  0B76  3443               	retlw	67	;'C'
  2482  0B77  344B               	retlw	75	;'K'
  2483  0B78  3421               	retlw	33	;'!'
  2484  0B79  3421               	retlw	33	;'!'
  2485  0B7A  3400               	retlw	0
  2486  0B7B                     STR_9:	
  2487  0B7B  3441               	retlw	65	;'A'
  2488  0B7C  3420               	retlw	32	;' '
  2489  0B7D  344C               	retlw	76	;'L'
  2490  0B7E  344F               	retlw	79	;'O'
  2491  0B7F  3454               	retlw	84	;'T'
  2492  0B80  3421               	retlw	33	;'!'
  2493  0B81  3421               	retlw	33	;'!'
  2494  0B82  3420               	retlw	32	;' '
  2495  0B83  346F               	retlw	111	;'o'
  2496  0B84  3466               	retlw	102	;'f'
  2497  0B85  3420               	retlw	32	;' '
  2498  0B86  3443               	retlw	67	;'C'
  2499  0B87  344F               	retlw	79	;'O'
  2500  0B88  3443               	retlw	67	;'C'
  2501  0B89  344B               	retlw	75	;'K'
  2502  0B8A  3400               	retlw	0
  2503  0B8B                     STR_10:	
  2504  0B8B  344E               	retlw	78	;'N'
  2505  0B8C  3475               	retlw	117	;'u'
  2506  0B8D  346D               	retlw	109	;'m'
  2507  0B8E  3462               	retlw	98	;'b'
  2508  0B8F  3465               	retlw	101	;'e'
  2509  0B90  3472               	retlw	114	;'r'
  2510  0B91  3420               	retlw	32	;' '
  2511  0B92  3453               	retlw	83	;'S'
  2512  0B93  3475               	retlw	117	;'u'
  2513  0B94  3463               	retlw	99	;'c'
  2514  0B95  346B               	retlw	107	;'k'
  2515  0B96  3465               	retlw	101	;'e'
  2516  0B97  3464               	retlw	100	;'d'
  2517  0B98  343A               	retlw	58	;':'
  2518  0B99  3400               	retlw	0
  2519  0B9A                     STR_7:	
  2520  0B9A  3431               	retlw	49	;'1'
  2521  0B9B  342E               	retlw	46	;'.'
  2522  0B9C  342E               	retlw	46	;'.'
  2523  0B9D  342E               	retlw	46	;'.'
  2524  0B9E  3420               	retlw	32	;' '
  2525  0B9F  3400               	retlw	0
  2526  0BA0                     STR_6:	
  2527  0BA0  3432               	retlw	50	;'2'
  2528  0BA1  342E               	retlw	46	;'.'
  2529  0BA2  342E               	retlw	46	;'.'
  2530  0BA3  342E               	retlw	46	;'.'
  2531  0BA4  3420               	retlw	32	;' '
  2532  0BA5  3400               	retlw	0
  2533  0BA6                     STR_5:	
  2534  0BA6  3433               	retlw	51	;'3'
  2535  0BA7  342E               	retlw	46	;'.'
  2536  0BA8  342E               	retlw	46	;'.'
  2537  0BA9  342E               	retlw	46	;'.'
  2538  0BAA  3420               	retlw	32	;' '
  2539  0BAB  3400               	retlw	0
  2540  0BAC                     STR_4:	
  2541  0BAC  3434               	retlw	52	;'4'
  2542  0BAD  342E               	retlw	46	;'.'
  2543  0BAE  342E               	retlw	46	;'.'
  2544  0BAF  342E               	retlw	46	;'.'
  2545  0BB0  3420               	retlw	32	;' '
  2546  0BB1  3400               	retlw	0
  2547  0BB2                     STR_3:	
  2548  0BB2  3435               	retlw	53	;'5'
  2549  0BB3  342E               	retlw	46	;'.'
  2550  0BB4  342E               	retlw	46	;'.'
  2551  0BB5  342E               	retlw	46	;'.'
  2552  0BB6  3420               	retlw	32	;' '
  2553  0BB7  3400               	retlw	0
  2554                           
  2555                           ; #config settings
  2556  0000                     
  2557                           	psect	cinit
  2558  07F8                     start_initialization:	
  2559  07F8                     __initialization:	
  2560                           
  2561                           ; Clear objects allocated to BANK0
  2562  07F8  01BA               	clrf	__pbssBANK0& (0+127)
  2563  07F9  01BB               	clrf	(__pbssBANK0+1)& (0+127)
  2564  07FA  01BC               	clrf	(__pbssBANK0+2)& (0+127)
  2565  07FB  01BD               	clrf	(__pbssBANK0+3)& (0+127)
  2566  07FC  01BE               	clrf	(__pbssBANK0+4)& (0+127)
  2567  07FD                     end_of_initialization:	
  2568                           ;End of C runtime variable initialization code
  2569                           
  2570  07FD                     __end_of__initialization:	
  2571  07FD  0020               	movlb	0
  2572  07FE  3186  2EA3         	ljmp	_main	;jump to C main() function
  2573                           
  2574                           	psect	bssBANK0
  2575  003A                     __pbssBANK0:	
  2576  003A                     LCDWriteInt@F13605:	
  2577  003A                     	ds	5
  2578                           
  2579                           	psect	cstackCOMMON
  2580  0070                     __pcstackCOMMON:	
  2581  0070                     ?_SYSTEM_Initialize:	
  2582  0070                     ?_LCDClear:	
  2583                           ; 1 bytes @ 0x0
  2584                           
  2585  0070                     ?_LCDDrawBox:	
  2586                           ; 1 bytes @ 0x0
  2587                           
  2588  0070                     ?_LCDWrite:	
  2589                           ; 1 bytes @ 0x0
  2590                           
  2591  0070                     ?_OSCILLATOR_Initialize:	
  2592                           ; 1 bytes @ 0x0
  2593                           
  2594  0070                     ??_OSCILLATOR_Initialize:	
  2595                           ; 1 bytes @ 0x0
  2596                           
  2597  0070                     ?_main:	
  2598                           ; 1 bytes @ 0x0
  2599                           
  2600  0070                     ?_LCDWriteCharacter:	
  2601                           ; 1 bytes @ 0x0
  2602                           
  2603  0070                     ?_LCDInit:	
  2604                           ; 1 bytes @ 0x0
  2605                           
  2606  0070                     ?___wmul:	
  2607                           ; 1 bytes @ 0x0
  2608                           
  2609  0070                     ?___awdiv:	
  2610                           ; 2 bytes @ 0x0
  2611                           
  2612  0070                     ?___awmod:	
  2613                           ; 2 bytes @ 0x0
  2614                           
  2615  0070                     LCDWrite@data:	
  2616                           ; 2 bytes @ 0x0
  2617                           
  2618  0070                     ___wmul@multiplier:	
  2619                           ; 1 bytes @ 0x0
  2620                           
  2621  0070                     ___awdiv@divisor:	
  2622                           ; 2 bytes @ 0x0
  2623                           
  2624  0070                     ___awmod@divisor:	
  2625                           ; 2 bytes @ 0x0
  2626                           
  2627                           
  2628                           ; 2 bytes @ 0x0
  2629  0070                     	ds	1
  2630  0071                     ??_LCDWrite:	
  2631                           
  2632                           ; 1 bytes @ 0x1
  2633  0071                     	ds	1
  2634  0072                     LCDWrite@data_or_command:	
  2635  0072                     ___wmul@multiplicand:	
  2636                           ; 1 bytes @ 0x2
  2637                           
  2638  0072                     ___awdiv@dividend:	
  2639                           ; 2 bytes @ 0x2
  2640                           
  2641  0072                     ___awmod@dividend:	
  2642                           ; 2 bytes @ 0x2
  2643                           
  2644                           
  2645                           ; 2 bytes @ 0x2
  2646  0072                     	ds	1
  2647  0073                     LCDWrite@i:	
  2648                           
  2649                           ; 1 bytes @ 0x3
  2650  0073                     	ds	1
  2651  0074                     ?_gotoXY:	
  2652  0074                     ??_LCDInit:	
  2653                           ; 1 bytes @ 0x4
  2654                           
  2655  0074                     ??___wmul:	
  2656                           ; 1 bytes @ 0x4
  2657                           
  2658  0074                     ??___awdiv:	
  2659                           ; 1 bytes @ 0x4
  2660                           
  2661  0074                     ??___awmod:	
  2662                           ; 1 bytes @ 0x4
  2663                           
  2664  0074                     gotoXY@y:	
  2665                           ; 1 bytes @ 0x4
  2666                           
  2667  0074                     ___wmul@product:	
  2668                           ; 1 bytes @ 0x4
  2669                           
  2670                           
  2671                           ; 2 bytes @ 0x4
  2672  0074                     	ds	1
  2673  0075                     ??_gotoXY:	
  2674  0075                     ___awdiv@counter:	
  2675                           ; 1 bytes @ 0x5
  2676                           
  2677  0075                     ___awmod@counter:	
  2678                           ; 1 bytes @ 0x5
  2679                           
  2680                           
  2681                           ; 1 bytes @ 0x5
  2682  0075                     	ds	1
  2683  0076                     ??_LCDWriteCharacter:	
  2684  0076                     gotoXY@x:	
  2685                           ; 1 bytes @ 0x6
  2686                           
  2687  0076                     ___awdiv@sign:	
  2688                           ; 1 bytes @ 0x6
  2689                           
  2690  0076                     ___awmod@sign:	
  2691                           ; 1 bytes @ 0x6
  2692                           
  2693                           
  2694                           ; 1 bytes @ 0x6
  2695  0076                     	ds	1
  2696  0077                     ?_LCDBitmap:	
  2697  0077                     ??_LCDClear:	
  2698                           ; 1 bytes @ 0x7
  2699                           
  2700  0077                     ??_LCDDrawBox:	
  2701                           ; 1 bytes @ 0x7
  2702                           
  2703  0077                     LCDBitmap@bmp_array:	
  2704                           ; 1 bytes @ 0x7
  2705                           
  2706  0077                     ___awdiv@quotient:	
  2707                           ; 2 bytes @ 0x7
  2708                           
  2709                           
  2710                           ; 2 bytes @ 0x7
  2711  0077                     	ds	1
  2712  0078                     ?_LCDWriteString:	
  2713  0078                     LCDWriteString@characters:	
  2714                           ; 1 bytes @ 0x8
  2715                           
  2716  0078                     LCDClear@index:	
  2717                           ; 2 bytes @ 0x8
  2718                           
  2719  0078                     LCDDrawBox@j:	
  2720                           ; 2 bytes @ 0x8
  2721                           
  2722                           
  2723                           ; 2 bytes @ 0x8
  2724  0078                     	ds	1
  2725  0079                     ??_LCDWriteInt:	
  2726  0079                     LCDBitmap@startLine:	
  2727                           ; 1 bytes @ 0x9
  2728                           
  2729                           
  2730                           ; 1 bytes @ 0x9
  2731  0079                     	ds	1
  2732  007A                     ??_SYSTEM_Initialize:	
  2733  007A                     ??_LCDWriteString:	
  2734                           ; 1 bytes @ 0xA
  2735                           
  2736  007A                     LCDBitmap@len:	
  2737                           ; 1 bytes @ 0xA
  2738                           
  2739                           
  2740                           ; 2 bytes @ 0xA
  2741  007A                     	ds	2
  2742  007C                     ??_LCDBitmap:	
  2743                           
  2744                           ; 1 bytes @ 0xC
  2745  007C                     	ds	2
  2746                           
  2747                           	psect	cstackBANK0
  2748  0020                     __pcstackBANK0:	
  2749  0020                     LCDBitmap@index:	
  2750  0020                     LCDWriteCharacter@x:	
  2751                           ; 2 bytes @ 0x0
  2752                           
  2753                           
  2754                           ; 2 bytes @ 0x0
  2755  0020                     	ds	2
  2756  0022                     LCDWriteCharacter@z:	
  2757                           
  2758                           ; 2 bytes @ 0x2
  2759  0022                     	ds	2
  2760  0024                     LCDWriteCharacter@character:	
  2761                           
  2762                           ; 1 bytes @ 0x4
  2763  0024                     	ds	1
  2764  0025                     LCDWriteCharacter@base:	
  2765                           
  2766                           ; 2 bytes @ 0x5
  2767  0025                     	ds	2
  2768  0027                     ?_LCDWriteInt:	
  2769  0027                     LCDWriteInt@value:	
  2770                           ; 1 bytes @ 0x7
  2771                           
  2772                           
  2773                           ; 2 bytes @ 0x7
  2774  0027                     	ds	2
  2775  0029                     LCDWriteInt@fieldLength:	
  2776                           
  2777                           ; 1 bytes @ 0x9
  2778  0029                     	ds	1
  2779  002A                     LCDWriteInt@numPlaces:	
  2780                           
  2781                           ; 1 bytes @ 0xA
  2782  002A                     	ds	1
  2783  002B                     LCDWriteInt@sign:	
  2784                           
  2785                           ; 1 bytes @ 0xB
  2786  002B                     	ds	1
  2787  002C                     LCDWriteInt@str:	
  2788                           
  2789                           ; 5 bytes @ 0xC
  2790  002C                     	ds	5
  2791  0031                     LCDWriteInt@j:	
  2792                           
  2793                           ; 2 bytes @ 0x11
  2794  0031                     	ds	2
  2795  0033                     LCDWriteInt@i:	
  2796                           
  2797                           ; 2 bytes @ 0x13
  2798  0033                     	ds	2
  2799  0035                     ??_main:	
  2800                           
  2801                           ; 1 bytes @ 0x15
  2802  0035                     	ds	3
  2803  0038                     main@count:	
  2804                           
  2805                           ; 2 bytes @ 0x18
  2806  0038                     	ds	2
  2807                           
  2808                           	psect	maintext
  2809  06A3                     __pmaintext:	
  2810 ;;
  2811 ;;Main: autosize = 0, tempsize = 3, incstack = 0, save=0
  2812 ;;
  2813 ;; *************** function _main *****************
  2814 ;; Defined at:
  2815 ;;		line 7 in file "main.c"
  2816 ;; Parameters:    Size  Location     Type
  2817 ;;		None
  2818 ;; Auto vars:     Size  Location     Type
  2819 ;;  count           2   24[BANK0 ] int 
  2820 ;; Return value:  Size  Location     Type
  2821 ;;                  1    wreg      void 
  2822 ;; Registers used:
  2823 ;;		wreg, fsr0l, fsr0h, fsr1l, fsr1h, status,2, status,0, pclath, cstack
  2824 ;; Tracked objects:
  2825 ;;		On entry : B1F/0
  2826 ;;		On exit  : 0/0
  2827 ;;		Unchanged: 0/0
  2828 ;; Data sizes:     COMMON   BANK0   BANK1   BANK2   BANK3   BANK4   BANK5   BANK6   BANK7   BANK8   BANK9  BANK10  BANK1
      +1  BANK12
  2829 ;;      Params:         0       0       0       0       0       0       0       0       0       0       0       0       
      +0       0
  2830 ;;      Locals:         0       2       0       0       0       0       0       0       0       0       0       0       
      +0       0
  2831 ;;      Temps:          0       3       0       0       0       0       0       0       0       0       0       0       
      +0       0
  2832 ;;      Totals:         0       5       0       0       0       0       0       0       0       0       0       0       
      +0       0
  2833 ;;Total ram usage:        5 bytes
  2834 ;; Hardware stack levels required when called:    4
  2835 ;; This function calls:
  2836 ;;		_LCDBitmap
  2837 ;;		_LCDClear
  2838 ;;		_LCDDrawBox
  2839 ;;		_LCDWriteInt
  2840 ;;		_LCDWriteString
  2841 ;;		_SYSTEM_Initialize
  2842 ;;		_gotoXY
  2843 ;; This function is called by:
  2844 ;;		Startup code after reset
  2845 ;; This function uses a non-reentrant model
  2846 ;;
  2847                           
  2848                           
  2849                           ;psect for function _main
  2850  06A3                     _main:	
  2851                           
  2852                           ;main.c: 9: int count = 0;
  2853                           
  2854                           ;incstack = 0
  2855                           ; Regs used in _main: [wreg-fsr1h+status,2+status,0+pclath+cstack]
  2856  06A3  0020               	movlb	0	; select bank0
  2857  06A4  01B8               	clrf	main@count
  2858  06A5  01B9               	clrf	main@count+1
  2859                           
  2860                           ;main.c: 11: SYSTEM_Initialize();
  2861  06A6  3183  23EA  3186   	fcall	_SYSTEM_Initialize
  2862                           
  2863                           ;main.c: 13: LCDBitmap(&coffee[0], 0,504);
  2864  06A9  302F               	movlw	low (_coffee| (0+32768))
  2865  06AA  00F7               	movwf	LCDBitmap@bmp_array
  2866  06AB  3089               	movlw	high (_coffee| (0+32768))
  2867  06AC  00F8               	movwf	LCDBitmap@bmp_array+1
  2868  06AD  01F9               	clrf	LCDBitmap@startLine
  2869  06AE  30F8               	movlw	248
  2870  06AF  00FA               	movwf	LCDBitmap@len
  2871  06B0  3001               	movlw	1
  2872  06B1  00FB               	movwf	LCDBitmap@len+1
  2873  06B2  3183  23C3  3186   	fcall	_LCDBitmap
  2874                           
  2875                           ;main.c: 17: _delay((unsigned long)((2500)*(1000000/4000.0)));
  2876  06B5  3004               	movlw	4
  2877  06B6  0020               	movlb	0	; select bank0
  2878  06B7  00B7               	movwf	??_main+2
  2879  06B8  302C               	movlw	44
  2880  06B9  00B6               	movwf	??_main+1
  2881  06BA  30AD               	movlw	173
  2882  06BB  00B5               	movwf	??_main
  2883  06BC                     u1257:	
  2884  06BC  0BB5               	decfsz	??_main,f
  2885  06BD  2EBC               	goto	u1257
  2886  06BE  0BB6               	decfsz	??_main+1,f
  2887  06BF  2EBC               	goto	u1257
  2888  06C0  0BB7               	decfsz	??_main+2,f
  2889  06C1  2EBC               	goto	u1257
  2890  06C2  3200               	nop2
  2891  06C3                     l1329:	
  2892                           ;main.c: 19: while (1)
  2893                           
  2894                           
  2895                           ;main.c: 20: {
  2896                           ;main.c: 21: if(count<1)LCDClear();
  2897  06C3  0020               	movlb	0	; select bank0
  2898  06C4  0839               	movf	main@count+1,w
  2899  06C5  3A80               	xorlw	128
  2900  06C6  00B5               	movwf	??_main
  2901  06C7  3080               	movlw	128
  2902  06C8  0235               	subwf	??_main,w
  2903  06C9  1D03               	skipz
  2904  06CA  2ECD               	goto	u1125
  2905  06CB  3001               	movlw	1
  2906  06CC  0238               	subwf	main@count,w
  2907  06CD                     u1125:	
  2908  06CD  1803               	skipnc
  2909  06CE  2ED2               	goto	l1333
  2910  06CF  3183  239D  3186   	fcall	_LCDClear
  2911  06D2                     l1333:	
  2912                           
  2913                           ;main.c: 23: if(count==1){ gotoXY(0,0); LCDWriteString(" Nokia 5110 Display  ");};
  2914  06D2  0020               	movlb	0	; select bank0
  2915  06D3  0338               	decf	main@count,w
  2916  06D4  0439               	iorwf	main@count+1,w
  2917  06D5  1D03               	btfss	3,2
  2918  06D6  2EE3               	goto	l1339
  2919  06D7  01F4               	clrf	gotoXY@y
  2920  06D8  3000               	movlw	0
  2921  06D9  3183  233A  3186   	fcall	_gotoXY
  2922  06DC  3052               	movlw	low (STR_1| (0+32768))
  2923  06DD  00F8               	movwf	LCDWriteString@characters
  2924  06DE  308B               	movlw	high (STR_1| (0+32768))
  2925  06DF  00F9               	movwf	LCDWriteString@characters+1
  2926  06E0  3183  234D  3186   	fcall	_LCDWriteString
  2927  06E3                     l1339:	
  2928                           
  2929                           ;main.c: 25: if(count==35){ gotoXY(0,1); LCDWriteString("Some Minor Bug Fixes and all wi
      +                          ll be Good!");};
  2930  06E3  3023               	movlw	35
  2931  06E4  0020               	movlb	0	; select bank0
  2932  06E5  0638               	xorwf	main@count,w
  2933  06E6  0439               	iorwf	main@count+1,w
  2934  06E7  1D03               	btfss	3,2
  2935  06E8  2EF6               	goto	l1345
  2936  06E9  01F4               	clrf	gotoXY@y
  2937  06EA  0AF4               	incf	gotoXY@y,f
  2938  06EB  3000               	movlw	0
  2939  06EC  3183  233A  3186   	fcall	_gotoXY
  2940  06EF  3027               	movlw	low (STR_2| (0+32768))
  2941  06F0  00F8               	movwf	LCDWriteString@characters
  2942  06F1  308B               	movlw	high (STR_2| (0+32768))
  2943  06F2  00F9               	movwf	LCDWriteString@characters+1
  2944  06F3  3183  234D  3186   	fcall	_LCDWriteString
  2945  06F6                     l1345:	
  2946                           
  2947                           ;main.c: 27: if(count==70){ gotoXY(35,4); LCDWriteString("5... ");};
  2948  06F6  3046               	movlw	70
  2949  06F7  0020               	movlb	0	; select bank0
  2950  06F8  0638               	xorwf	main@count,w
  2951  06F9  0439               	iorwf	main@count+1,w
  2952  06FA  1D03               	btfss	3,2
  2953  06FB  2F0B               	goto	l1351
  2954  06FC  3004               	movlw	4
  2955  06FD  00B5               	movwf	??_main
  2956  06FE  0835               	movf	??_main,w
  2957  06FF  00F4               	movwf	gotoXY@y
  2958  0700  3023               	movlw	35
  2959  0701  3183  233A  3186   	fcall	_gotoXY
  2960  0704  30B2               	movlw	low (STR_3| (0+32768))
  2961  0705  00F8               	movwf	LCDWriteString@characters
  2962  0706  308B               	movlw	high (STR_3| (0+32768))
  2963  0707  00F9               	movwf	LCDWriteString@characters+1
  2964  0708  3183  234D  3186   	fcall	_LCDWriteString
  2965  070B                     l1351:	
  2966                           
  2967                           ;main.c: 29: if(count==95){ gotoXY(35,4); LCDWriteString("4... ");};
  2968  070B  305F               	movlw	95
  2969  070C  0020               	movlb	0	; select bank0
  2970  070D  0638               	xorwf	main@count,w
  2971  070E  0439               	iorwf	main@count+1,w
  2972  070F  1D03               	btfss	3,2
  2973  0710  2F20               	goto	l1357
  2974  0711  3004               	movlw	4
  2975  0712  00B5               	movwf	??_main
  2976  0713  0835               	movf	??_main,w
  2977  0714  00F4               	movwf	gotoXY@y
  2978  0715  3023               	movlw	35
  2979  0716  3183  233A  3186   	fcall	_gotoXY
  2980  0719  30AC               	movlw	low (STR_4| (0+32768))
  2981  071A  00F8               	movwf	LCDWriteString@characters
  2982  071B  308B               	movlw	high (STR_4| (0+32768))
  2983  071C  00F9               	movwf	LCDWriteString@characters+1
  2984  071D  3183  234D  3186   	fcall	_LCDWriteString
  2985  0720                     l1357:	
  2986                           
  2987                           ;main.c: 31: if(count==120){ gotoXY(35,4); LCDWriteString("3... ");};
  2988  0720  3078               	movlw	120
  2989  0721  0020               	movlb	0	; select bank0
  2990  0722  0638               	xorwf	main@count,w
  2991  0723  0439               	iorwf	main@count+1,w
  2992  0724  1D03               	btfss	3,2
  2993  0725  2F35               	goto	l1363
  2994  0726  3004               	movlw	4
  2995  0727  00B5               	movwf	??_main
  2996  0728  0835               	movf	??_main,w
  2997  0729  00F4               	movwf	gotoXY@y
  2998  072A  3023               	movlw	35
  2999  072B  3183  233A  3186   	fcall	_gotoXY
  3000  072E  30A6               	movlw	low (STR_5| (0+32768))
  3001  072F  00F8               	movwf	LCDWriteString@characters
  3002  0730  308B               	movlw	high (STR_5| (0+32768))
  3003  0731  00F9               	movwf	LCDWriteString@characters+1
  3004  0732  3183  234D  3186   	fcall	_LCDWriteString
  3005  0735                     l1363:	
  3006                           
  3007                           ;main.c: 33: if(count==145){ gotoXY(35,4); LCDWriteString("2... ");};
  3008  0735  3091               	movlw	145
  3009  0736  0020               	movlb	0	; select bank0
  3010  0737  0638               	xorwf	main@count,w
  3011  0738  0439               	iorwf	main@count+1,w
  3012  0739  1D03               	btfss	3,2
  3013  073A  2F4A               	goto	l1369
  3014  073B  3004               	movlw	4
  3015  073C  00B5               	movwf	??_main
  3016  073D  0835               	movf	??_main,w
  3017  073E  00F4               	movwf	gotoXY@y
  3018  073F  3023               	movlw	35
  3019  0740  3183  233A  3186   	fcall	_gotoXY
  3020  0743  30A0               	movlw	low (STR_6| (0+32768))
  3021  0744  00F8               	movwf	LCDWriteString@characters
  3022  0745  308B               	movlw	high (STR_6| (0+32768))
  3023  0746  00F9               	movwf	LCDWriteString@characters+1
  3024  0747  3183  234D  3186   	fcall	_LCDWriteString
  3025  074A                     l1369:	
  3026                           
  3027                           ;main.c: 35: if(count==170){ gotoXY(35,4); LCDWriteString("1... ");};
  3028  074A  30AA               	movlw	170
  3029  074B  0020               	movlb	0	; select bank0
  3030  074C  0638               	xorwf	main@count,w
  3031  074D  0439               	iorwf	main@count+1,w
  3032  074E  1D03               	btfss	3,2
  3033  074F  2F5F               	goto	l1375
  3034  0750  3004               	movlw	4
  3035  0751  00B5               	movwf	??_main
  3036  0752  0835               	movf	??_main,w
  3037  0753  00F4               	movwf	gotoXY@y
  3038  0754  3023               	movlw	35
  3039  0755  3183  233A  3186   	fcall	_gotoXY
  3040  0758  309A               	movlw	low (STR_7| (0+32768))
  3041  0759  00F8               	movwf	LCDWriteString@characters
  3042  075A  308B               	movlw	high (STR_7| (0+32768))
  3043  075B  00F9               	movwf	LCDWriteString@characters+1
  3044  075C  3183  234D  3186   	fcall	_LCDWriteString
  3045  075F                     l1375:	
  3046                           
  3047                           ;main.c: 37: if(count==195)LCDClear();
  3048  075F  30C3               	movlw	195
  3049  0760  0020               	movlb	0	; select bank0
  3050  0761  0638               	xorwf	main@count,w
  3051  0762  0439               	iorwf	main@count+1,w
  3052  0763  1D03               	btfss	3,2
  3053  0764  2F68               	goto	l1379
  3054  0765  3183  239D  3186   	fcall	_LCDClear
  3055  0768                     l1379:	
  3056                           
  3057                           ;main.c: 39: if(count==196)
  3058  0768  30C4               	movlw	196
  3059  0769  0020               	movlb	0	; select bank0
  3060  076A  0638               	xorwf	main@count,w
  3061  076B  0439               	iorwf	main@count+1,w
  3062  076C  1D03               	btfss	3,2
  3063  076D  2F71               	goto	l1383
  3064                           
  3065                           ;main.c: 40: {
  3066                           ;main.c: 41: LCDDrawBox();
  3067  076E  3185  2537  3186   	fcall	_LCDDrawBox
  3068  0771                     l1383:	
  3069                           
  3070                           ;main.c: 42: }
  3071                           ;main.c: 44: if(count>196&&count<227)
  3072  0771  0020               	movlb	0	; select bank0
  3073  0772  0839               	movf	main@count+1,w
  3074  0773  3A80               	xorlw	128
  3075  0774  00B5               	movwf	??_main
  3076  0775  3080               	movlw	128
  3077  0776  0235               	subwf	??_main,w
  3078  0777  1D03               	skipz
  3079  0778  2F7B               	goto	u1225
  3080  0779  30C5               	movlw	197
  3081  077A  0238               	subwf	main@count,w
  3082  077B                     u1225:	
  3083  077B  1C03               	skipc
  3084  077C  2FD6               	goto	l1401
  3085  077D  0020               	movlb	0	; select bank0
  3086  077E  0839               	movf	main@count+1,w
  3087  077F  3A80               	xorlw	128
  3088  0780  00B5               	movwf	??_main
  3089  0781  3080               	movlw	128
  3090  0782  0235               	subwf	??_main,w
  3091  0783  1D03               	skipz
  3092  0784  2F87               	goto	u1235
  3093  0785  30E3               	movlw	227
  3094  0786  0238               	subwf	main@count,w
  3095  0787                     u1235:	
  3096  0787  1803               	skipnc
  3097  0788  2FD6               	goto	l1401
  3098                           
  3099                           ;main.c: 45: {
  3100                           ;main.c: 47: { gotoXY(8,1); LCDWriteString("LAYNE SUCKS COCK!!");};
  3101  0789  01F4               	clrf	gotoXY@y
  3102  078A  0AF4               	incf	gotoXY@y,f
  3103  078B  3008               	movlw	8
  3104  078C  3183  233A  3186   	fcall	_gotoXY
  3105  078F  3068               	movlw	low (STR_8| (0+32768))
  3106  0790  00F8               	movwf	LCDWriteString@characters
  3107  0791  308B               	movlw	high (STR_8| (0+32768))
  3108  0792  00F9               	movwf	LCDWriteString@characters+1
  3109  0793  3183  234D  3186   	fcall	_LCDWriteString
  3110                           
  3111                           ;main.c: 48: { gotoXY(8,2); LCDWriteString("A LOT!! of COCK");};
  3112  0796  3002               	movlw	2
  3113  0797  0020               	movlb	0	; select bank0
  3114  0798  00B5               	movwf	??_main
  3115  0799  0835               	movf	??_main,w
  3116  079A  00F4               	movwf	gotoXY@y
  3117  079B  3008               	movlw	8
  3118  079C  3183  233A  3186   	fcall	_gotoXY
  3119  079F  307B               	movlw	low (STR_9| (0+32768))
  3120  07A0  00F8               	movwf	LCDWriteString@characters
  3121  07A1  308B               	movlw	high (STR_9| (0+32768))
  3122  07A2  00F9               	movwf	LCDWriteString@characters+1
  3123  07A3  3183  234D  3186   	fcall	_LCDWriteString
  3124                           
  3125                           ;main.c: 50: { gotoXY(4,4); LCDWriteString("Number Sucked:");};
  3126  07A6  3004               	movlw	4
  3127  07A7  0020               	movlb	0	; select bank0
  3128  07A8  00B5               	movwf	??_main
  3129  07A9  0835               	movf	??_main,w
  3130  07AA  00F4               	movwf	gotoXY@y
  3131  07AB  3004               	movlw	4
  3132  07AC  3183  233A  3186   	fcall	_gotoXY
  3133  07AF  308B               	movlw	low (STR_10| (0+32768))
  3134  07B0  00F8               	movwf	LCDWriteString@characters
  3135  07B1  308B               	movlw	high (STR_10| (0+32768))
  3136  07B2  00F9               	movwf	LCDWriteString@characters+1
  3137  07B3  3183  234D  3186   	fcall	_LCDWriteString
  3138                           
  3139                           ;main.c: 52: { gotoXY(64,4); LCDWriteInt(count-196,-1, 0, 0);};
  3140  07B6  3004               	movlw	4
  3141  07B7  0020               	movlb	0	; select bank0
  3142  07B8  00B5               	movwf	??_main
  3143  07B9  0835               	movf	??_main,w
  3144  07BA  00F4               	movwf	gotoXY@y
  3145  07BB  3040               	movlw	64
  3146  07BC  3183  233A  3186   	fcall	_gotoXY
  3147  07BF  0020               	movlb	0	; select bank0
  3148  07C0  0838               	movf	main@count,w
  3149  07C1  3E3C               	addlw	60
  3150  07C2  00A7               	movwf	LCDWriteInt@value
  3151  07C3  30FF               	movlw	255
  3152  07C4  3D39               	addwfc	main@count+1,w
  3153  07C5  00A8               	movwf	LCDWriteInt@value+1
  3154  07C6  01A9               	clrf	LCDWriteInt@fieldLength
  3155  07C7  03A9               	decf	LCDWriteInt@fieldLength,f
  3156  07C8  01AA               	clrf	LCDWriteInt@numPlaces
  3157  07C9  01AB               	clrf	LCDWriteInt@sign
  3158  07CA  3185  25D8  3186   	fcall	_LCDWriteInt
  3159                           
  3160                           ;main.c: 54: _delay((unsigned long)((500)*(1000000/4000.0)));
  3161  07CD  30A3               	movlw	163
  3162  07CE  0020               	movlb	0	; select bank0
  3163  07CF  00B6               	movwf	??_main+1
  3164  07D0  3055               	movlw	85
  3165  07D1  00B5               	movwf	??_main
  3166  07D2                     u1267:	
  3167  07D2  0BB5               	decfsz	??_main,f
  3168  07D3  2FD2               	goto	u1267
  3169  07D4  0BB6               	decfsz	??_main+1,f
  3170  07D5  2FD2               	goto	u1267
  3171  07D6                     l1401:	
  3172                           
  3173                           ;main.c: 55: }
  3174                           ;main.c: 57: _delay((unsigned long)((50)*(1000000/4000.0)));
  3175  07D6  3011               	movlw	17
  3176  07D7  0020               	movlb	0	; select bank0
  3177  07D8  00B6               	movwf	??_main+1
  3178  07D9  303A               	movlw	58
  3179  07DA  00B5               	movwf	??_main
  3180  07DB                     u1277:	
  3181  07DB  0BB5               	decfsz	??_main,f
  3182  07DC  2FDB               	goto	u1277
  3183  07DD  0BB6               	decfsz	??_main+1,f
  3184  07DE  2FDB               	goto	u1277
  3185  07DF  0000               	nop
  3186                           
  3187                           ;main.c: 59: if(count>=227)
  3188  07E0  0020               	movlb	0	; select bank0
  3189  07E1  0839               	movf	main@count+1,w
  3190  07E2  3A80               	xorlw	128
  3191  07E3  00B5               	movwf	??_main
  3192  07E4  3080               	movlw	128
  3193  07E5  0235               	subwf	??_main,w
  3194  07E6  1D03               	skipz
  3195  07E7  2FEA               	goto	u1245
  3196  07E8  30E3               	movlw	227
  3197  07E9  0238               	subwf	main@count,w
  3198  07EA                     u1245:	
  3199  07EA  1C03               	skipc
  3200  07EB  2FF2               	goto	l1409
  3201                           
  3202                           ;main.c: 60: {
  3203                           ;main.c: 61: count=0;
  3204  07EC  0020               	movlb	0	; select bank0
  3205  07ED  01B8               	clrf	main@count
  3206  07EE  01B9               	clrf	main@count+1
  3207                           
  3208                           ;main.c: 62: LCDClear();
  3209  07EF  3183  239D  3186   	fcall	_LCDClear
  3210  07F2                     l1409:	
  3211                           
  3212                           ;main.c: 63: }
  3213                           ;main.c: 65: count+=1;
  3214  07F2  3001               	movlw	1
  3215  07F3  0020               	movlb	0	; select bank0
  3216  07F4  07B8               	addwf	main@count,f
  3217  07F5  3000               	movlw	0
  3218  07F6  3DB9               	addwfc	main@count+1,f
  3219  07F7  2EC3               	goto	l1329
  3220  07F8                     __end_of_main:	
  3221                           
  3222                           	psect	text1
  3223  03EA                     __ptext1:	
  3224 ;; *************** function _SYSTEM_Initialize *****************
  3225 ;; Defined at:
  3226 ;;		line 37 in file "system.c"
  3227 ;; Parameters:    Size  Location     Type
  3228 ;;		None
  3229 ;; Auto vars:     Size  Location     Type
  3230 ;;		None
  3231 ;; Return value:  Size  Location     Type
  3232 ;;                  1    wreg      void 
  3233 ;; Registers used:
  3234 ;;		wreg, status,2, status,0, pclath, cstack
  3235 ;; Tracked objects:
  3236 ;;		On entry : 0/0
  3237 ;;		On exit  : 0/0
  3238 ;;		Unchanged: 0/0
  3239 ;; Data sizes:     COMMON   BANK0   BANK1   BANK2   BANK3   BANK4   BANK5   BANK6   BANK7   BANK8   BANK9  BANK10  BANK1
      +1  BANK12
  3240 ;;      Params:         0       0       0       0       0       0       0       0       0       0       0       0       
      +0       0
  3241 ;;      Locals:         0       0       0       0       0       0       0       0       0       0       0       0       
      +0       0
  3242 ;;      Temps:          2       0       0       0       0       0       0       0       0       0       0       0       
      +0       0
  3243 ;;      Totals:         2       0       0       0       0       0       0       0       0       0       0       0       
      +0       0
  3244 ;;Total ram usage:        2 bytes
  3245 ;; Hardware stack levels used:    1
  3246 ;; Hardware stack levels required when called:    3
  3247 ;; This function calls:
  3248 ;;		_LCDClear
  3249 ;;		_LCDInit
  3250 ;;		_OSCILLATOR_Initialize
  3251 ;; This function is called by:
  3252 ;;		_main
  3253 ;; This function uses a non-reentrant model
  3254 ;;
  3255                           
  3256                           
  3257                           ;psect for function _SYSTEM_Initialize
  3258  03EA                     _SYSTEM_Initialize:	
  3259                           
  3260                           ;system.c: 39: TRISA = 0x00;
  3261                           
  3262                           ;incstack = 0
  3263                           ; Regs used in _SYSTEM_Initialize: [wreg+status,2+status,0+pclath+cstack]
  3264  03EA  0020               	movlb	0	; select bank0
  3265  03EB  0191               	clrf	17	;volatile
  3266                           
  3267                           ;system.c: 40: TRISB = 0x00;
  3268  03EC  0192               	clrf	18	;volatile
  3269                           
  3270                           ;system.c: 41: TRISC = 0x40;
  3271  03ED  3040               	movlw	64
  3272  03EE  0093               	movwf	19	;volatile
  3273                           
  3274                           ;system.c: 43: ANSELA = 0x00;
  3275  03EF  003E               	movlb	30	; select bank30
  3276  03F0  01B8               	clrf	56	;volatile
  3277                           
  3278                           ;system.c: 44: ANSELB = 0x00;
  3279  03F1  01C3               	clrf	67	;volatile
  3280                           
  3281                           ;system.c: 45: ANSELC = 0x00;
  3282  03F2  01CE               	clrf	78	;volatile
  3283                           
  3284                           ;system.c: 47: LATA = 0x00;
  3285  03F3  0020               	movlb	0	; select bank0
  3286  03F4  0196               	clrf	22	;volatile
  3287                           
  3288                           ;system.c: 48: LATB = 0x20;
  3289  03F5  3020               	movlw	32
  3290  03F6  0097               	movwf	23	;volatile
  3291                           
  3292                           ;system.c: 49: LATC = 0x00;
  3293  03F7  0198               	clrf	24	;volatile
  3294                           
  3295                           ;system.c: 51: WPUA = 0x00;
  3296  03F8  003E               	movlb	30	; select bank30
  3297  03F9  01B9               	clrf	57	;volatile
  3298                           
  3299                           ;system.c: 52: WPUB = 0x00;
  3300  03FA  01C4               	clrf	68	;volatile
  3301                           
  3302                           ;system.c: 53: WPUC = 0x00;
  3303  03FB  01CF               	clrf	79	;volatile
  3304                           
  3305                           ;system.c: 54: WPUE = 0x8;
  3306  03FC  3008               	movlw	8
  3307  03FD  00E5               	movwf	101	;volatile
  3308                           
  3309                           ;system.c: 56: OSCILLATOR_Initialize();
  3310  03FE  3183  2332  3183   	fcall	_OSCILLATOR_Initialize
  3311                           
  3312                           ;system.c: 57: FVRCON = 0x00;
  3313  0401  0032               	movlb	18	; select bank18
  3314  0402  018C               	clrf	12	;volatile
  3315                           
  3316                           ;system.c: 58: LCDInit();
  3317  0403  3184  241C  3183   	fcall	_LCDInit
  3318                           
  3319                           ;system.c: 59: _delay((unsigned long)((200)*(1000000/4000.0)));
  3320  0406  3041               	movlw	65
  3321  0407  00FB               	movwf	??_SYSTEM_Initialize+1
  3322  0408  30EE               	movlw	238
  3323  0409  00FA               	movwf	??_SYSTEM_Initialize
  3324  040A                     u1287:	
  3325  040A  0BFA               	decfsz	??_SYSTEM_Initialize,f
  3326  040B  2C0A               	goto	u1287
  3327  040C  0BFB               	decfsz	??_SYSTEM_Initialize+1,f
  3328  040D  2C0A               	goto	u1287
  3329  040E  0000               	nop
  3330                           
  3331                           ;system.c: 60: LCDClear();
  3332  040F  3183  239D  3183   	fcall	_LCDClear
  3333                           
  3334                           ;system.c: 61: _delay((unsigned long)((100)*(1000000/4000.0)));
  3335  0412  3021               	movlw	33
  3336  0413  00FB               	movwf	??_SYSTEM_Initialize+1
  3337  0414  3076               	movlw	118
  3338  0415  00FA               	movwf	??_SYSTEM_Initialize
  3339  0416                     u1297:	
  3340  0416  0BFA               	decfsz	??_SYSTEM_Initialize,f
  3341  0417  2C16               	goto	u1297
  3342  0418  0BFB               	decfsz	??_SYSTEM_Initialize+1,f
  3343  0419  2C16               	goto	u1297
  3344  041A  0000               	nop
  3345  041B  0008               	return
  3346  041C                     __end_of_SYSTEM_Initialize:	
  3347                           
  3348                           	psect	text2
  3349  0332                     __ptext2:	
  3350 ;; *************** function _OSCILLATOR_Initialize *****************
  3351 ;; Defined at:
  3352 ;;		line 64 in file "system.c"
  3353 ;; Parameters:    Size  Location     Type
  3354 ;;		None
  3355 ;; Auto vars:     Size  Location     Type
  3356 ;;		None
  3357 ;; Return value:  Size  Location     Type
  3358 ;;                  1    wreg      void 
  3359 ;; Registers used:
  3360 ;;		wreg, status,2
  3361 ;; Tracked objects:
  3362 ;;		On entry : 0/0
  3363 ;;		On exit  : 0/0
  3364 ;;		Unchanged: 0/0
  3365 ;; Data sizes:     COMMON   BANK0   BANK1   BANK2   BANK3   BANK4   BANK5   BANK6   BANK7   BANK8   BANK9  BANK10  BANK1
      +1  BANK12
  3366 ;;      Params:         0       0       0       0       0       0       0       0       0       0       0       0       
      +0       0
  3367 ;;      Locals:         0       0       0       0       0       0       0       0       0       0       0       0       
      +0       0
  3368 ;;      Temps:          0       0       0       0       0       0       0       0       0       0       0       0       
      +0       0
  3369 ;;      Totals:         0       0       0       0       0       0       0       0       0       0       0       0       
      +0       0
  3370 ;;Total ram usage:        0 bytes
  3371 ;; Hardware stack levels used:    1
  3372 ;; This function calls:
  3373 ;;		Nothing
  3374 ;; This function is called by:
  3375 ;;		_SYSTEM_Initialize
  3376 ;; This function uses a non-reentrant model
  3377 ;;
  3378                           
  3379                           
  3380                           ;psect for function _OSCILLATOR_Initialize
  3381  0332                     _OSCILLATOR_Initialize:	
  3382                           
  3383                           ;system.c: 66: OSCCON1 = 0x60;
  3384                           
  3385                           ;incstack = 0
  3386                           ; Regs used in _OSCILLATOR_Initialize: [wreg+status,2]
  3387  0332  3060               	movlw	96
  3388  0333  0031               	movlb	17	; select bank17
  3389  0334  008D               	movwf	13	;volatile
  3390                           
  3391                           ;system.c: 67: OSCCON3 = 0x00;
  3392  0335  018F               	clrf	15	;volatile
  3393                           
  3394                           ;system.c: 68: OSCEN = 0x00;
  3395  0336  0191               	clrf	17	;volatile
  3396                           
  3397                           ;system.c: 69: OSCFRQ = 0x00;
  3398  0337  0193               	clrf	19	;volatile
  3399                           
  3400                           ;system.c: 70: OSCTUNE = 0x00;
  3401  0338  0192               	clrf	18	;volatile
  3402  0339  0008               	return
  3403  033A                     __end_of_OSCILLATOR_Initialize:	
  3404                           
  3405                           	psect	text3
  3406  041C                     __ptext3:	
  3407 ;; *************** function _LCDInit *****************
  3408 ;; Defined at:
  3409 ;;		line 237 in file "lcd.c"
  3410 ;; Parameters:    Size  Location     Type
  3411 ;;		None
  3412 ;; Auto vars:     Size  Location     Type
  3413 ;;		None
  3414 ;; Return value:  Size  Location     Type
  3415 ;;                  1    wreg      void 
  3416 ;; Registers used:
  3417 ;;		wreg, status,2, status,0, pclath, cstack
  3418 ;; Tracked objects:
  3419 ;;		On entry : 0/0
  3420 ;;		On exit  : 0/0
  3421 ;;		Unchanged: 0/0
  3422 ;; Data sizes:     COMMON   BANK0   BANK1   BANK2   BANK3   BANK4   BANK5   BANK6   BANK7   BANK8   BANK9  BANK10  BANK1
      +1  BANK12
  3423 ;;      Params:         0       0       0       0       0       0       0       0       0       0       0       0       
      +0       0
  3424 ;;      Locals:         0       0       0       0       0       0       0       0       0       0       0       0       
      +0       0
  3425 ;;      Temps:          1       0       0       0       0       0       0       0       0       0       0       0       
      +0       0
  3426 ;;      Totals:         1       0       0       0       0       0       0       0       0       0       0       0       
      +0       0
  3427 ;;Total ram usage:        1 bytes
  3428 ;; Hardware stack levels used:    1
  3429 ;; Hardware stack levels required when called:    1
  3430 ;; This function calls:
  3431 ;;		_LCDWrite
  3432 ;; This function is called by:
  3433 ;;		_SYSTEM_Initialize
  3434 ;; This function uses a non-reentrant model
  3435 ;;
  3436                           
  3437                           
  3438                           ;psect for function _LCDInit
  3439  041C                     _LCDInit:	
  3440                           
  3441                           ;lcd.c: 239: TRISBbits.TRISB0 = 0;
  3442                           
  3443                           ;incstack = 0
  3444                           ; Regs used in _LCDInit: [wreg+status,2+status,0+pclath+cstack]
  3445  041C  0020               	movlb	0	; select bank0
  3446  041D  1012               	bcf	18,0	;volatile
  3447                           
  3448                           ;lcd.c: 240: TRISBbits.TRISB1 = 0;
  3449  041E  1092               	bcf	18,1	;volatile
  3450                           
  3451                           ;lcd.c: 241: TRISBbits.TRISB2 = 0;
  3452  041F  1112               	bcf	18,2	;volatile
  3453                           
  3454                           ;lcd.c: 242: TRISBbits.TRISB3 = 0;
  3455  0420  1192               	bcf	18,3	;volatile
  3456                           
  3457                           ;lcd.c: 243: TRISBbits.TRISB4 = 0;
  3458  0421  1212               	bcf	18,4	;volatile
  3459                           
  3460                           ;lcd.c: 244: LATBbits.LATB3 = 0;
  3461  0422  1197               	bcf	23,3	;volatile
  3462                           
  3463                           ;lcd.c: 245: LATBbits.LATB4 = 0;
  3464  0423  1217               	bcf	23,4	;volatile
  3465                           
  3466                           ;lcd.c: 246: LATBbits.LATB2 = 0;
  3467  0424  1117               	bcf	23,2	;volatile
  3468                           
  3469                           ;lcd.c: 247: LATBbits.LATB0 = 0;
  3470  0425  1017               	bcf	23,0	;volatile
  3471                           
  3472                           ;lcd.c: 249: LATBbits.LATB0 = 1;
  3473  0426  1417               	bsf	23,0	;volatile
  3474                           
  3475                           ;lcd.c: 251: LCDWrite(0, 0x21);
  3476  0427  3021               	movlw	33
  3477  0428  00F4               	movwf	??_LCDInit
  3478  0429  0874               	movf	??_LCDInit,w
  3479  042A  00F0               	movwf	LCDWrite@data
  3480  042B  3000               	movlw	0
  3481  042C  3183  237C  3184   	fcall	_LCDWrite
  3482                           
  3483                           ;lcd.c: 258: LCDWrite(0, 0xBE);
  3484  042F  30BE               	movlw	190
  3485  0430  00F4               	movwf	??_LCDInit
  3486  0431  0874               	movf	??_LCDInit,w
  3487  0432  00F0               	movwf	LCDWrite@data
  3488  0433  3000               	movlw	0
  3489  0434  3183  237C  3184   	fcall	_LCDWrite
  3490                           
  3491                           ;lcd.c: 260: LCDWrite(0, 0x04);
  3492  0437  3004               	movlw	4
  3493  0438  00F4               	movwf	??_LCDInit
  3494  0439  0874               	movf	??_LCDInit,w
  3495  043A  00F0               	movwf	LCDWrite@data
  3496  043B  3000               	movlw	0
  3497  043C  3183  237C  3184   	fcall	_LCDWrite
  3498                           
  3499                           ;lcd.c: 262: LCDWrite(0, 0x14);
  3500  043F  3014               	movlw	20
  3501  0440  00F4               	movwf	??_LCDInit
  3502  0441  0874               	movf	??_LCDInit,w
  3503  0442  00F0               	movwf	LCDWrite@data
  3504  0443  3000               	movlw	0
  3505  0444  3183  237C  3184   	fcall	_LCDWrite
  3506                           
  3507                           ;lcd.c: 264: LCDWrite(0, 0x20);
  3508  0447  3020               	movlw	32
  3509  0448  00F4               	movwf	??_LCDInit
  3510  0449  0874               	movf	??_LCDInit,w
  3511  044A  00F0               	movwf	LCDWrite@data
  3512  044B  3000               	movlw	0
  3513  044C  3183  237C  3184   	fcall	_LCDWrite
  3514                           
  3515                           ;lcd.c: 266: LCDWrite(0, 0x0C);
  3516  044F  300C               	movlw	12
  3517  0450  00F4               	movwf	??_LCDInit
  3518  0451  0874               	movf	??_LCDInit,w
  3519  0452  00F0               	movwf	LCDWrite@data
  3520  0453  3000               	movlw	0
  3521  0454  3183  237C         	fcall	_LCDWrite
  3522  0456  0008               	return
  3523  0457                     __end_of_LCDInit:	
  3524                           
  3525                           	psect	text4
  3526  039D                     __ptext4:	
  3527 ;; *************** function _LCDClear *****************
  3528 ;; Defined at:
  3529 ;;		line 172 in file "lcd.c"
  3530 ;; Parameters:    Size  Location     Type
  3531 ;;		None
  3532 ;; Auto vars:     Size  Location     Type
  3533 ;;  index           2    8[COMMON] int 
  3534 ;; Return value:  Size  Location     Type
  3535 ;;                  1    wreg      void 
  3536 ;; Registers used:
  3537 ;;		wreg, status,2, status,0, pclath, cstack
  3538 ;; Tracked objects:
  3539 ;;		On entry : 0/0
  3540 ;;		On exit  : 0/0
  3541 ;;		Unchanged: 0/0
  3542 ;; Data sizes:     COMMON   BANK0   BANK1   BANK2   BANK3   BANK4   BANK5   BANK6   BANK7   BANK8   BANK9  BANK10  BANK1
      +1  BANK12
  3543 ;;      Params:         0       0       0       0       0       0       0       0       0       0       0       0       
      +0       0
  3544 ;;      Locals:         2       0       0       0       0       0       0       0       0       0       0       0       
      +0       0
  3545 ;;      Temps:          1       0       0       0       0       0       0       0       0       0       0       0       
      +0       0
  3546 ;;      Totals:         3       0       0       0       0       0       0       0       0       0       0       0       
      +0       0
  3547 ;;Total ram usage:        3 bytes
  3548 ;; Hardware stack levels used:    1
  3549 ;; Hardware stack levels required when called:    2
  3550 ;; This function calls:
  3551 ;;		_LCDWrite
  3552 ;;		_gotoXY
  3553 ;; This function is called by:
  3554 ;;		_main
  3555 ;;		_SYSTEM_Initialize
  3556 ;; This function uses a non-reentrant model
  3557 ;;
  3558                           
  3559                           
  3560                           ;psect for function _LCDClear
  3561  039D                     _LCDClear:	
  3562                           
  3563                           ;lcd.c: 174: int index;
  3564                           ;lcd.c: 175: for (index = 0 ; index < (84 * 48 / 8) ; index++)
  3565                           
  3566                           ;incstack = 0
  3567                           ; Regs used in _LCDClear: [wreg+status,2+status,0+pclath+cstack]
  3568  039D  01F8               	clrf	LCDClear@index
  3569  039E  01F9               	clrf	LCDClear@index+1
  3570  039F  0879               	movf	LCDClear@index+1,w
  3571  03A0  3A80               	xorlw	128
  3572  03A1  00F7               	movwf	??_LCDClear
  3573  03A2  3081               	movlw	129
  3574  03A3  0277               	subwf	??_LCDClear,w
  3575  03A4  1D03               	skipz
  3576  03A5  2BA8               	goto	u715
  3577  03A6  30F8               	movlw	248
  3578  03A7  0278               	subwf	LCDClear@index,w
  3579  03A8                     u715:	
  3580  03A8  1803               	btfsc	3,0
  3581  03A9  2BBE               	goto	l1065
  3582  03AA                     l1059:	
  3583                           
  3584                           ;lcd.c: 176: LCDWrite(1, 0x00);
  3585  03AA  01F0               	clrf	LCDWrite@data
  3586  03AB  3001               	movlw	1
  3587  03AC  3183  237C  3183   	fcall	_LCDWrite
  3588  03AF  3001               	movlw	1
  3589  03B0  07F8               	addwf	LCDClear@index,f
  3590  03B1  3000               	movlw	0
  3591  03B2  3DF9               	addwfc	LCDClear@index+1,f
  3592  03B3  0879               	movf	LCDClear@index+1,w
  3593  03B4  3A80               	xorlw	128
  3594  03B5  00F7               	movwf	??_LCDClear
  3595  03B6  3081               	movlw	129
  3596  03B7  0277               	subwf	??_LCDClear,w
  3597  03B8  1D03               	skipz
  3598  03B9  2BBC               	goto	u725
  3599  03BA  30F8               	movlw	248
  3600  03BB  0278               	subwf	LCDClear@index,w
  3601  03BC                     u725:	
  3602  03BC  1C03               	skipc
  3603  03BD  2BAA               	goto	l1059
  3604  03BE                     l1065:	
  3605                           
  3606                           ;lcd.c: 177: gotoXY(0, 0);
  3607  03BE  01F4               	clrf	gotoXY@y
  3608  03BF  3000               	movlw	0
  3609  03C0  3183  233A         	fcall	_gotoXY
  3610  03C2  0008               	return
  3611  03C3                     __end_of_LCDClear:	
  3612                           
  3613                           	psect	text5
  3614  034D                     __ptext5:	
  3615 ;; *************** function _LCDWriteString *****************
  3616 ;; Defined at:
  3617 ;;		line 166 in file "lcd.c"
  3618 ;; Parameters:    Size  Location     Type
  3619 ;;  characters      2    8[COMMON] PTR const unsigned char 
  3620 ;;		 -> STR_10(15), STR_9(16), STR_8(19), STR_7(6), 
  3621 ;;		 -> STR_6(6), STR_5(6), STR_4(6), STR_3(6), 
  3622 ;;		 -> STR_2(43), STR_1(22), 
  3623 ;; Auto vars:     Size  Location     Type
  3624 ;;		None
  3625 ;; Return value:  Size  Location     Type
  3626 ;;                  1    wreg      void 
  3627 ;; Registers used:
  3628 ;;		wreg, fsr0l, fsr0h, status,2, status,0, pclath, cstack
  3629 ;; Tracked objects:
  3630 ;;		On entry : 0/0
  3631 ;;		On exit  : 0/0
  3632 ;;		Unchanged: 0/0
  3633 ;; Data sizes:     COMMON   BANK0   BANK1   BANK2   BANK3   BANK4   BANK5   BANK6   BANK7   BANK8   BANK9  BANK10  BANK1
      +1  BANK12
  3634 ;;      Params:         2       0       0       0       0       0       0       0       0       0       0       0       
      +0       0
  3635 ;;      Locals:         0       0       0       0       0       0       0       0       0       0       0       0       
      +0       0
  3636 ;;      Temps:          1       0       0       0       0       0       0       0       0       0       0       0       
      +0       0
  3637 ;;      Totals:         3       0       0       0       0       0       0       0       0       0       0       0       
      +0       0
  3638 ;;Total ram usage:        3 bytes
  3639 ;; Hardware stack levels used:    1
  3640 ;; Hardware stack levels required when called:    2
  3641 ;; This function calls:
  3642 ;;		_LCDWriteCharacter
  3643 ;; This function is called by:
  3644 ;;		_main
  3645 ;; This function uses a non-reentrant model
  3646 ;;
  3647                           
  3648                           
  3649                           ;psect for function _LCDWriteString
  3650  034D                     _LCDWriteString:	
  3651  034D                     l1221:	
  3652                           ;lcd.c: 168: while (*characters)
  3653                           
  3654                           ;incstack = 0
  3655                           ; Regs used in _LCDWriteString: [wreg-fsr0h+status,2+status,0+pclath+cstack]
  3656                           
  3657  034D  0878               	movf	LCDWriteString@characters,w
  3658  034E  0084               	movwf	4
  3659  034F  0879               	movf	LCDWriteString@characters+1,w
  3660  0350  0085               	movwf	5
  3661  0351  0012               	moviw fsr0++
  3662  0352  1903               	btfsc	3,2
  3663  0353  0008               	return
  3664                           
  3665                           ;lcd.c: 169: LCDWriteCharacter(*characters++);
  3666  0354  0878               	movf	LCDWriteString@characters,w
  3667  0355  0084               	movwf	4
  3668  0356  0879               	movf	LCDWriteString@characters+1,w
  3669  0357  0085               	movwf	5
  3670  0358  0800               	movf	0,w	;code access
  3671  0359  3184  249C  3183   	fcall	_LCDWriteCharacter
  3672  035C  3001               	movlw	1
  3673  035D  07F8               	addwf	LCDWriteString@characters,f
  3674  035E  3000               	movlw	0
  3675  035F  3DF9               	addwfc	LCDWriteString@characters+1,f
  3676  0360  2B4D               	goto	l1221
  3677  0361                     __end_of_LCDWriteString:	
  3678                           
  3679                           	psect	text6
  3680  05D8                     __ptext6:	
  3681 ;; *************** function _LCDWriteInt *****************
  3682 ;; Defined at:
  3683 ;;		line 180 in file "lcd.c"
  3684 ;; Parameters:    Size  Location     Type
  3685 ;;  value           2    7[BANK0 ] int 
  3686 ;;  fieldLength     1    9[BANK0 ] char 
  3687 ;;  numPlaces       1   10[BANK0 ] char 
  3688 ;;  sign            1   11[BANK0 ] char 
  3689 ;; Auto vars:     Size  Location     Type
  3690 ;;  str             5   12[BANK0 ] unsigned char [5]
  3691 ;;  i               2   19[BANK0 ] int 
  3692 ;;  j               2   17[BANK0 ] int 
  3693 ;; Return value:  Size  Location     Type
  3694 ;;                  1    wreg      void 
  3695 ;; Registers used:
  3696 ;;		wreg, fsr0l, fsr0h, fsr1l, fsr1h, status,2, status,0, pclath, cstack
  3697 ;; Tracked objects:
  3698 ;;		On entry : 0/0
  3699 ;;		On exit  : 0/0
  3700 ;;		Unchanged: 0/0
  3701 ;; Data sizes:     COMMON   BANK0   BANK1   BANK2   BANK3   BANK4   BANK5   BANK6   BANK7   BANK8   BANK9  BANK10  BANK1
      +1  BANK12
  3702 ;;      Params:         0       5       0       0       0       0       0       0       0       0       0       0       
      +0       0
  3703 ;;      Locals:         0       9       0       0       0       0       0       0       0       0       0       0       
      +0       0
  3704 ;;      Temps:          5       0       0       0       0       0       0       0       0       0       0       0       
      +0       0
  3705 ;;      Totals:         5      14       0       0       0       0       0       0       0       0       0       0       
      +0       0
  3706 ;;Total ram usage:       19 bytes
  3707 ;; Hardware stack levels used:    1
  3708 ;; Hardware stack levels required when called:    2
  3709 ;; This function calls:
  3710 ;;		_LCDWriteCharacter
  3711 ;;		___awdiv
  3712 ;;		___awmod
  3713 ;; This function is called by:
  3714 ;;		_main
  3715 ;; This function uses a non-reentrant model
  3716 ;;
  3717                           
  3718                           
  3719                           ;psect for function _LCDWriteInt
  3720  05D8                     _LCDWriteInt:	
  3721                           
  3722                           ;lcd.c: 182: char str[5]={0,0,0,0,0};
  3723                           
  3724                           ;incstack = 0
  3725                           ; Regs used in _LCDWriteInt: [wreg-fsr1h+status,2+status,0+pclath+cstack]
  3726  05D8  303A               	movlw	low LCDWriteInt@F13605
  3727  05D9  0086               	movwf	6
  3728  05DA  3000               	movlw	high LCDWriteInt@F13605
  3729  05DB  0087               	movwf	7
  3730  05DC  302C               	movlw	low LCDWriteInt@str
  3731  05DD  0084               	movwf	4
  3732  05DE  3000               	movlw	high LCDWriteInt@str
  3733  05DF  0085               	movwf	5
  3734  05E0  3005               	movlw	5
  3735  05E1  00F9               	movwf	??_LCDWriteInt
  3736  05E2                     u1030:	
  3737  05E2  0016               	moviw fsr1++
  3738  05E3  001A               	movwi fsr0++
  3739  05E4  0BF9               	decfsz	??_LCDWriteInt,f
  3740  05E5  2DE2               	goto	u1030
  3741                           
  3742                           ;lcd.c: 183: int i=4,j=0;
  3743  05E6  3004               	movlw	4
  3744  05E7  0020               	movlb	0	; select bank0
  3745  05E8  00B3               	movwf	LCDWriteInt@i
  3746  05E9  3000               	movlw	0
  3747  05EA  00B4               	movwf	LCDWriteInt@i+1
  3748  05EB  01B1               	clrf	LCDWriteInt@j
  3749  05EC  01B2               	clrf	LCDWriteInt@j+1
  3750                           
  3751                           ;lcd.c: 185: if(value<0)
  3752  05ED  1FA8               	btfss	LCDWriteInt@value+1,7
  3753  05EE  2DFA               	goto	l1283
  3754                           
  3755                           ;lcd.c: 186: {
  3756                           ;lcd.c: 187: LCDWriteCharacter('-');
  3757  05EF  302D               	movlw	45
  3758  05F0  3184  249C  3185   	fcall	_LCDWriteCharacter
  3759                           
  3760                           ;lcd.c: 188: value=value*-1;
  3761  05F3  0020               	movlb	0	; select bank0
  3762  05F4  09A7               	comf	LCDWriteInt@value,f
  3763  05F5  09A8               	comf	LCDWriteInt@value+1,f
  3764  05F6  0AA7               	incf	LCDWriteInt@value,f
  3765  05F7  1903               	skipnz
  3766  05F8  0AA8               	incf	LCDWriteInt@value+1,f
  3767                           
  3768                           ;lcd.c: 189: }
  3769  05F9  2E01               	goto	l1293
  3770  05FA                     l1283:	
  3771                           
  3772                           ;lcd.c: 191: else
  3773                           ;lcd.c: 192: {
  3774                           ;lcd.c: 193: if(sign == 1)
  3775  05FA  032B               	decf	LCDWriteInt@sign,w
  3776  05FB  1D03               	btfss	3,2
  3777  05FC  2E01               	goto	l1293
  3778                           
  3779                           ;lcd.c: 194: {
  3780                           ;lcd.c: 195: LCDWriteCharacter('+');
  3781  05FD  302B               	movlw	43
  3782  05FE  3184  249C  3185   	fcall	_LCDWriteCharacter
  3783  0601                     l1293:	
  3784                           ;lcd.c: 196: }
  3785                           ;lcd.c: 197: }
  3786                           ;lcd.c: 199: while(value)
  3787                           
  3788  0601  0020               	movlb	0	; select bank0
  3789  0602  0827               	movf	LCDWriteInt@value,w
  3790  0603  0428               	iorwf	LCDWriteInt@value+1,w
  3791  0604  1903               	btfsc	3,2
  3792  0605  2E30               	goto	l1295
  3793                           
  3794                           ;lcd.c: 200: {
  3795                           ;lcd.c: 201: str[i]=value%10;
  3796  0606  300A               	movlw	10
  3797  0607  00F0               	movwf	___awmod@divisor
  3798  0608  3000               	movlw	0
  3799  0609  00F1               	movwf	___awmod@divisor+1
  3800  060A  0020               	movlb	0	; select bank0
  3801  060B  0828               	movf	LCDWriteInt@value+1,w
  3802  060C  00F3               	movwf	___awmod@dividend+1
  3803  060D  0827               	movf	LCDWriteInt@value,w
  3804  060E  00F2               	movwf	___awmod@dividend
  3805  060F  3184  2457  3185   	fcall	___awmod
  3806  0612  0870               	movf	?___awmod,w
  3807  0613  00F9               	movwf	??_LCDWriteInt
  3808  0614  0020               	movlb	0	; select bank0
  3809  0615  0833               	movf	LCDWriteInt@i,w
  3810  0616  3E2C               	addlw	(low (LCDWriteInt@str| 0))& (0+255)
  3811  0617  0086               	movwf	6
  3812  0618  0187               	clrf	7
  3813  0619  0879               	movf	??_LCDWriteInt,w
  3814  061A  0081               	movwf	1
  3815                           
  3816                           ;lcd.c: 202: value=value/10;
  3817  061B  300A               	movlw	10
  3818  061C  00F0               	movwf	___awdiv@divisor
  3819  061D  3000               	movlw	0
  3820  061E  00F1               	movwf	___awdiv@divisor+1
  3821  061F  0828               	movf	LCDWriteInt@value+1,w
  3822  0620  00F3               	movwf	___awdiv@dividend+1
  3823  0621  0827               	movf	LCDWriteInt@value,w
  3824  0622  00F2               	movwf	___awdiv@dividend
  3825  0623  3184  24E6  3185   	fcall	___awdiv
  3826  0626  0871               	movf	?___awdiv+1,w
  3827  0627  0020               	movlb	0	; select bank0
  3828  0628  00A8               	movwf	LCDWriteInt@value+1
  3829  0629  0870               	movf	?___awdiv,w
  3830  062A  00A7               	movwf	LCDWriteInt@value
  3831                           
  3832                           ;lcd.c: 203: i--;
  3833  062B  30FF               	movlw	255
  3834  062C  07B3               	addwf	LCDWriteInt@i,f
  3835  062D  30FF               	movlw	255
  3836  062E  3DB4               	addwfc	LCDWriteInt@i+1,f
  3837  062F  2E01               	goto	l1293
  3838  0630                     l1295:	
  3839                           
  3840                           ;lcd.c: 204: }
  3841                           ;lcd.c: 205: if(fieldLength==-1)
  3842  0630  0A29               	incf	LCDWriteInt@fieldLength,w
  3843  0631  1903               	btfsc	3,2
  3844  0632  2E38               	goto	l1301
  3845  0633  2E40               	goto	l1303
  3846  0634                     l1299:	
  3847                           ;lcd.c: 206: {
  3848                           ;lcd.c: 207: while(str[j]==0)
  3849                           
  3850                           
  3851                           ;lcd.c: 208: {
  3852                           ;lcd.c: 209: j++;
  3853  0634  3001               	movlw	1
  3854  0635  07B1               	addwf	LCDWriteInt@j,f
  3855  0636  3000               	movlw	0
  3856  0637  3DB2               	addwfc	LCDWriteInt@j+1,f
  3857  0638                     l1301:	
  3858  0638  0831               	movf	LCDWriteInt@j,w
  3859  0639  3E2C               	addlw	(low (LCDWriteInt@str| 0))& (0+255)
  3860  063A  0086               	movwf	6
  3861  063B  0187               	clrf	7
  3862  063C  0801               	movf	1,w
  3863  063D  1D03               	btfss	3,2
  3864  063E  2E50               	goto	l1305
  3865  063F  2E34               	goto	l1299
  3866  0640                     l1303:	
  3867                           ;lcd.c: 210: }
  3868                           ;lcd.c: 211: }
  3869                           
  3870                           
  3871                           ;lcd.c: 212: else
  3872                           ;lcd.c: 213: {
  3873                           ;lcd.c: 214: j=5-fieldLength;
  3874  0640  0829               	movf	LCDWriteInt@fieldLength,w
  3875  0641  00F9               	movwf	??_LCDWriteInt
  3876  0642  01FA               	clrf	??_LCDWriteInt+1
  3877  0643  1BF9               	btfsc	??_LCDWriteInt,7
  3878  0644  03FA               	decf	??_LCDWriteInt+1,f
  3879  0645  09F9               	comf	??_LCDWriteInt,f
  3880  0646  09FA               	comf	??_LCDWriteInt+1,f
  3881  0647  0AF9               	incf	??_LCDWriteInt,f
  3882  0648  1903               	skipnz
  3883  0649  0AFA               	incf	??_LCDWriteInt+1,f
  3884  064A  0879               	movf	??_LCDWriteInt,w
  3885  064B  3E05               	addlw	5
  3886  064C  00B1               	movwf	LCDWriteInt@j
  3887  064D  3000               	movlw	0
  3888  064E  3D7A               	addwfc	??_LCDWriteInt+1,w
  3889  064F  00B2               	movwf	LCDWriteInt@j+1
  3890  0650                     l1305:	
  3891                           
  3892                           ;lcd.c: 215: }
  3893                           ;lcd.c: 217: for(i=j;i<(5-numPlaces);i++)
  3894  0650  0832               	movf	LCDWriteInt@j+1,w
  3895  0651  00B4               	movwf	LCDWriteInt@i+1
  3896  0652  0831               	movf	LCDWriteInt@j,w
  3897  0653  00B3               	movwf	LCDWriteInt@i
  3898  0654                     l1311:	
  3899  0654  082A               	movf	LCDWriteInt@numPlaces,w
  3900  0655  00F9               	movwf	??_LCDWriteInt
  3901  0656  01FA               	clrf	??_LCDWriteInt+1
  3902  0657  1BF9               	btfsc	??_LCDWriteInt,7
  3903  0658  03FA               	decf	??_LCDWriteInt+1,f
  3904  0659  09F9               	comf	??_LCDWriteInt,f
  3905  065A  09FA               	comf	??_LCDWriteInt+1,f
  3906  065B  0AF9               	incf	??_LCDWriteInt,f
  3907  065C  1903               	skipnz
  3908  065D  0AFA               	incf	??_LCDWriteInt+1,f
  3909  065E  0879               	movf	??_LCDWriteInt,w
  3910  065F  3E05               	addlw	5
  3911  0660  00FB               	movwf	??_LCDWriteInt+2
  3912  0661  3000               	movlw	0
  3913  0662  3D7A               	addwfc	??_LCDWriteInt+1,w
  3914  0663  00FC               	movwf	??_LCDWriteInt+3
  3915  0664  0834               	movf	LCDWriteInt@i+1,w
  3916  0665  3A80               	xorlw	128
  3917  0666  00FD               	movwf	??_LCDWriteInt+4
  3918  0667  087C               	movf	??_LCDWriteInt+3,w
  3919  0668  3A80               	xorlw	128
  3920  0669  027D               	subwf	??_LCDWriteInt+4,w
  3921  066A  1D03               	skipz
  3922  066B  2E6E               	goto	u1095
  3923  066C  087B               	movf	??_LCDWriteInt+2,w
  3924  066D  0233               	subwf	LCDWriteInt@i,w
  3925  066E                     u1095:	
  3926  066E  1803               	btfsc	3,0
  3927  066F  2E80               	goto	l1313
  3928                           
  3929                           ;lcd.c: 218: {
  3930                           ;lcd.c: 219: LCDWriteCharacter(48+str[i]);
  3931  0670  0020               	movlb	0	; select bank0
  3932  0671  0833               	movf	LCDWriteInt@i,w
  3933  0672  3E2C               	addlw	(low (LCDWriteInt@str| 0))& (0+255)
  3934  0673  0086               	movwf	6
  3935  0674  0187               	clrf	7
  3936  0675  0801               	movf	1,w
  3937  0676  3E30               	addlw	48
  3938  0677  3184  249C  3185   	fcall	_LCDWriteCharacter
  3939  067A  3001               	movlw	1
  3940  067B  0020               	movlb	0	; select bank0
  3941  067C  07B3               	addwf	LCDWriteInt@i,f
  3942  067D  3000               	movlw	0
  3943  067E  3DB4               	addwfc	LCDWriteInt@i+1,f
  3944  067F  2E54               	goto	l1311
  3945  0680                     l1313:	
  3946                           
  3947                           ;lcd.c: 220: }
  3948                           ;lcd.c: 222: if(numPlaces == 1)
  3949  0680  0020               	movlb	0	; select bank0
  3950  0681  032A               	decf	LCDWriteInt@numPlaces,w
  3951  0682  1D03               	btfss	3,2
  3952  0683  2E8E               	goto	l1317
  3953                           
  3954                           ;lcd.c: 223: {
  3955                           ;lcd.c: 224: LCDWriteCharacter(46);
  3956  0684  302E               	movlw	46
  3957  0685  3184  249C  3185   	fcall	_LCDWriteCharacter
  3958                           
  3959                           ;lcd.c: 225: LCDWriteCharacter(48+str[4]);
  3960  0688  0020               	movlb	0	; select bank0
  3961  0689  0830               	movf	LCDWriteInt@str+4,w
  3962  068A  3E30               	addlw	48
  3963  068B  3184  249C  3185   	fcall	_LCDWriteCharacter
  3964  068E                     l1317:	
  3965                           
  3966                           ;lcd.c: 226: }
  3967                           ;lcd.c: 228: if(numPlaces == 2)
  3968  068E  3002               	movlw	2
  3969  068F  0020               	movlb	0	; select bank0
  3970  0690  062A               	xorwf	LCDWriteInt@numPlaces,w
  3971  0691  1D03               	btfss	3,2
  3972  0692  0008               	return
  3973                           
  3974                           ;lcd.c: 229: {
  3975                           ;lcd.c: 230: LCDWriteCharacter(46);
  3976  0693  302E               	movlw	46
  3977  0694  3184  249C  3185   	fcall	_LCDWriteCharacter
  3978                           
  3979                           ;lcd.c: 231: LCDWriteCharacter(48+str[3]);
  3980  0697  0020               	movlb	0	; select bank0
  3981  0698  082F               	movf	LCDWriteInt@str+3,w
  3982  0699  3E30               	addlw	48
  3983  069A  3184  249C  3185   	fcall	_LCDWriteCharacter
  3984                           
  3985                           ;lcd.c: 232: LCDWriteCharacter(48+str[4]);
  3986  069D  0020               	movlb	0	; select bank0
  3987  069E  0830               	movf	LCDWriteInt@str+4,w
  3988  069F  3E30               	addlw	48
  3989  06A0  3184  249C         	fcall	_LCDWriteCharacter
  3990  06A2  0008               	return
  3991  06A3                     __end_of_LCDWriteInt:	
  3992                           
  3993                           	psect	text7
  3994  0457                     __ptext7:	
  3995 ;; *************** function ___awmod *****************
  3996 ;; Defined at:
  3997 ;;		line 6 in file "C:\Program Files (x86)\Microchip\xc8\v1.38\sources\common\awmod.c"
  3998 ;; Parameters:    Size  Location     Type
  3999 ;;  divisor         2    0[COMMON] int 
  4000 ;;  dividend        2    2[COMMON] int 
  4001 ;; Auto vars:     Size  Location     Type
  4002 ;;  sign            1    6[COMMON] unsigned char 
  4003 ;;  counter         1    5[COMMON] unsigned char 
  4004 ;; Return value:  Size  Location     Type
  4005 ;;                  2    0[COMMON] int 
  4006 ;; Registers used:
  4007 ;;		wreg, status,2, status,0
  4008 ;; Tracked objects:
  4009 ;;		On entry : 0/0
  4010 ;;		On exit  : 0/0
  4011 ;;		Unchanged: 0/0
  4012 ;; Data sizes:     COMMON   BANK0   BANK1   BANK2   BANK3   BANK4   BANK5   BANK6   BANK7   BANK8   BANK9  BANK10  BANK1
      +1  BANK12
  4013 ;;      Params:         4       0       0       0       0       0       0       0       0       0       0       0       
      +0       0
  4014 ;;      Locals:         2       0       0       0       0       0       0       0       0       0       0       0       
      +0       0
  4015 ;;      Temps:          1       0       0       0       0       0       0       0       0       0       0       0       
      +0       0
  4016 ;;      Totals:         7       0       0       0       0       0       0       0       0       0       0       0       
      +0       0
  4017 ;;Total ram usage:        7 bytes
  4018 ;; Hardware stack levels used:    1
  4019 ;; This function calls:
  4020 ;;		Nothing
  4021 ;; This function is called by:
  4022 ;;		_LCDWriteInt
  4023 ;; This function uses a non-reentrant model
  4024 ;;
  4025                           
  4026                           
  4027                           ;psect for function ___awmod
  4028  0457                     ___awmod:	
  4029                           
  4030                           ;incstack = 0
  4031                           ; Regs used in ___awmod: [wreg+status,2+status,0]
  4032  0457  01F6               	clrf	___awmod@sign
  4033  0458  1FF3               	btfss	___awmod@dividend+1,7
  4034  0459  2C61               	goto	l1149
  4035  045A  09F2               	comf	___awmod@dividend,f
  4036  045B  09F3               	comf	___awmod@dividend+1,f
  4037  045C  0AF2               	incf	___awmod@dividend,f
  4038  045D  1903               	skipnz
  4039  045E  0AF3               	incf	___awmod@dividend+1,f
  4040  045F  01F6               	clrf	___awmod@sign
  4041  0460  0AF6               	incf	___awmod@sign,f
  4042  0461                     l1149:	
  4043  0461  1FF1               	btfss	___awmod@divisor+1,7
  4044  0462  2C68               	goto	l1153
  4045  0463  09F0               	comf	___awmod@divisor,f
  4046  0464  09F1               	comf	___awmod@divisor+1,f
  4047  0465  0AF0               	incf	___awmod@divisor,f
  4048  0466  1903               	skipnz
  4049  0467  0AF1               	incf	___awmod@divisor+1,f
  4050  0468                     l1153:	
  4051  0468  0870               	movf	___awmod@divisor,w
  4052  0469  0471               	iorwf	___awmod@divisor+1,w
  4053  046A  1903               	btfsc	3,2
  4054  046B  2C8F               	goto	l1171
  4055  046C  01F5               	clrf	___awmod@counter
  4056  046D  0AF5               	incf	___awmod@counter,f
  4057  046E                     l1161:	
  4058  046E  1BF1               	btfsc	___awmod@divisor+1,7
  4059  046F  2C7A               	goto	l1163
  4060  0470  3001               	movlw	1
  4061  0471                     u875:	
  4062  0471  35F0               	lslf	___awmod@divisor,f
  4063  0472  0DF1               	rlf	___awmod@divisor+1,f
  4064  0473  0B89               	decfsz	9,f
  4065  0474  2C71               	goto	u875
  4066  0475  3001               	movlw	1
  4067  0476  00F4               	movwf	??___awmod
  4068  0477  0874               	movf	??___awmod,w
  4069  0478  07F5               	addwf	___awmod@counter,f
  4070  0479  2C6E               	goto	l1161
  4071  047A                     l1163:	
  4072  047A  0871               	movf	___awmod@divisor+1,w
  4073  047B  0273               	subwf	___awmod@dividend+1,w
  4074  047C  1D03               	skipz
  4075  047D  2C80               	goto	u895
  4076  047E  0870               	movf	___awmod@divisor,w
  4077  047F  0272               	subwf	___awmod@dividend,w
  4078  0480                     u895:	
  4079  0480  1C03               	skipc
  4080  0481  2C86               	goto	l1167
  4081  0482  0870               	movf	___awmod@divisor,w
  4082  0483  02F2               	subwf	___awmod@dividend,f
  4083  0484  0871               	movf	___awmod@divisor+1,w
  4084  0485  3BF3               	subwfb	___awmod@dividend+1,f
  4085  0486                     l1167:	
  4086  0486  3001               	movlw	1
  4087  0487                     u905:	
  4088  0487  36F1               	lsrf	___awmod@divisor+1,f
  4089  0488  0CF0               	rrf	___awmod@divisor,f
  4090  0489  0B89               	decfsz	9,f
  4091  048A  2C87               	goto	u905
  4092  048B  3001               	movlw	1
  4093  048C  02F5               	subwf	___awmod@counter,f
  4094  048D  1D03               	btfss	3,2
  4095  048E  2C7A               	goto	l1163
  4096  048F                     l1171:	
  4097  048F  0876               	movf	___awmod@sign,w
  4098  0490  1903               	btfsc	3,2
  4099  0491  2C97               	goto	l1175
  4100  0492  09F2               	comf	___awmod@dividend,f
  4101  0493  09F3               	comf	___awmod@dividend+1,f
  4102  0494  0AF2               	incf	___awmod@dividend,f
  4103  0495  1903               	skipnz
  4104  0496  0AF3               	incf	___awmod@dividend+1,f
  4105  0497                     l1175:	
  4106  0497  0873               	movf	___awmod@dividend+1,w
  4107  0498  00F1               	movwf	?___awmod+1
  4108  0499  0872               	movf	___awmod@dividend,w
  4109  049A  00F0               	movwf	?___awmod
  4110  049B  0008               	return
  4111  049C                     __end_of___awmod:	
  4112                           
  4113                           	psect	text8
  4114  04E6                     __ptext8:	
  4115 ;; *************** function ___awdiv *****************
  4116 ;; Defined at:
  4117 ;;		line 6 in file "C:\Program Files (x86)\Microchip\xc8\v1.38\sources\common\awdiv.c"
  4118 ;; Parameters:    Size  Location     Type
  4119 ;;  divisor         2    0[COMMON] int 
  4120 ;;  dividend        2    2[COMMON] int 
  4121 ;; Auto vars:     Size  Location     Type
  4122 ;;  quotient        2    7[COMMON] int 
  4123 ;;  sign            1    6[COMMON] unsigned char 
  4124 ;;  counter         1    5[COMMON] unsigned char 
  4125 ;; Return value:  Size  Location     Type
  4126 ;;                  2    0[COMMON] int 
  4127 ;; Registers used:
  4128 ;;		wreg, status,2, status,0
  4129 ;; Tracked objects:
  4130 ;;		On entry : 0/0
  4131 ;;		On exit  : 0/0
  4132 ;;		Unchanged: 0/0
  4133 ;; Data sizes:     COMMON   BANK0   BANK1   BANK2   BANK3   BANK4   BANK5   BANK6   BANK7   BANK8   BANK9  BANK10  BANK1
      +1  BANK12
  4134 ;;      Params:         4       0       0       0       0       0       0       0       0       0       0       0       
      +0       0
  4135 ;;      Locals:         4       0       0       0       0       0       0       0       0       0       0       0       
      +0       0
  4136 ;;      Temps:          1       0       0       0       0       0       0       0       0       0       0       0       
      +0       0
  4137 ;;      Totals:         9       0       0       0       0       0       0       0       0       0       0       0       
      +0       0
  4138 ;;Total ram usage:        9 bytes
  4139 ;; Hardware stack levels used:    1
  4140 ;; This function calls:
  4141 ;;		Nothing
  4142 ;; This function is called by:
  4143 ;;		_LCDWriteInt
  4144 ;; This function uses a non-reentrant model
  4145 ;;
  4146                           
  4147                           
  4148                           ;psect for function ___awdiv
  4149  04E6                     ___awdiv:	
  4150                           
  4151                           ;incstack = 0
  4152                           ; Regs used in ___awdiv: [wreg+status,2+status,0]
  4153  04E6  01F6               	clrf	___awdiv@sign
  4154  04E7  1FF1               	btfss	___awdiv@divisor+1,7
  4155  04E8  2CF0               	goto	l1105
  4156  04E9  09F0               	comf	___awdiv@divisor,f
  4157  04EA  09F1               	comf	___awdiv@divisor+1,f
  4158  04EB  0AF0               	incf	___awdiv@divisor,f
  4159  04EC  1903               	skipnz
  4160  04ED  0AF1               	incf	___awdiv@divisor+1,f
  4161  04EE  01F6               	clrf	___awdiv@sign
  4162  04EF  0AF6               	incf	___awdiv@sign,f
  4163  04F0                     l1105:	
  4164  04F0  1FF3               	btfss	___awdiv@dividend+1,7
  4165  04F1  2CFB               	goto	l1111
  4166  04F2  09F2               	comf	___awdiv@dividend,f
  4167  04F3  09F3               	comf	___awdiv@dividend+1,f
  4168  04F4  0AF2               	incf	___awdiv@dividend,f
  4169  04F5  1903               	skipnz
  4170  04F6  0AF3               	incf	___awdiv@dividend+1,f
  4171  04F7  3001               	movlw	1
  4172  04F8  00F4               	movwf	??___awdiv
  4173  04F9  0874               	movf	??___awdiv,w
  4174  04FA  06F6               	xorwf	___awdiv@sign,f
  4175  04FB                     l1111:	
  4176  04FB  01F7               	clrf	___awdiv@quotient
  4177  04FC  01F8               	clrf	___awdiv@quotient+1
  4178  04FD  0870               	movf	___awdiv@divisor,w
  4179  04FE  0471               	iorwf	___awdiv@divisor+1,w
  4180  04FF  1903               	btfsc	3,2
  4181  0500  2D2A               	goto	l1133
  4182  0501  01F5               	clrf	___awdiv@counter
  4183  0502  0AF5               	incf	___awdiv@counter,f
  4184  0503                     l1121:	
  4185  0503  1BF1               	btfsc	___awdiv@divisor+1,7
  4186  0504  2D0F               	goto	l1123
  4187  0505  3001               	movlw	1
  4188  0506                     u775:	
  4189  0506  35F0               	lslf	___awdiv@divisor,f
  4190  0507  0DF1               	rlf	___awdiv@divisor+1,f
  4191  0508  0B89               	decfsz	9,f
  4192  0509  2D06               	goto	u775
  4193  050A  3001               	movlw	1
  4194  050B  00F4               	movwf	??___awdiv
  4195  050C  0874               	movf	??___awdiv,w
  4196  050D  07F5               	addwf	___awdiv@counter,f
  4197  050E  2D03               	goto	l1121
  4198  050F                     l1123:	
  4199  050F  3001               	movlw	1
  4200  0510                     u795:	
  4201  0510  35F7               	lslf	___awdiv@quotient,f
  4202  0511  0DF8               	rlf	___awdiv@quotient+1,f
  4203  0512  0B89               	decfsz	9,f
  4204  0513  2D10               	goto	u795
  4205  0514  0871               	movf	___awdiv@divisor+1,w
  4206  0515  0273               	subwf	___awdiv@dividend+1,w
  4207  0516  1D03               	skipz
  4208  0517  2D1A               	goto	u805
  4209  0518  0870               	movf	___awdiv@divisor,w
  4210  0519  0272               	subwf	___awdiv@dividend,w
  4211  051A                     u805:	
  4212  051A  1C03               	skipc
  4213  051B  2D21               	goto	l1129
  4214  051C  0870               	movf	___awdiv@divisor,w
  4215  051D  02F2               	subwf	___awdiv@dividend,f
  4216  051E  0871               	movf	___awdiv@divisor+1,w
  4217  051F  3BF3               	subwfb	___awdiv@dividend+1,f
  4218  0520  1477               	bsf	___awdiv@quotient,0
  4219  0521                     l1129:	
  4220  0521  3001               	movlw	1
  4221  0522                     u815:	
  4222  0522  36F1               	lsrf	___awdiv@divisor+1,f
  4223  0523  0CF0               	rrf	___awdiv@divisor,f
  4224  0524  0B89               	decfsz	9,f
  4225  0525  2D22               	goto	u815
  4226  0526  3001               	movlw	1
  4227  0527  02F5               	subwf	___awdiv@counter,f
  4228  0528  1D03               	btfss	3,2
  4229  0529  2D0F               	goto	l1123
  4230  052A                     l1133:	
  4231  052A  0876               	movf	___awdiv@sign,w
  4232  052B  1903               	btfsc	3,2
  4233  052C  2D32               	goto	l1137
  4234  052D  09F7               	comf	___awdiv@quotient,f
  4235  052E  09F8               	comf	___awdiv@quotient+1,f
  4236  052F  0AF7               	incf	___awdiv@quotient,f
  4237  0530  1903               	skipnz
  4238  0531  0AF8               	incf	___awdiv@quotient+1,f
  4239  0532                     l1137:	
  4240  0532  0878               	movf	___awdiv@quotient+1,w
  4241  0533  00F1               	movwf	?___awdiv+1
  4242  0534  0877               	movf	___awdiv@quotient,w
  4243  0535  00F0               	movwf	?___awdiv
  4244  0536  0008               	return
  4245  0537                     __end_of___awdiv:	
  4246                           
  4247                           	psect	text9
  4248  049C                     __ptext9:	
  4249 ;; *************** function _LCDWriteCharacter *****************
  4250 ;; Defined at:
  4251 ;;		line 142 in file "lcd.c"
  4252 ;; Parameters:    Size  Location     Type
  4253 ;;  character       1    wreg     const unsigned char 
  4254 ;; Auto vars:     Size  Location     Type
  4255 ;;  character       1    4[BANK0 ] const unsigned char 
  4256 ;;  base            2    5[BANK0 ] unsigned int 
  4257 ;;  z               2    2[BANK0 ] unsigned int 
  4258 ;;  x               2    0[BANK0 ] unsigned int 
  4259 ;; Return value:  Size  Location     Type
  4260 ;;                  1    wreg      void 
  4261 ;; Registers used:
  4262 ;;		wreg, fsr0l, fsr0h, status,2, status,0, pclath, cstack
  4263 ;; Tracked objects:
  4264 ;;		On entry : 0/0
  4265 ;;		On exit  : 0/0
  4266 ;;		Unchanged: 0/0
  4267 ;; Data sizes:     COMMON   BANK0   BANK1   BANK2   BANK3   BANK4   BANK5   BANK6   BANK7   BANK8   BANK9  BANK10  BANK1
      +1  BANK12
  4268 ;;      Params:         0       0       0       0       0       0       0       0       0       0       0       0       
      +0       0
  4269 ;;      Locals:         0       7       0       0       0       0       0       0       0       0       0       0       
      +0       0
  4270 ;;      Temps:          2       0       0       0       0       0       0       0       0       0       0       0       
      +0       0
  4271 ;;      Totals:         2       7       0       0       0       0       0       0       0       0       0       0       
      +0       0
  4272 ;;Total ram usage:        9 bytes
  4273 ;; Hardware stack levels used:    1
  4274 ;; Hardware stack levels required when called:    1
  4275 ;; This function calls:
  4276 ;;		_LCDWrite
  4277 ;;		___wmul
  4278 ;; This function is called by:
  4279 ;;		_LCDWriteString
  4280 ;;		_LCDWriteInt
  4281 ;; This function uses a non-reentrant model
  4282 ;;
  4283                           
  4284                           
  4285                           ;psect for function _LCDWriteCharacter
  4286  049C                     _LCDWriteCharacter:	
  4287                           
  4288                           ;incstack = 0
  4289                           ; Regs used in _LCDWriteCharacter: [wreg-fsr0h+status,2+status,0+pclath+cstack]
  4290                           ;LCDWriteCharacter@character stored from wreg
  4291  049C  0020               	movlb	0	; select bank0
  4292  049D  00A4               	movwf	LCDWriteCharacter@character
  4293                           
  4294                           ;lcd.c: 153: uint16_t base,x,z;
  4295                           ;lcd.c: 154: base = character - 32;
  4296  049E  0824               	movf	LCDWriteCharacter@character,w
  4297  049F  3EE0               	addlw	224
  4298  04A0  00A5               	movwf	LCDWriteCharacter@base
  4299  04A1  30FF               	movlw	255
  4300  04A2  1803               	skipnc
  4301  04A3  3000               	movlw	0
  4302  04A4  00A6               	movwf	LCDWriteCharacter@base+1
  4303                           
  4304                           ;lcd.c: 155: base *= 3;
  4305  04A5  3003               	movlw	3
  4306  04A6  00F0               	movwf	___wmul@multiplier
  4307  04A7  3000               	movlw	0
  4308  04A8  00F1               	movwf	___wmul@multiplier+1
  4309  04A9  0826               	movf	LCDWriteCharacter@base+1,w
  4310  04AA  00F3               	movwf	___wmul@multiplicand+1
  4311  04AB  0825               	movf	LCDWriteCharacter@base,w
  4312  04AC  00F2               	movwf	___wmul@multiplicand
  4313  04AD  3183  2361  3184   	fcall	___wmul
  4314  04B0  0871               	movf	?___wmul+1,w
  4315  04B1  0020               	movlb	0	; select bank0
  4316  04B2  00A6               	movwf	LCDWriteCharacter@base+1
  4317  04B3  0870               	movf	?___wmul,w
  4318  04B4  00A5               	movwf	LCDWriteCharacter@base
  4319                           
  4320                           ;lcd.c: 156: z = base;
  4321  04B5  0826               	movf	LCDWriteCharacter@base+1,w
  4322  04B6  00A3               	movwf	LCDWriteCharacter@z+1
  4323  04B7  0825               	movf	LCDWriteCharacter@base,w
  4324  04B8  00A2               	movwf	LCDWriteCharacter@z
  4325                           
  4326                           ;lcd.c: 157: for(x=base;base<(z+3);base++)
  4327  04B9  0826               	movf	LCDWriteCharacter@base+1,w
  4328  04BA  00A1               	movwf	LCDWriteCharacter@x+1
  4329  04BB  0825               	movf	LCDWriteCharacter@base,w
  4330  04BC  00A0               	movwf	LCDWriteCharacter@x
  4331  04BD                     l1079:	
  4332  04BD  0822               	movf	LCDWriteCharacter@z,w
  4333  04BE  3E03               	addlw	3
  4334  04BF  00F6               	movwf	??_LCDWriteCharacter
  4335  04C0  3000               	movlw	0
  4336  04C1  3D23               	addwfc	LCDWriteCharacter@z+1,w
  4337  04C2  00F7               	movwf	??_LCDWriteCharacter+1
  4338  04C3  0877               	movf	??_LCDWriteCharacter+1,w
  4339  04C4  0226               	subwf	LCDWriteCharacter@base+1,w
  4340  04C5  1D03               	skipz
  4341  04C6  2CC9               	goto	u735
  4342  04C7  0876               	movf	??_LCDWriteCharacter,w
  4343  04C8  0225               	subwf	LCDWriteCharacter@base,w
  4344  04C9                     u735:	
  4345  04C9  1803               	btfsc	3,0
  4346  04CA  2CE1               	goto	l1081
  4347                           
  4348                           ;lcd.c: 158: {
  4349                           ;lcd.c: 159: LCDWrite(1,fonts[base]);
  4350  04CB  0826               	movf	LCDWriteCharacter@base+1,w
  4351  04CC  0085               	movwf	5
  4352  04CD  0825               	movf	LCDWriteCharacter@base,w
  4353  04CE  0084               	movwf	4
  4354  04CF  3000               	movlw	low (_fonts| (0+32768))
  4355  04D0  0784               	addwf	4,f
  4356  04D1  3088               	movlw	high (_fonts| (0+32768))
  4357  04D2  3D85               	addwfc	5,f
  4358  04D3  0800               	movf	0,w	;code access
  4359  04D4  00F6               	movwf	??_LCDWriteCharacter
  4360  04D5  0876               	movf	??_LCDWriteCharacter,w
  4361  04D6  00F0               	movwf	LCDWrite@data
  4362  04D7  3001               	movlw	1
  4363  04D8  3183  237C  3184   	fcall	_LCDWrite
  4364  04DB  3001               	movlw	1
  4365  04DC  0020               	movlb	0	; select bank0
  4366  04DD  07A5               	addwf	LCDWriteCharacter@base,f
  4367  04DE  3000               	movlw	0
  4368  04DF  3DA6               	addwfc	LCDWriteCharacter@base+1,f
  4369  04E0  2CBD               	goto	l1079
  4370  04E1                     l1081:	
  4371                           
  4372                           ;lcd.c: 160: }
  4373                           ;lcd.c: 161: LCDWrite(1, 0x00);
  4374  04E1  01F0               	clrf	LCDWrite@data
  4375  04E2  3001               	movlw	1
  4376  04E3  3183  237C         	fcall	_LCDWrite
  4377  04E5  0008               	return
  4378  04E6                     __end_of_LCDWriteCharacter:	
  4379                           
  4380                           	psect	text10
  4381  0361                     __ptext10:	
  4382 ;; *************** function ___wmul *****************
  4383 ;; Defined at:
  4384 ;;		line 15 in file "C:\Program Files (x86)\Microchip\xc8\v1.38\sources\common\Umul16.c"
  4385 ;; Parameters:    Size  Location     Type
  4386 ;;  multiplier      2    0[COMMON] unsigned int 
  4387 ;;  multiplicand    2    2[COMMON] unsigned int 
  4388 ;; Auto vars:     Size  Location     Type
  4389 ;;  product         2    4[COMMON] unsigned int 
  4390 ;; Return value:  Size  Location     Type
  4391 ;;                  2    0[COMMON] unsigned int 
  4392 ;; Registers used:
  4393 ;;		wreg, status,2, status,0
  4394 ;; Tracked objects:
  4395 ;;		On entry : 0/0
  4396 ;;		On exit  : 0/0
  4397 ;;		Unchanged: 0/0
  4398 ;; Data sizes:     COMMON   BANK0   BANK1   BANK2   BANK3   BANK4   BANK5   BANK6   BANK7   BANK8   BANK9  BANK10  BANK1
      +1  BANK12
  4399 ;;      Params:         4       0       0       0       0       0       0       0       0       0       0       0       
      +0       0
  4400 ;;      Locals:         2       0       0       0       0       0       0       0       0       0       0       0       
      +0       0
  4401 ;;      Temps:          0       0       0       0       0       0       0       0       0       0       0       0       
      +0       0
  4402 ;;      Totals:         6       0       0       0       0       0       0       0       0       0       0       0       
      +0       0
  4403 ;;Total ram usage:        6 bytes
  4404 ;; Hardware stack levels used:    1
  4405 ;; This function calls:
  4406 ;;		Nothing
  4407 ;; This function is called by:
  4408 ;;		_LCDWriteCharacter
  4409 ;; This function uses a non-reentrant model
  4410 ;;
  4411                           
  4412                           
  4413                           ;psect for function ___wmul
  4414  0361                     ___wmul:	
  4415                           
  4416                           ;incstack = 0
  4417                           ; Regs used in ___wmul: [wreg+status,2+status,0]
  4418  0361  01F4               	clrf	___wmul@product
  4419  0362  01F5               	clrf	___wmul@product+1
  4420  0363                     l1041:	
  4421  0363  1C70               	btfss	___wmul@multiplier,0
  4422  0364  2B69               	goto	l247
  4423  0365  0872               	movf	___wmul@multiplicand,w
  4424  0366  07F4               	addwf	___wmul@product,f
  4425  0367  0873               	movf	___wmul@multiplicand+1,w
  4426  0368  3DF5               	addwfc	___wmul@product+1,f
  4427  0369                     l247:	
  4428  0369  3001               	movlw	1
  4429  036A                     u685:	
  4430  036A  35F2               	lslf	___wmul@multiplicand,f
  4431  036B  0DF3               	rlf	___wmul@multiplicand+1,f
  4432  036C  0B89               	decfsz	9,f
  4433  036D  2B6A               	goto	u685
  4434  036E  3001               	movlw	1
  4435  036F                     u695:	
  4436  036F  36F1               	lsrf	___wmul@multiplier+1,f
  4437  0370  0CF0               	rrf	___wmul@multiplier,f
  4438  0371  0B89               	decfsz	9,f
  4439  0372  2B6F               	goto	u695
  4440  0373  0870               	movf	___wmul@multiplier,w
  4441  0374  0471               	iorwf	___wmul@multiplier+1,w
  4442  0375  1D03               	btfss	3,2
  4443  0376  2B63               	goto	l1041
  4444  0377  0875               	movf	___wmul@product+1,w
  4445  0378  00F1               	movwf	?___wmul+1
  4446  0379  0874               	movf	___wmul@product,w
  4447  037A  00F0               	movwf	?___wmul
  4448  037B  0008               	return
  4449  037C                     __end_of___wmul:	
  4450                           
  4451                           	psect	text11
  4452  0537                     __ptext11:	
  4453 ;; *************** function _LCDDrawBox *****************
  4454 ;; Defined at:
  4455 ;;		line 307 in file "lcd.c"
  4456 ;; Parameters:    Size  Location     Type
  4457 ;;		None
  4458 ;; Auto vars:     Size  Location     Type
  4459 ;;  j               2    8[COMMON] int 
  4460 ;; Return value:  Size  Location     Type
  4461 ;;                  1    wreg      void 
  4462 ;; Registers used:
  4463 ;;		wreg, status,2, status,0, pclath, cstack
  4464 ;; Tracked objects:
  4465 ;;		On entry : 0/0
  4466 ;;		On exit  : 0/0
  4467 ;;		Unchanged: 0/0
  4468 ;; Data sizes:     COMMON   BANK0   BANK1   BANK2   BANK3   BANK4   BANK5   BANK6   BANK7   BANK8   BANK9  BANK10  BANK1
      +1  BANK12
  4469 ;;      Params:         0       0       0       0       0       0       0       0       0       0       0       0       
      +0       0
  4470 ;;      Locals:         2       0       0       0       0       0       0       0       0       0       0       0       
      +0       0
  4471 ;;      Temps:          1       0       0       0       0       0       0       0       0       0       0       0       
      +0       0
  4472 ;;      Totals:         3       0       0       0       0       0       0       0       0       0       0       0       
      +0       0
  4473 ;;Total ram usage:        3 bytes
  4474 ;; Hardware stack levels used:    1
  4475 ;; Hardware stack levels required when called:    2
  4476 ;; This function calls:
  4477 ;;		_LCDWrite
  4478 ;;		_gotoXY
  4479 ;; This function is called by:
  4480 ;;		_main
  4481 ;; This function uses a non-reentrant model
  4482 ;;
  4483                           
  4484                           
  4485                           ;psect for function _LCDDrawBox
  4486  0537                     _LCDDrawBox:	
  4487                           
  4488                           ;lcd.c: 309: int j;
  4489                           ;lcd.c: 311: for(j = 0; j < 84; j++)
  4490                           
  4491                           ;incstack = 0
  4492                           ; Regs used in _LCDDrawBox: [wreg+status,2+status,0+pclath+cstack]
  4493  0537  01F8               	clrf	LCDDrawBox@j
  4494  0538  01F9               	clrf	LCDDrawBox@j+1
  4495  0539  0879               	movf	LCDDrawBox@j+1,w
  4496  053A  3A80               	xorlw	128
  4497  053B  00F7               	movwf	??_LCDDrawBox
  4498  053C  3080               	movlw	128
  4499  053D  0277               	subwf	??_LCDDrawBox,w
  4500  053E  1D03               	skipz
  4501  053F  2D42               	goto	u955
  4502  0540  3054               	movlw	84
  4503  0541  0278               	subwf	LCDDrawBox@j,w
  4504  0542                     u955:	
  4505  0542  1803               	btfsc	3,0
  4506  0543  2D5E               	goto	l1235
  4507  0544                     l1229:	
  4508                           
  4509                           ;lcd.c: 312: {
  4510                           ;lcd.c: 313: gotoXY(j, 0);
  4511  0544  01F4               	clrf	gotoXY@y
  4512  0545  0878               	movf	LCDDrawBox@j,w
  4513  0546  3183  233A  3185   	fcall	_gotoXY
  4514                           
  4515                           ;lcd.c: 314: LCDWrite(1,0x01);
  4516  0549  01F0               	clrf	LCDWrite@data
  4517  054A  0AF0               	incf	LCDWrite@data,f
  4518  054B  3001               	movlw	1
  4519  054C  3183  237C  3185   	fcall	_LCDWrite
  4520  054F  3001               	movlw	1
  4521  0550  07F8               	addwf	LCDDrawBox@j,f
  4522  0551  3000               	movlw	0
  4523  0552  3DF9               	addwfc	LCDDrawBox@j+1,f
  4524  0553  0879               	movf	LCDDrawBox@j+1,w
  4525  0554  3A80               	xorlw	128
  4526  0555  00F7               	movwf	??_LCDDrawBox
  4527  0556  3080               	movlw	128
  4528  0557  0277               	subwf	??_LCDDrawBox,w
  4529  0558  1D03               	skipz
  4530  0559  2D5C               	goto	u965
  4531  055A  3054               	movlw	84
  4532  055B  0278               	subwf	LCDDrawBox@j,w
  4533  055C                     u965:	
  4534  055C  1C03               	skipc
  4535  055D  2D44               	goto	l1229
  4536  055E                     l1235:	
  4537                           
  4538                           ;lcd.c: 315: }
  4539                           ;lcd.c: 317: for(j = 0; j < 84; j++)
  4540  055E  01F8               	clrf	LCDDrawBox@j
  4541  055F  01F9               	clrf	LCDDrawBox@j+1
  4542  0560  0879               	movf	LCDDrawBox@j+1,w
  4543  0561  3A80               	xorlw	128
  4544  0562  00F7               	movwf	??_LCDDrawBox
  4545  0563  3080               	movlw	128
  4546  0564  0277               	subwf	??_LCDDrawBox,w
  4547  0565  1D03               	skipz
  4548  0566  2D69               	goto	u975
  4549  0567  3054               	movlw	84
  4550  0568  0278               	subwf	LCDDrawBox@j,w
  4551  0569                     u975:	
  4552  0569  1803               	btfsc	3,0
  4553  056A  2D8A               	goto	l1247
  4554  056B                     l1241:	
  4555                           
  4556                           ;lcd.c: 318: {
  4557                           ;lcd.c: 319: gotoXY(j, 5);
  4558  056B  3005               	movlw	5
  4559  056C  00F7               	movwf	??_LCDDrawBox
  4560  056D  0877               	movf	??_LCDDrawBox,w
  4561  056E  00F4               	movwf	gotoXY@y
  4562  056F  0878               	movf	LCDDrawBox@j,w
  4563  0570  3183  233A  3185   	fcall	_gotoXY
  4564                           
  4565                           ;lcd.c: 320: LCDWrite(1,0x80);
  4566  0573  3080               	movlw	128
  4567  0574  00F7               	movwf	??_LCDDrawBox
  4568  0575  0877               	movf	??_LCDDrawBox,w
  4569  0576  00F0               	movwf	LCDWrite@data
  4570  0577  3001               	movlw	1
  4571  0578  3183  237C  3185   	fcall	_LCDWrite
  4572  057B  3001               	movlw	1
  4573  057C  07F8               	addwf	LCDDrawBox@j,f
  4574  057D  3000               	movlw	0
  4575  057E  3DF9               	addwfc	LCDDrawBox@j+1,f
  4576  057F  0879               	movf	LCDDrawBox@j+1,w
  4577  0580  3A80               	xorlw	128
  4578  0581  00F7               	movwf	??_LCDDrawBox
  4579  0582  3080               	movlw	128
  4580  0583  0277               	subwf	??_LCDDrawBox,w
  4581  0584  1D03               	skipz
  4582  0585  2D88               	goto	u985
  4583  0586  3054               	movlw	84
  4584  0587  0278               	subwf	LCDDrawBox@j,w
  4585  0588                     u985:	
  4586  0588  1C03               	skipc
  4587  0589  2D6B               	goto	l1241
  4588  058A                     l1247:	
  4589                           
  4590                           ;lcd.c: 321: }
  4591                           ;lcd.c: 323: for(j = 0; j < 6; j++)
  4592  058A  01F8               	clrf	LCDDrawBox@j
  4593  058B  01F9               	clrf	LCDDrawBox@j+1
  4594  058C  0879               	movf	LCDDrawBox@j+1,w
  4595  058D  3A80               	xorlw	128
  4596  058E  00F7               	movwf	??_LCDDrawBox
  4597  058F  3080               	movlw	128
  4598  0590  0277               	subwf	??_LCDDrawBox,w
  4599  0591  1D03               	skipz
  4600  0592  2D95               	goto	u995
  4601  0593  3006               	movlw	6
  4602  0594  0278               	subwf	LCDDrawBox@j,w
  4603  0595                     u995:	
  4604  0595  1803               	btfsc	3,0
  4605  0596  2DB6               	goto	l1259
  4606  0597                     l1253:	
  4607                           
  4608                           ;lcd.c: 324: {
  4609                           ;lcd.c: 325: gotoXY(0, j);
  4610  0597  0878               	movf	LCDDrawBox@j,w
  4611  0598  00F7               	movwf	??_LCDDrawBox
  4612  0599  0877               	movf	??_LCDDrawBox,w
  4613  059A  00F4               	movwf	gotoXY@y
  4614  059B  3000               	movlw	0
  4615  059C  3183  233A  3185   	fcall	_gotoXY
  4616                           
  4617                           ;lcd.c: 326: LCDWrite(1,0xff);
  4618  059F  30FF               	movlw	255
  4619  05A0  00F7               	movwf	??_LCDDrawBox
  4620  05A1  0877               	movf	??_LCDDrawBox,w
  4621  05A2  00F0               	movwf	LCDWrite@data
  4622  05A3  3001               	movlw	1
  4623  05A4  3183  237C  3185   	fcall	_LCDWrite
  4624  05A7  3001               	movlw	1
  4625  05A8  07F8               	addwf	LCDDrawBox@j,f
  4626  05A9  3000               	movlw	0
  4627  05AA  3DF9               	addwfc	LCDDrawBox@j+1,f
  4628  05AB  0879               	movf	LCDDrawBox@j+1,w
  4629  05AC  3A80               	xorlw	128
  4630  05AD  00F7               	movwf	??_LCDDrawBox
  4631  05AE  3080               	movlw	128
  4632  05AF  0277               	subwf	??_LCDDrawBox,w
  4633  05B0  1D03               	skipz
  4634  05B1  2DB4               	goto	u1005
  4635  05B2  3006               	movlw	6
  4636  05B3  0278               	subwf	LCDDrawBox@j,w
  4637  05B4                     u1005:	
  4638  05B4  1C03               	skipc
  4639  05B5  2D97               	goto	l1253
  4640  05B6                     l1259:	
  4641                           
  4642                           ;lcd.c: 327: }
  4643                           ;lcd.c: 329: for(j = 0; j < 6; j++)
  4644  05B6  01F8               	clrf	LCDDrawBox@j
  4645  05B7  01F9               	clrf	LCDDrawBox@j+1
  4646  05B8                     L1:	
  4647  05B8  0879               	movf	LCDDrawBox@j+1,w
  4648  05B9  3A80               	xorlw	128
  4649  05BA  00F7               	movwf	??_LCDDrawBox
  4650  05BB  3080               	movlw	128
  4651  05BC  0277               	subwf	??_LCDDrawBox,w
  4652  05BD  1D03               	skipz
  4653  05BE  2DC1               	goto	u1015
  4654  05BF  3006               	movlw	6
  4655  05C0  0278               	subwf	LCDDrawBox@j,w
  4656  05C1                     u1015:	
  4657  05C1  1803               	btfsc	3,0
  4658  05C2  0008               	return
  4659                           
  4660                           ;lcd.c: 330: {
  4661                           ;lcd.c: 331: gotoXY(83, j);
  4662  05C3  0878               	movf	LCDDrawBox@j,w
  4663  05C4  00F7               	movwf	??_LCDDrawBox
  4664  05C5  0877               	movf	??_LCDDrawBox,w
  4665  05C6  00F4               	movwf	gotoXY@y
  4666  05C7  3053               	movlw	83
  4667  05C8  3183  233A  3185   	fcall	_gotoXY
  4668                           
  4669                           ;lcd.c: 332: LCDWrite(1,0xff);
  4670  05CB  30FF               	movlw	255
  4671  05CC  00F7               	movwf	??_LCDDrawBox
  4672  05CD  0877               	movf	??_LCDDrawBox,w
  4673  05CE  00F0               	movwf	LCDWrite@data
  4674  05CF  3001               	movlw	1
  4675  05D0  3183  237C  3185   	fcall	_LCDWrite
  4676  05D3  3001               	movlw	1
  4677  05D4  07F8               	addwf	LCDDrawBox@j,f
  4678  05D5  3000               	movlw	0
  4679  05D6  3DF9               	addwfc	LCDDrawBox@j+1,f
  4680  05D7  2DB8               	goto	L1
  4681  05D8                     __end_of_LCDDrawBox:	
  4682                           
  4683                           	psect	text12
  4684  03C3                     __ptext12:	
  4685 ;; *************** function _LCDBitmap *****************
  4686 ;; Defined at:
  4687 ;;		line 131 in file "lcd.c"
  4688 ;; Parameters:    Size  Location     Type
  4689 ;;  bmp_array       2    7[COMMON] PTR const unsigned char 
  4690 ;;		 -> coffee(504), 
  4691 ;;  startLine       1    9[COMMON] unsigned char 
  4692 ;;  len             2   10[COMMON] unsigned int 
  4693 ;; Auto vars:     Size  Location     Type
  4694 ;;  index           2    0[BANK0 ] unsigned int 
  4695 ;; Return value:  Size  Location     Type
  4696 ;;                  1    wreg      void 
  4697 ;; Registers used:
  4698 ;;		wreg, fsr0l, fsr0h, status,2, status,0, pclath, cstack
  4699 ;; Tracked objects:
  4700 ;;		On entry : 0/0
  4701 ;;		On exit  : 0/0
  4702 ;;		Unchanged: 0/0
  4703 ;; Data sizes:     COMMON   BANK0   BANK1   BANK2   BANK3   BANK4   BANK5   BANK6   BANK7   BANK8   BANK9  BANK10  BANK1
      +1  BANK12
  4704 ;;      Params:         5       0       0       0       0       0       0       0       0       0       0       0       
      +0       0
  4705 ;;      Locals:         0       2       0       0       0       0       0       0       0       0       0       0       
      +0       0
  4706 ;;      Temps:          1       0       0       0       0       0       0       0       0       0       0       0       
      +0       0
  4707 ;;      Totals:         6       2       0       0       0       0       0       0       0       0       0       0       
      +0       0
  4708 ;;Total ram usage:        8 bytes
  4709 ;; Hardware stack levels used:    1
  4710 ;; Hardware stack levels required when called:    2
  4711 ;; This function calls:
  4712 ;;		_LCDWrite
  4713 ;;		_gotoXY
  4714 ;; This function is called by:
  4715 ;;		_main
  4716 ;; This function uses a non-reentrant model
  4717 ;;
  4718                           
  4719                           
  4720                           ;psect for function _LCDBitmap
  4721  03C3                     _LCDBitmap:	
  4722                           
  4723                           ;lcd.c: 133: uint16_t index;
  4724                           ;lcd.c: 134: gotoXY(0,startLine);
  4725                           
  4726                           ;incstack = 0
  4727                           ; Regs used in _LCDBitmap: [wreg-fsr0h+status,2+status,0+pclath+cstack]
  4728  03C3  0879               	movf	LCDBitmap@startLine,w
  4729  03C4  00FC               	movwf	??_LCDBitmap
  4730  03C5  087C               	movf	??_LCDBitmap,w
  4731  03C6  00F4               	movwf	gotoXY@y
  4732  03C7  3000               	movlw	0
  4733  03C8  3183  233A  3183   	fcall	_gotoXY
  4734                           
  4735                           ;lcd.c: 135: for (index = 0 ; index < len ; index++)
  4736  03CB  0020               	movlb	0	; select bank0
  4737  03CC  01A0               	clrf	LCDBitmap@index
  4738  03CD  01A1               	clrf	LCDBitmap@index+1
  4739  03CE                     l1213:	
  4740  03CE  087B               	movf	LCDBitmap@len+1,w
  4741  03CF  0221               	subwf	LCDBitmap@index+1,w
  4742  03D0  1D03               	skipz
  4743  03D1  2BD4               	goto	u935
  4744  03D2  087A               	movf	LCDBitmap@len,w
  4745  03D3  0220               	subwf	LCDBitmap@index,w
  4746  03D4                     u935:	
  4747  03D4  1803               	btfsc	3,0
  4748  03D5  0008               	return
  4749                           
  4750                           ;lcd.c: 136: {
  4751                           ;lcd.c: 137: LCDWrite(1, bmp_array[index]);
  4752  03D6  0877               	movf	LCDBitmap@bmp_array,w
  4753  03D7  0720               	addwf	LCDBitmap@index,w
  4754  03D8  0084               	movwf	4
  4755  03D9  0878               	movf	LCDBitmap@bmp_array+1,w
  4756  03DA  3D21               	addwfc	LCDBitmap@index+1,w
  4757  03DB  0085               	movwf	5
  4758  03DC  0800               	movf	0,w	;code access
  4759  03DD  00FC               	movwf	??_LCDBitmap
  4760  03DE  087C               	movf	??_LCDBitmap,w
  4761  03DF  00F0               	movwf	LCDWrite@data
  4762  03E0  3001               	movlw	1
  4763  03E1  3183  237C  3183   	fcall	_LCDWrite
  4764  03E4  3001               	movlw	1
  4765  03E5  0020               	movlb	0	; select bank0
  4766  03E6  07A0               	addwf	LCDBitmap@index,f
  4767  03E7  3000               	movlw	0
  4768  03E8  3DA1               	addwfc	LCDBitmap@index+1,f
  4769  03E9  2BCE               	goto	l1213
  4770  03EA                     __end_of_LCDBitmap:	
  4771                           
  4772                           	psect	text13
  4773  033A                     __ptext13:	
  4774 ;; *************** function _gotoXY *****************
  4775 ;; Defined at:
  4776 ;;		line 124 in file "lcd.c"
  4777 ;; Parameters:    Size  Location     Type
  4778 ;;  x               1    wreg     unsigned char 
  4779 ;;  y               1    4[COMMON] unsigned char 
  4780 ;; Auto vars:     Size  Location     Type
  4781 ;;  x               1    6[COMMON] unsigned char 
  4782 ;; Return value:  Size  Location     Type
  4783 ;;                  1    wreg      void 
  4784 ;; Registers used:
  4785 ;;		wreg, status,2, status,0, pclath, cstack
  4786 ;; Tracked objects:
  4787 ;;		On entry : 0/0
  4788 ;;		On exit  : 0/0
  4789 ;;		Unchanged: 0/0
  4790 ;; Data sizes:     COMMON   BANK0   BANK1   BANK2   BANK3   BANK4   BANK5   BANK6   BANK7   BANK8   BANK9  BANK10  BANK1
      +1  BANK12
  4791 ;;      Params:         1       0       0       0       0       0       0       0       0       0       0       0       
      +0       0
  4792 ;;      Locals:         1       0       0       0       0       0       0       0       0       0       0       0       
      +0       0
  4793 ;;      Temps:          1       0       0       0       0       0       0       0       0       0       0       0       
      +0       0
  4794 ;;      Totals:         3       0       0       0       0       0       0       0       0       0       0       0       
      +0       0
  4795 ;;Total ram usage:        3 bytes
  4796 ;; Hardware stack levels used:    1
  4797 ;; Hardware stack levels required when called:    1
  4798 ;; This function calls:
  4799 ;;		_LCDWrite
  4800 ;; This function is called by:
  4801 ;;		_main
  4802 ;;		_LCDBitmap
  4803 ;;		_LCDClear
  4804 ;;		_LCDDrawBox
  4805 ;; This function uses a non-reentrant model
  4806 ;;
  4807                           
  4808                           
  4809                           ;psect for function _gotoXY
  4810  033A                     _gotoXY:	
  4811                           
  4812                           ;incstack = 0
  4813                           ; Regs used in _gotoXY: [wreg+status,2+status,0+pclath+cstack]
  4814                           ;gotoXY@x stored from wreg
  4815  033A  00F6               	movwf	gotoXY@x
  4816                           
  4817                           ;lcd.c: 126: LCDWrite(0, 0x80 | x);
  4818  033B  0876               	movf	gotoXY@x,w
  4819  033C  3880               	iorlw	128
  4820  033D  00F5               	movwf	??_gotoXY
  4821  033E  0875               	movf	??_gotoXY,w
  4822  033F  00F0               	movwf	LCDWrite@data
  4823  0340  3000               	movlw	0
  4824  0341  3183  237C  3183   	fcall	_LCDWrite
  4825                           
  4826                           ;lcd.c: 127: LCDWrite(0, 0x40 | y);
  4827  0344  0874               	movf	gotoXY@y,w
  4828  0345  3840               	iorlw	64
  4829  0346  00F5               	movwf	??_gotoXY
  4830  0347  0875               	movf	??_gotoXY,w
  4831  0348  00F0               	movwf	LCDWrite@data
  4832  0349  3000               	movlw	0
  4833  034A  3183  237C         	fcall	_LCDWrite
  4834  034C  0008               	return
  4835  034D                     __end_of_gotoXY:	
  4836                           
  4837                           	psect	text14
  4838  037C                     __ptext14:	
  4839 ;; *************** function _LCDWrite *****************
  4840 ;; Defined at:
  4841 ;;		line 270 in file "lcd.c"
  4842 ;; Parameters:    Size  Location     Type
  4843 ;;  data_or_comm    1    wreg     unsigned char 
  4844 ;;  data            1    0[COMMON] unsigned char 
  4845 ;; Auto vars:     Size  Location     Type
  4846 ;;  data_or_comm    1    2[COMMON] unsigned char 
  4847 ;;  i               1    3[COMMON] unsigned char 
  4848 ;; Return value:  Size  Location     Type
  4849 ;;                  1    wreg      void 
  4850 ;; Registers used:
  4851 ;;		wreg, status,2, status,0
  4852 ;; Tracked objects:
  4853 ;;		On entry : 0/0
  4854 ;;		On exit  : 0/0
  4855 ;;		Unchanged: 0/0
  4856 ;; Data sizes:     COMMON   BANK0   BANK1   BANK2   BANK3   BANK4   BANK5   BANK6   BANK7   BANK8   BANK9  BANK10  BANK1
      +1  BANK12
  4857 ;;      Params:         1       0       0       0       0       0       0       0       0       0       0       0       
      +0       0
  4858 ;;      Locals:         2       0       0       0       0       0       0       0       0       0       0       0       
      +0       0
  4859 ;;      Temps:          1       0       0       0       0       0       0       0       0       0       0       0       
      +0       0
  4860 ;;      Totals:         4       0       0       0       0       0       0       0       0       0       0       0       
      +0       0
  4861 ;;Total ram usage:        4 bytes
  4862 ;; Hardware stack levels used:    1
  4863 ;; This function calls:
  4864 ;;		Nothing
  4865 ;; This function is called by:
  4866 ;;		_gotoXY
  4867 ;;		_LCDBitmap
  4868 ;;		_LCDWriteCharacter
  4869 ;;		_LCDClear
  4870 ;;		_LCDInit
  4871 ;;		_LCDDrawBox
  4872 ;; This function uses a non-reentrant model
  4873 ;;
  4874                           
  4875                           
  4876                           ;psect for function _LCDWrite
  4877  037C                     _LCDWrite:	
  4878                           
  4879                           ;incstack = 0
  4880                           ; Regs used in _LCDWrite: [wreg+status,2+status,0]
  4881                           ;LCDWrite@data_or_command stored from wreg
  4882  037C  00F2               	movwf	LCDWrite@data_or_command
  4883                           
  4884                           ;lcd.c: 272: uint8_t i;
  4885                           ;lcd.c: 276: if(data_or_command == 0)
  4886  037D  0872               	movf	LCDWrite@data_or_command,w
  4887  037E  1D03               	btfss	3,2
  4888  037F  2B83               	goto	l97
  4889                           
  4890                           ;lcd.c: 277: {
  4891                           ;lcd.c: 278: LATBbits.LATB2 = 0;
  4892  0380  0020               	movlb	0	; select bank0
  4893  0381  1117               	bcf	23,2	;volatile
  4894                           
  4895                           ;lcd.c: 279: }
  4896  0382  2B85               	goto	l98
  4897  0383                     l97:	
  4898                           
  4899                           ;lcd.c: 280: else
  4900                           ;lcd.c: 281: {
  4901                           ;lcd.c: 282: LATBbits.LATB2 = 1;
  4902  0383  0020               	movlb	0	; select bank0
  4903  0384  1517               	bsf	23,2	;volatile
  4904  0385                     l98:	
  4905                           
  4906                           ;lcd.c: 283: }
  4907                           ;lcd.c: 285: LATBbits.LATB1 = 0;
  4908  0385  1097               	bcf	23,1	;volatile
  4909                           
  4910                           ;lcd.c: 287: for(i=0;i<8;i++)
  4911  0386  01F3               	clrf	LCDWrite@i
  4912  0387  3008               	movlw	8
  4913  0388  0273               	subwf	LCDWrite@i,w
  4914  0389  1803               	btfsc	3,0
  4915  038A  2B9B               	goto	l100
  4916  038B                     l99:	
  4917                           
  4918                           ;lcd.c: 288: {
  4919                           ;lcd.c: 289: LATBbits.LATB3 = 0;
  4920  038B  1197               	bcf	23,3	;volatile
  4921                           
  4922                           ;lcd.c: 291: if(data&0x80)
  4923  038C  1FF0               	btfss	LCDWrite@data,7
  4924  038D  2B8F               	goto	l101
  4925                           
  4926                           ;lcd.c: 292: {
  4927                           ;lcd.c: 293: LATBbits.LATB3 = 1;
  4928  038E  1597               	bsf	23,3	;volatile
  4929  038F                     l101:	
  4930                           
  4931                           ;lcd.c: 294: }
  4932                           ;lcd.c: 296: LATBbits.LATB4 = 1;
  4933  038F  1617               	bsf	23,4	;volatile
  4934                           
  4935                           ;lcd.c: 298: data<<=1;
  4936  0390  1003               	clrc
  4937  0391  0DF0               	rlf	LCDWrite@data,f
  4938                           
  4939                           ;lcd.c: 300: LATBbits.LATB4=0;
  4940  0392  1217               	bcf	23,4	;volatile
  4941  0393  3001               	movlw	1
  4942  0394  00F1               	movwf	??_LCDWrite
  4943  0395  0871               	movf	??_LCDWrite,w
  4944  0396  07F3               	addwf	LCDWrite@i,f
  4945  0397  3008               	movlw	8
  4946  0398  0273               	subwf	LCDWrite@i,w
  4947  0399  1C03               	skipc
  4948  039A  2B8B               	goto	l99
  4949  039B                     l100:	
  4950                           
  4951                           ;lcd.c: 301: }
  4952                           ;lcd.c: 303: LATBbits.LATB1 = 1;
  4953  039B  1497               	bsf	23,1	;volatile
  4954  039C  0008               	return
  4955  039D                     __end_of_LCDWrite:	
  4956  007E                     btemp	set	126	;btemp
  4957  007E                     wtemp	set	126
  4958  007E                     wtemp0	set	126
  4959  0080                     wtemp1	set	128
  4960  0082                     wtemp2	set	130
  4961  0084                     wtemp3	set	132
  4962  0086                     wtemp4	set	134
  4963  0088                     wtemp5	set	136
  4964  007F                     wtemp6	set	127
  4965  007E                     ttemp	set	126
  4966  007E                     ttemp0	set	126
  4967  0081                     ttemp1	set	129
  4968  0084                     ttemp2	set	132
  4969  0087                     ttemp3	set	135
  4970  007F                     ttemp4	set	127
  4971  007E                     ltemp	set	126
  4972  007E                     ltemp0	set	126
  4973  0082                     ltemp1	set	130
  4974  0086                     ltemp2	set	134
  4975  0080                     ltemp3	set	128


Data Sizes:
    Strings     145
    Constant    807
    Data        0
    BSS         5
    Persistent  0
    Stack       0

Auto Spaces:
    Space          Size  Autos    Used
    COMMON           14     14      14
    BANK0            80     26      31
    BANK1            80      0       0
    BANK2            80      0       0
    BANK3            80      0       0
    BANK4            80      0       0
    BANK5            80      0       0
    BANK6            80      0       0
    BANK7            80      0       0
    BANK8            80      0       0
    BANK9            80      0       0
    BANK10           80      0       0
    BANK11           80      0       0
    BANK12           48      0       0

Pointer List with Targets:

    LCDWriteString@characters	PTR const unsigned char  size(2) Largest target is 43
		 -> STR_10(CODE[15]), STR_9(CODE[16]), STR_8(CODE[19]), STR_7(CODE[6]), 
		 -> STR_6(CODE[6]), STR_5(CODE[6]), STR_4(CODE[6]), STR_3(CODE[6]), 
		 -> STR_2(CODE[43]), STR_1(CODE[22]), 

    LCDBitmap@bmp_array	PTR const unsigned char  size(2) Largest target is 504
		 -> coffee(CODE[504]), 


Critical Paths under _main in COMMON

    _main->_LCDWriteInt
    _SYSTEM_Initialize->_LCDClear
    _LCDInit->_LCDWrite
    _LCDClear->_gotoXY
    _LCDWriteString->_LCDWriteCharacter
    _LCDWriteInt->___awdiv
    _LCDWriteCharacter->___wmul
    _LCDDrawBox->_gotoXY
    _LCDBitmap->_gotoXY
    _gotoXY->_LCDWrite

Critical Paths under _main in BANK0

    _main->_LCDWriteInt
    _LCDWriteString->_LCDWriteCharacter
    _LCDWriteInt->_LCDWriteCharacter

Critical Paths under _main in BANK1

    None.

Critical Paths under _main in BANK2

    None.

Critical Paths under _main in BANK3

    None.

Critical Paths under _main in BANK4

    None.

Critical Paths under _main in BANK5

    None.

Critical Paths under _main in BANK6

    None.

Critical Paths under _main in BANK7

    None.

Critical Paths under _main in BANK8

    None.

Critical Paths under _main in BANK9

    None.

Critical Paths under _main in BANK10

    None.

Critical Paths under _main in BANK11

    None.

Critical Paths under _main in BANK12

    None.

Call Graph Tables:

 ---------------------------------------------------------------------------------
 (Depth) Function   	        Calls       Base Space   Used Autos Params    Refs
 ---------------------------------------------------------------------------------
 (0) _main                                                 5     5      0   19749
                                             21 BANK0      5     5      0
                          _LCDBitmap
                           _LCDClear
                         _LCDDrawBox
                        _LCDWriteInt
                     _LCDWriteString
                  _SYSTEM_Initialize
                             _gotoXY
 ---------------------------------------------------------------------------------
 (1) _SYSTEM_Initialize                                    2     2      0    3808
                                             10 COMMON     2     2      0
                           _LCDClear
                            _LCDInit
              _OSCILLATOR_Initialize
 ---------------------------------------------------------------------------------
 (2) _OSCILLATOR_Initialize                                0     0      0       0
 ---------------------------------------------------------------------------------
 (2) _LCDInit                                              1     1      0     939
                                              4 COMMON     1     1      0
                           _LCDWrite
 ---------------------------------------------------------------------------------
 (2) _LCDClear                                             3     3      0    2869
                                              7 COMMON     3     3      0
                           _LCDWrite
                             _gotoXY
 ---------------------------------------------------------------------------------
 (1) _LCDWriteString                                       3     1      2    1871
                                              8 COMMON     3     1      2
                  _LCDWriteCharacter
 ---------------------------------------------------------------------------------
 (1) _LCDWriteInt                                         19    14      5    2817
                                              9 COMMON     5     5      0
                                              7 BANK0     14     9      5
                  _LCDWriteCharacter
                            ___awdiv
                            ___awmod
 ---------------------------------------------------------------------------------
 (2) ___awmod                                              7     3      4     402
                                              0 COMMON     7     3      4
 ---------------------------------------------------------------------------------
 (2) ___awdiv                                              9     5      4     406
                                              0 COMMON     9     5      4
 ---------------------------------------------------------------------------------
 (2) _LCDWriteCharacter                                    9     9      0    1296
                                              6 COMMON     2     2      0
                                              0 BANK0      7     7      0
                           _LCDWrite
                             ___wmul
 ---------------------------------------------------------------------------------
 (3) ___wmul                                               6     2      4     198
                                              0 COMMON     6     2      4
 ---------------------------------------------------------------------------------
 (1) _LCDDrawBox                                           3     3      0    3095
                                              7 COMMON     3     3      0
                           _LCDWrite
                             _gotoXY
 ---------------------------------------------------------------------------------
 (1) _LCDBitmap                                            8     3      5    3094
                                              7 COMMON     6     1      5
                                              0 BANK0      2     2      0
                           _LCDWrite
                             _gotoXY
 ---------------------------------------------------------------------------------
 (1) _gotoXY                                               3     2      1    1884
                                              4 COMMON     3     2      1
                           _LCDWrite
 ---------------------------------------------------------------------------------
 (2) _LCDWrite                                             4     3      1     939
                                              0 COMMON     4     3      1
 ---------------------------------------------------------------------------------
 Estimated maximum stack depth 3
 ---------------------------------------------------------------------------------

 Call Graph Graphs:

 _main (ROOT)
   _LCDBitmap
     _LCDWrite
     _gotoXY
       _LCDWrite
   _LCDClear
     _LCDWrite
     _gotoXY
       _LCDWrite
   _LCDDrawBox
     _LCDWrite
     _gotoXY
       _LCDWrite
   _LCDWriteInt
     _LCDWriteCharacter
       _LCDWrite
       ___wmul
     ___awdiv
     ___awmod
   _LCDWriteString
     _LCDWriteCharacter
       _LCDWrite
       ___wmul
   _SYSTEM_Initialize
     _LCDClear
       _LCDWrite
       _gotoXY
         _LCDWrite
     _LCDInit
       _LCDWrite
     _OSCILLATOR_Initialize
   _gotoXY
     _LCDWrite

 Address spaces:
Name               Size   Autos  Total    Cost      Usage
BIGRAM             3F0      0       0       0        0.0%
EEDATA             100      0       0       0        0.0%
NULL                 0      0       0       0        0.0%
CODE                 0      0       0       0        0.0%
BITCOMMON            E      0       0       1        0.0%
BITSFR0              0      0       0       1        0.0%
SFR0                 0      0       0       1        0.0%
COMMON               E      E       E       2      100.0%
BITSFR1              0      0       0       2        0.0%
SFR1                 0      0       0       2        0.0%
BITSFR2              0      0       0       3        0.0%
SFR2                 0      0       0       3        0.0%
STACK                0      0       0       3        0.0%
BITBANK0            50      0       0       4        0.0%
BITSFR3              0      0       0       4        0.0%
SFR3                 0      0       0       4        0.0%
BANK0               50     1A      1F       5       38.8%
BITSFR4              0      0       0       5        0.0%
SFR4                 0      0       0       5        0.0%
BITBANK1            50      0       0       6        0.0%
BITSFR5              0      0       0       6        0.0%
SFR5                 0      0       0       6        0.0%
BANK1               50      0       0       7        0.0%
BITSFR6              0      0       0       7        0.0%
SFR6                 0      0       0       7        0.0%
BITBANK2            50      0       0       8        0.0%
BITSFR7              0      0       0       8        0.0%
SFR7                 0      0       0       8        0.0%
BANK2               50      0       0       9        0.0%
BITSFR8              0      0       0       9        0.0%
SFR8                 0      0       0       9        0.0%
BITBANK3            50      0       0      10        0.0%
BITSFR9              0      0       0      10        0.0%
SFR9                 0      0       0      10        0.0%
BANK3               50      0       0      11        0.0%
BITSFR10             0      0       0      11        0.0%
SFR10                0      0       0      11        0.0%
BITBANK4            50      0       0      12        0.0%
BITSFR11             0      0       0      12        0.0%
SFR11                0      0       0      12        0.0%
BANK4               50      0       0      13        0.0%
BITSFR12             0      0       0      13        0.0%
SFR12                0      0       0      13        0.0%
BITBANK5            50      0       0      14        0.0%
BITSFR13             0      0       0      14        0.0%
SFR13                0      0       0      14        0.0%
BANK5               50      0       0      15        0.0%
BITSFR14             0      0       0      15        0.0%
SFR14                0      0       0      15        0.0%
BITBANK6            50      0       0      16        0.0%
BITSFR15             0      0       0      16        0.0%
SFR15                0      0       0      16        0.0%
BANK6               50      0       0      17        0.0%
BITSFR16             0      0       0      17        0.0%
SFR16                0      0       0      17        0.0%
BITBANK7            50      0       0      18        0.0%
BITSFR17             0      0       0      18        0.0%
SFR17                0      0       0      18        0.0%
BANK7               50      0       0      19        0.0%
BITSFR18             0      0       0      19        0.0%
SFR18                0      0       0      19        0.0%
BITSFR19             0      0       0      20        0.0%
SFR19                0      0       0      20        0.0%
ABS                  0      0      2D      20        0.0%
BITBANK8            50      0       0      21        0.0%
BITSFR20             0      0       0      21        0.0%
SFR20                0      0       0      21        0.0%
BANK8               50      0       0      22        0.0%
BITSFR21             0      0       0      22        0.0%
SFR21                0      0       0      22        0.0%
BITBANK9            50      0       0      23        0.0%
BITSFR22             0      0       0      23        0.0%
SFR22                0      0       0      23        0.0%
BANK9               50      0       0      24        0.0%
BITSFR23             0      0       0      24        0.0%
SFR23                0      0       0      24        0.0%
BITBANK10           50      0       0      25        0.0%
BITSFR24             0      0       0      25        0.0%
SFR24                0      0       0      25        0.0%
BANK10              50      0       0      26        0.0%
BITSFR25             0      0       0      26        0.0%
SFR25                0      0       0      26        0.0%
BITBANK11           50      0       0      27        0.0%
BITSFR26             0      0       0      27        0.0%
SFR26                0      0       0      27        0.0%
BANK11              50      0       0      28        0.0%
BITSFR27             0      0       0      28        0.0%
SFR27                0      0       0      28        0.0%
BITBANK12           30      0       0      29        0.0%
BITSFR28             0      0       0      29        0.0%
SFR28                0      0       0      29        0.0%
BANK12              30      0       0      30        0.0%
BITSFR29             0      0       0      30        0.0%
SFR29                0      0       0      30        0.0%
BITSFR30             0      0       0      31        0.0%
SFR30                0      0       0      31        0.0%
DATA                 0      0      2D      31        0.0%
BITSFR31             0      0       0      32        0.0%
SFR31                0      0       0      32        0.0%


Microchip Technology PIC Macro Assembler V1.38 build -256452561 
Symbol Table                                                                                   Mon Apr 09 18:11:07 2018

        LCDWriteInt@fieldLength 0029                     __CFG_CP$OFF 0000                              l97 0383  
                            l98 0385                              l99 038B                    ___awdiv@sign 0076  
           ___wmul@multiplicand 0072                     __CFG_LVP$ON 0000                             l100 039B  
                           l101 038F                             l247 0369                   LCDClear@index 0078  
                   LCDDrawBox@j 0078                    __CFG_CPD$OFF 0000                             u715 03A8  
                           u805 051A                             u725 03BC                             u735 04C9  
                           u815 0522                             u905 0487                             u685 036A  
                           u935 03D4                             u695 036F                             u775 0506  
                           u955 0542                             u795 0510                             u875 0471  
                           u965 055C                             u975 0569                             u895 0480  
                           u985 0588                             u995 0595                    ___awmod@sign 0076  
                  __CFG_BORV$LO 0000                             wreg 0009                    LCDBitmap@len 007A  
               __end_of_LCDInit 0457                    ?_LCDWriteInt 0027                    __CFG_ZCD$OFF 0000  
                          l1111 04FB                            l1041 0363                            l1121 0503  
                          l1105 04F0                            l1123 050F                            l1213 03CE  
                          l1133 052A                            l1301 0638                            l1221 034D  
                          l1311 0654                            l1303 0640                            l1241 056B  
                          l1081 04E1                            l1137 0532                            l1129 0521  
                          l1161 046E                            l1153 0468                            l1313 0680  
                          l1305 0650                            l1065 03BE                            l1401 07D6  
                          l1235 055E                            l1163 047A                            l1171 048F  
                          l1059 03AA                            l1253 0597                            l1229 0544  
                          l1149 0461                            l1317 068E                            l1333 06D2  
                          l1247 058A                            l1079 04BD                            l1175 0497  
                          l1167 0486                            l1351 070B                            l1409 07F2  
                          l1345 06F6                            l1329 06C3                            l1259 05B6  
                          l1283 05FA                            l1363 0735                            l1339 06E3  
                          l1293 0601                            l1357 0720                            l1295 0630  
                          l1383 0771                            l1375 075F                            l1369 074A  
                          l1299 0634                            l1379 0768                            STR_1 0B52  
                          STR_2 0B27                            STR_3 0BB2                            STR_4 0BAC  
                          STR_5 0BA6                            STR_6 0BA0                            STR_7 0B9A  
                          STR_8 0B68                            STR_9 0B7B                            u1005 05B4  
                          u1030 05E2                            u1015 05C1                            u1125 06CD  
                          u1225 077B                            u1235 0787                            u1245 07EA  
                          _LATA 0016                            _LATB 0017                            u1095 066E  
                          _LATC 0018                            u1257 06BC                            u1267 07D2  
                          u1277 07DB                            u1287 040A                            u1297 0416  
                          _WPUA 0F39                            _WPUB 0F44                            _WPUC 0F4F  
                          _WPUE 0F65                    __CFG_WRT$OFF 0000                   __CFG_FCMEN$ON 0000  
            __size_of_LCDBitmap 0027              LCDBitmap@bmp_array 0077                            _main 06A3  
                          fsr0h 0005                            fsr1h 0007                            fsr0l 0004  
                          indf0 0000                            indf1 0001                            fsr1l 0006  
                          btemp 007E                            ltemp 007E                            start 0002  
                          ttemp 007E                            wtemp 007E                   __CFG_CSWEN$ON 0000  
                 __CFG_MCLRE$ON 0000                __end_of_LCDClear 03C3  __size_of_OSCILLATOR_Initialize 0008  
              __end_of_LCDWrite 039D   __end_of_OSCILLATOR_Initialize 033A                           ?_main 0070  
               __end_of___awdiv 0537                           STR_10 0B8B                   __CFG_WDTE$OFF 0000  
               __end_of___awmod 049C                 ___awdiv@divisor 0070                 ___awdiv@counter 0075  
                         _OSCEN 0891                           _TRISA 0011                           _TRISB 0012  
                         _TRISC 0013             __size_of_LCDDrawBox 00A1                           _fonts 0800  
                __CFG_BOREN$OFF 0000                           ltemp0 007E                           ltemp1 0082  
                         ltemp2 0086                           ltemp3 0080                           ttemp0 007E  
                         ttemp1 0081                           ttemp2 0084                           ttemp3 0087  
                         ttemp4 007F                           status 0003                           wtemp0 007E  
                         wtemp1 0080                           wtemp2 0082                           wtemp3 0084  
                         wtemp4 0086                           wtemp5 0088                           wtemp6 007F  
                LCDBitmap@index 0020              LCDBitmap@startLine 0079                 __initialization 07F8  
                  __end_of_main 07F8               __end_of_LCDBitmap 03EA                          ??_main 0035  
                     ??_LCDInit 0074         LCDWrite@data_or_command 0072                ___awdiv@dividend 0072  
                        _ANSELA 0F38                          _ANSELB 0F43                          _ANSELC 0F4E  
            __CFG_RSTOSC$HFINT1 0000                  __CFG_WDTCCS$SC 0000                          _FVRCON 090C  
                        _OSCFRQ 0893                  __CFG_PWRTE$OFF 0000                  _LCDWriteString 034D  
                        ___wmul 0361                       ??___awdiv 0074                  __CFG_STVREN$ON 0000  
                     ??___awmod 0074                          _coffee 092F                          _gotoXY 033A  
              ___awdiv@quotient 0077                 ___awmod@divisor 0070                 ___awmod@counter 0075  
                  LCDWrite@data 0070                    LCDWriteInt@i 0033                    LCDWriteInt@j 0031  
                     ?_LCDClear 0070               _SYSTEM_Initialize 03EA            __size_of_LCDWriteInt 00CB  
       __end_of__initialization 07FD                       ?_LCDWrite 0070              ?_SYSTEM_Initialize 0070  
        __end_of_LCDWriteString 0361                    ??_LCDDrawBox 0077                  __pcstackCOMMON 0070  
           ??_SYSTEM_Initialize 007A                   __end_of_fonts 092F                       LCDWrite@i 0073  
             LCDWriteInt@F13605 003A              __end_of_LCDDrawBox 05D8       __end_of_SYSTEM_Initialize 041C  
                    __pbssBANK0 003A                      ??_LCDClear 0077                      ??_LCDWrite 0071  
               ?_LCDWriteString 0078                      __pmaintext 06A3                         ?___wmul 0070  
               __CFG_PPS1WAY$ON 0000                         ?_gotoXY 0074                         _LCDInit 041C  
                       _OSCCON1 088D                         _OSCCON3 088F                         _OSCTUNE 0892  
          __CFG_SCANE$available 0000                         ___awdiv 04E6                         ___awmod 0457  
               __size_of___wmul 001B                 __size_of_gotoXY 0013                         __ptext1 03EA  
                       __ptext2 0332                         __ptext3 041C                         __ptext4 039D  
                       __ptext5 034D                         __ptext6 05D8                         __ptext7 0457  
                       __ptext8 04E6                         __ptext9 049C           _OSCILLATOR_Initialize 0332  
              ___awmod@dividend 0072                       _LCDBitmap 03C3      __size_of_SYSTEM_Initialize 0032  
          end_of_initialization 07FD           LCDWriteCharacter@base 0025                         gotoXY@x 0076  
                       gotoXY@y 0074                    __pstringtext 0800               _LCDWriteCharacter 049C  
         __CFG_WDTCPS$WDTCPS_31 0000              ?_LCDWriteCharacter 0070                      ?_LCDBitmap 0077  
                     _TRISBbits 0012             ??_LCDWriteCharacter 0076                __CFG_FEXTOSC$OFF 0000  
             __size_of_LCDClear 0026      LCDWriteCharacter@character 0024               __size_of_LCDWrite 0021  
     __end_of_LCDWriteCharacter 04E6                  __end_of___wmul 037C                  __end_of_coffee 0B27  
                __end_of_gotoXY 034D          ?_OSCILLATOR_Initialize 0070              LCDWriteCharacter@x 0020  
            LCDWriteCharacter@z 0022             start_initialization 07F8                   ??_LCDWriteInt 0079  
              ??_LCDWriteString 007A                __CFG_LPBOREN$OFF 0000                        ??___wmul 0074  
                      ??_gotoXY 0075                        ?_LCDInit 0070                       ___latbits 0002  
                   ??_LCDBitmap 007C                   __pcstackBANK0 0020             __end_of_LCDWriteInt 06A3  
    __size_of_LCDWriteCharacter 004A                        ?___awdiv 0070                        ?___awmod 0070  
              LCDWriteInt@value 0027                        _LCDClear 039D                  ___wmul@product 0074  
                      _LATBbits 0017                        _LCDWrite 037C               ___wmul@multiplier 0070  
                     main@count 0038                __size_of_LCDInit 003B                     _LCDWriteInt 05D8  
       ??_OSCILLATOR_Initialize 0070            LCDWriteInt@numPlaces 002A                __size_of___awdiv 0051  
              __size_of___awmod 0045                        __ptext10 0361                        __ptext11 0537  
                      __ptext12 03C3                        __ptext13 033A                        __ptext14 037C  
               LCDWriteInt@sign 002B                   __size_of_main 0155            __CFG_WDTCWS$WDTCWS_7 0000  
                    _LCDDrawBox 0537                  LCDWriteInt@str 002C               __CFG_CLKOUTEN$OFF 0000  
      LCDWriteString@characters 0078                     ?_LCDDrawBox 0070         __size_of_LCDWriteString 0014  
