Microchip MPLAB XC8 Compiler V1.38 ()

Linker command line:

-W-3 --edf=C:\Program Files (x86)\Microchip\xc8\v1.38\dat\en_msgs.txt -cs \
  -h+dist/default/production\BBQ_Controller.X.production.sym \
  --cmf=dist/default/production\BBQ_Controller.X.production.cmf -z -w9 \
  --norlf -Q16F18855 -oC:\Users\DAVE\AppData\Local\Temp\s2bc.2 \
  -Mdist/default/production/BBQ_Controller.X.production.map -E1 -ver=XC8 \
  -ACODE=00h-07FFhx4 -ASTRCODE=00h-01FFFh -ASTRING=00h-0FFhx32 \
  -ACONST=00h-0FFhx32 -AENTRY=00h-0FFhx32 -ACOMMON=070h-07Fh \
  -ABANK0=020h-06Fh -ABANK1=0A0h-0EFh -ABANK2=0120h-016Fh \
  -ABANK3=01A0h-01EFh -ABANK4=0220h-026Fh -ABANK5=02A0h-02EFh \
  -ABANK6=0320h-036Fh -ABANK7=03A0h-03EFh -ABANK8=0420h-046Fh \
  -ABANK9=04A0h-04EFh -ABANK10=0520h-056Fh -ABANK11=05A0h-05EFh \
  -ABANK12=0620h-064Fh -ABIGRAM=02000h-023EFh \
  -ARAM=020h-06Fh,0A0h-0EFh,0120h-016Fh,01A0h-01EFh,0220h-026Fh,02A0h-02EFh,0320h-036Fh,03A0h-03EFh,0420h-046Fh,04A0h-04EFh,0520h-056Fh,05A0h-05EFh,0620h-064Fh \
  -AABS1=020h-07Fh,0A0h-0EFh,0120h-016Fh,01A0h-01EFh,0220h-026Fh,02A0h-02EFh,0320h-036Fh,03A0h-03EFh,0420h-046Fh,04A0h-04EFh,0520h-056Fh,05A0h-05EFh,0620h-064Fh \
  -ASFR0=00h-01Fh -ASFR1=080h-09Fh -ASFR2=0100h-011Fh -ASFR3=0180h-019Fh \
  -ASFR4=0200h-021Fh -ASFR5=0280h-029Fh -ASFR6=0300h-031Fh \
  -ASFR7=0380h-039Fh -ASFR8=0400h-041Fh -ASFR9=0480h-049Fh \
  -ASFR10=0500h-051Fh -ASFR11=0580h-059Fh -ASFR12=0600h-061Fh \
  -ASFR13=0680h-06EFh -ASFR14=0700h-076Fh -ASFR15=0780h-07EFh \
  -ASFR16=0800h-086Fh -ASFR17=0880h-08EFh -ASFR18=0900h-096Fh \
  -ASFR19=0980h-09EFh -ASFR20=0A00h-0A6Fh -ASFR21=0A80h-0AEFh \
  -ASFR22=0B00h-0B6Fh -ASFR23=0B80h-0BEFh -ASFR24=0C00h-0C6Fh \
  -ASFR25=0C80h-0CEFh -ASFR26=0D00h-0D6Fh -ASFR27=0D80h-0DEFh \
  -ASFR28=0E00h-0E6Fh -ASFR29=0E80h-0EEFh -ASFR30=0F00h-0F6Fh \
  -ASFR31=0F80h-0FEFh -preset_vec=00h,intentry,init,end_init -ppowerup=CODE \
  -pcinit=CODE -pfunctab=CODE -ACONFIG=08007h-0800Bh -pconfig=CONFIG \
  -DCONFIG=2 -AIDLOC=08000h-08003h -pidloc=IDLOC -DIDLOC=2 \
  -AEEDATA=00h-0FFh/0F000h -peeprom_data=EEDATA -DEEDATA=2 -DCODE=2 \
  -DSTRCODE=2 -DSTRING=2 -DCONST=2 -DENTRY=2 -k \
  C:\Users\DAVE\AppData\Local\Temp\s2bc.obj \
  dist/default/production\BBQ_Controller.X.production.obj 

Object code version is 3.11

Machine type is 16F18855



                Name                               Link     Load   Length Selector   Space Scale
C:\Users\DAVE\AppData\Local\Temp\s2bc.obj
                end_init                              2        2        3        0       0
                reset_vec                             0        0        2        0       0
dist/default/production\BBQ_Controller.X.production.obj
                cinit                               7B6      7B6       4A      F6C       0
                text35                                6        6       18        C       0
                text34                              89C      89C       14     1138       0
                text33                              A6A      A6A       3F     14D4       0
                text32                              997      997       2C     132E       0
                text31                              B30      B30       51     1660       0
                text30                              AEB      AEB       45     15D6       0
                text29                               1E       1E       C9       3C       0
                text28                              8C6      8C6       1A     118C       0
                text27                              8FA      8FA       1B     11F4       0
                text26                               E7       E7       E5      1CE       0
                text25                              8B0      8B0       16     1160       0
                text24                              8E0      8E0       1A     11C0       0
                text23                              971      971       26     12E2       0
                text22                              84C      84C        8     1098       0
                text21                              CC7      CC7       87     198E       0
                text20                              854      854        9     10A8       0
                text19                              9C3      9C3       31     1386       0
                text18                              85D      85D        B     10BA       0
                text17                              880      880        E     1100       0
                text16                              AA9      AA9       42     1552       0
                text15                              D4E      D4E       A5     1A9C       0
                text14                              88E      88E        E     111C       0
                text13                              C45      C45       82     188A       0
                text12                              3D7      3D7      142      7AE       0
                text11                              BE1      BE1       64     17C2       0
                text10                              DF3      DF3       A9     1BE6       0
                text9                               1CC      1CC       F6      398       0
                text8                               915      915       1E     122A       0
                text7                               951      951       20     12A2       0
                text6                               9F4      9F4       3B     13E8       0
                text5                               F4C      F4C       B4     1E98       0
                text4                               B81      B81       60     1702       0
                text3                               A2F      A2F       3B     145E       0
                text2                               E9C      E9C       B0     1D38       0
                text1                               2C2      2C2      115      584       0
                maintext                            519      519      29D      A32       0
                cstackBANK0                          20       20       50       20       1
                cstackCOMMON                         70       70        E       70       1
                cstackBANK1                          A0       A0       29       A0       1
                cstackBANK2                         120      120       50      120       1
                cstackBANK3                         1CF      1CF        C      1A0       1
                clrtext                             868      868        C     10D0       0
                inittext                            874      874        C     10E8       0
                bssBANK4                            220      220       50      220       1
                dataBANK3                           1A0      1A0       1E      1A0       1
                bssBANK3                            1BE      1BE       11      1A0       1
                dataBANK1                            E7       E7        6       A0       1
                bssBANK1                             C9       C9       1E       A0       1
                stringtext                         1000     1000       49     2000       0
                idataBANK3                          933      933       1E     1266       0
                idataBANK1                          846      846        6     108C       0

TOTAL           Name                               Link     Load   Length     Space
        CLASS   CODE           
                end_init                              2        2        3         0
                cinit                               7B6      7B6       4A         0
                reset_vec                             0        0        2         0
                text35                                6        6       18         0
                text34                              89C      89C       14         0
                text33                              A6A      A6A       3F         0
                text32                              997      997       2C         0
                text31                              B30      B30       51         0
                text30                              AEB      AEB       45         0
                text29                               1E       1E       C9         0
                text28                              8C6      8C6       1A         0
                text27                              8FA      8FA       1B         0
                text26                               E7       E7       E5         0
                text25                              8B0      8B0       16         0
                text24                              8E0      8E0       1A         0
                text23                              971      971       26         0
                text22                              84C      84C        8         0
                text21                              CC7      CC7       87         0
                text20                              854      854        9         0
                text19                              9C3      9C3       31         0
                text18                              85D      85D        B         0
                text17                              880      880        E         0
                text16                              AA9      AA9       42         0
                text15                              D4E      D4E       A5         0
                text14                              88E      88E        E         0
                text13                              C45      C45       82         0
                text12                              3D7      3D7      142         0
                text11                              BE1      BE1       64         0
                text10                              DF3      DF3       A9         0
                text9                               1CC      1CC       F6         0
                text8                               915      915       1E         0
                text7                               951      951       20         0
                text6                               9F4      9F4       3B         0
                text5                               F4C      F4C       B4         0
                text4                               B81      B81       60         0
                text3                               A2F      A2F       3B         0
                text2                               E9C      E9C       B0         0
                text1                               2C2      2C2      115         0
                maintext                            519      519      29D         0
                clrtext                             868      868        C         0
                inittext                            874      874        C         0
                idataBANK3                          933      933       1E         0
                idataBANK1                          846      846        6         0

        CLASS   STRCODE        
                stringtext                         1000     1000       49         0

        CLASS   STRING         

        CLASS   CONST          

        CLASS   ENTRY          

        CLASS   COMMON         
                cstackCOMMON                         70       70        E         1

        CLASS   BANK0          
                cstackBANK0                          20       20       50         1

        CLASS   BANK1          
                cstackBANK1                          A0       A0       29         1
                dataBANK1                            E7       E7        6         1
                bssBANK1                             C9       C9       1E         1

        CLASS   BANK2          
                cstackBANK2                         120      120       50         1

        CLASS   BANK3          
                cstackBANK3                         1CF      1CF        C         1
                dataBANK3                           1A0      1A0       1E         1
                bssBANK3                            1BE      1BE       11         1

        CLASS   BANK4          
                bssBANK4                            220      220       50         1

        CLASS   BANK5          

        CLASS   BANK6          

        CLASS   BANK7          

        CLASS   BANK8          

        CLASS   BANK9          

        CLASS   BANK10         

        CLASS   BANK11         

        CLASS   BANK12         

        CLASS   BIGRAM         

        CLASS   RAM            

        CLASS   ABS1           
                abs_s1                               7E       7E        2         1
                abs_s1                              550      550       20         1
                abs_s1                              5A0      5A0       50         1
                abs_s1                              620      620       30         1
                abs_s1                             2350     2350        0         1

        CLASS   SFR0           

        CLASS   SFR1           

        CLASS   SFR2           

        CLASS   SFR3           

        CLASS   SFR4           

        CLASS   SFR5           

        CLASS   SFR6           

        CLASS   SFR7           

        CLASS   SFR8           

        CLASS   SFR9           

        CLASS   SFR10          

        CLASS   SFR11          

        CLASS   SFR12          

        CLASS   SFR13          

        CLASS   SFR14          

        CLASS   SFR15          

        CLASS   SFR16          

        CLASS   SFR17          

        CLASS   SFR18          

        CLASS   SFR19          

        CLASS   SFR20          

        CLASS   SFR21          

        CLASS   SFR22          

        CLASS   SFR23          

        CLASS   SFR24          

        CLASS   SFR25          

        CLASS   SFR26          

        CLASS   SFR27          

        CLASS   SFR28          

        CLASS   SFR29          

        CLASS   SFR30          

        CLASS   SFR31          

        CLASS   CONFIG         

        CLASS   IDLOC          

        CLASS   EEDATA         

        CLASS   BANK31         

        CLASS   BANK30         

        CLASS   BANK29         

        CLASS   BANK28         

        CLASS   BANK27         

        CLASS   BANK26         

        CLASS   BANK25         

        CLASS   BANK24         

        CLASS   BANK23         

        CLASS   BANK22         

        CLASS   BANK21         

        CLASS   BANK20         

        CLASS   BANK19         

        CLASS   BANK18         

        CLASS   BANK17         

        CLASS   BANK16         

        CLASS   BANK15         

        CLASS   BANK14         

        CLASS   BANK13         

        CLASS   STACK          



SEGMENTS        Name                           Load    Length   Top    Selector   Space  Class     Delta

                reset_vec                      000000  000005  000005         0       0  CODE        2
                text35                         000006  000018  00001E         C       0  CODE        2
                cstackBANK0                    000020  000050  000070        20       1  BANK0       1
                text29                         00001E  0000C9  0000E7        3C       0  CODE        2
                cstackCOMMON                   000070  00000E  00007E        70       1  COMMON      1
                cstackBANK1                    0000A0  00004D  0000ED        A0       1  BANK1       1
                cstackBANK2                    000120  000050  000170       120       1  BANK2       1
                dataBANK3                      0001A0  00003B  0001DB       1A0       1  BANK3       1
                text26                         0000E7  0000E5  0001CC       1CE       0  CODE        2
                bssBANK4                       000220  000050  000270       220       1  BANK4       1
                text9                          0001CC  0000F6  0002C2       398       0  CODE        2
                text1                          0002C2  000115  0003D7       584       0  CODE        2
                text12                         0003D7  000142  000519       7AE       0  CODE        2
                maintext                       000519  00029D  0007B6       A32       0  CODE        2
                cinit                          0007B6  00004A  000800       F6C       0  CODE        2
                idataBANK1                     000846  000006  00084C      108C       0  CODE        2
                text22                         00084C  000008  000854      1098       0  CODE        2
                text20                         000854  000009  00085D      10A8       0  CODE        2
                text18                         00085D  00000B  000868      10BA       0  CODE        2
                clrtext                        000868  00000C  000874      10D0       0  CODE        2
                inittext                       000874  00000C  000880      10E8       0  CODE        2
                text17                         000880  00000E  00088E      1100       0  CODE        2
                text14                         00088E  00000E  00089C      111C       0  CODE        2
                text34                         00089C  000014  0008B0      1138       0  CODE        2
                text25                         0008B0  000016  0008C6      1160       0  CODE        2
                text28                         0008C6  00001A  0008E0      118C       0  CODE        2
                text24                         0008E0  00001A  0008FA      11C0       0  CODE        2
                text27                         0008FA  00001B  000915      11F4       0  CODE        2
                text8                          000915  00001E  000933      122A       0  CODE        2
                idataBANK3                     000933  00001E  000951      1266       0  CODE        2
                text7                          000951  000020  000971      12A2       0  CODE        2
                text23                         000971  000026  000997      12E2       0  CODE        2
                text32                         000997  00002C  0009C3      132E       0  CODE        2
                text19                         0009C3  000031  0009F4      1386       0  CODE        2
                text6                          0009F4  00003B  000A2F      13E8       0  CODE        2
                text3                          000A2F  00003B  000A6A      145E       0  CODE        2
                text33                         000A6A  00003F  000AA9      14D4       0  CODE        2
                text16                         000AA9  000042  000AEB      1552       0  CODE        2
                text30                         000AEB  000045  000B30      15D6       0  CODE        2
                text31                         000B30  000051  000B81      1660       0  CODE        2
                text4                          000B81  000060  000BE1      1702       0  CODE        2
                text11                         000BE1  000064  000C45      17C2       0  CODE        2
                text13                         000C45  000082  000CC7      188A       0  CODE        2
                text21                         000CC7  000087  000D4E      198E       0  CODE        2
                text15                         000D4E  0000A5  000DF3      1A9C       0  CODE        2
                text10                         000DF3  0000A9  000E9C      1BE6       0  CODE        2
                text2                          000E9C  0000B0  000F4C      1D38       0  CODE        2
                text5                          000F4C  0000B4  001000      1E98       0  CODE        2
                stringtext                     001000  000049  001049      2000       0  STRCODE     2


UNUSED ADDRESS RANGES

        Name                Unused          Largest block    Delta
        BANK1            00ED-00EF              3           1
        BANK10           0520-054F             30           1
        BANK3            01DB-01EF             15           1
        BANK5            02A0-02EF             50           1
        BANK6            0320-036F             50           1
        BANK7            03A0-03EF             50           1
        BANK8            0420-046F             50           1
        BANK9            04A0-04EF             50           1
        BIGRAM           2000-23EF            3F0           1
        CODE             0005-0005              1           2
                         0800-0845             46
                         1049-1FFF            7B7
        CONFIG           8007-800B              5           2
        CONST            0005-0005              1           2
                         0800-0845             46
                         1049-1FFF            100
        EEDATA           F000-F0FF            100           2
        ENTRY            0005-0005              1           2
                         0800-0845             46
                         1049-1FFF            100
        IDLOC            8000-8003              4           2
        RAM              00ED-00EF              3           1
                         01DB-01EF             15
                         02A0-02EF             50
                         0320-036F             50
                         03A0-03EF             50
                         0420-046F             50
                         04A0-04EF             50
                         0520-054F             30
        SFR0             0000-001F             20           1
        SFR1             0080-009F             20           1
        SFR10            0500-051F             20           1
        SFR11            0580-059F             20           1
        SFR12            0600-061F             20           1
        SFR13            0680-06EF             70           1
        SFR14            0700-076F             70           1
        SFR15            0780-07EF             70           1
        SFR16            0800-086F             70           1
        SFR17            0880-08EF             70           1
        SFR18            0900-096F             70           1
        SFR19            0980-09EF             70           1
        SFR2             0100-011F             20           1
        SFR20            0A00-0A6F             70           1
        SFR21            0A80-0AEF             70           1
        SFR22            0B00-0B6F             70           1
        SFR23            0B80-0BEF             70           1
        SFR24            0C00-0C6F             70           1
        SFR25            0C80-0CEF             70           1
        SFR26            0D00-0D6F             70           1
        SFR27            0D80-0DEF             70           1
        SFR28            0E00-0E6F             70           1
        SFR29            0E80-0EEF             70           1
        SFR3             0180-019F             20           1
        SFR30            0F00-0F6F             70           1
        SFR31            0F80-0FEF             70           1
        SFR4             0200-021F             20           1
        SFR5             0280-029F             20           1
        SFR6             0300-031F             20           1
        SFR7             0380-039F             20           1
        SFR8             0400-041F             20           1
        SFR9             0480-049F             20           1
        STRCODE          0005-0005              1           2
                         0800-0845             46
                         1049-1FFF            FB7
        STRING           0005-0005              1           2
                         0800-0845             46
                         1049-1FFF            100

                                  Symbol Table

__CFG_BOREN$ON                   (abs)        0000
__CFG_BORV$LO                    (abs)        0000
__CFG_CLKOUTEN$OFF               (abs)        0000
__CFG_CP$OFF                     (abs)        0000
__CFG_CPD$OFF                    (abs)        0000
__CFG_CSWEN$ON                   (abs)        0000
__CFG_FCMEN$ON                   (abs)        0000
__CFG_FEXTOSC$OFF                (abs)        0000
__CFG_LPBOREN$OFF                (abs)        0000
__CFG_LVP$ON                     (abs)        0000
__CFG_MCLRE$ON                   (abs)        0000
__CFG_PPS1WAY$ON                 (abs)        0000
__CFG_PWRTE$OFF                  (abs)        0000
__CFG_RSTOSC$HFINT32             (abs)        0000
__CFG_SCANE$not_available        (abs)        0000
__CFG_STVREN$ON                  (abs)        0000
__CFG_WDTCCS$SC                  (abs)        0000
__CFG_WDTCPS$WDTCPS_31           (abs)        0000
__CFG_WDTCWS$WDTCWS_7            (abs)        0000
__CFG_WDTE$OFF                   (abs)        0000
__CFG_WRT$OFF                    (abs)        0000
__CFG_ZCD$OFF                    (abs)        0000
__Habs1                          abs1         0000
__Hbank0                         bank0        0000
__Hbank1                         bank1        0000
__Hbank10                        bank10       0000
__Hbank11                        bank11       0000
__Hbank12                        bank12       0000
__Hbank13                        bank13       0000
__Hbank14                        bank14       0000
__Hbank15                        bank15       0000
__Hbank16                        bank16       0000
__Hbank17                        bank17       0000
__Hbank18                        bank18       0000
__Hbank19                        bank19       0000
__Hbank2                         bank2        0000
__Hbank20                        bank20       0000
__Hbank21                        bank21       0000
__Hbank22                        bank22       0000
__Hbank23                        bank23       0000
__Hbank24                        bank24       0000
__Hbank25                        bank25       0000
__Hbank26                        bank26       0000
__Hbank27                        bank27       0000
__Hbank28                        bank28       0000
__Hbank29                        bank29       0000
__Hbank3                         bank3        0000
__Hbank30                        bank30       0000
__Hbank31                        bank31       0000
__Hbank4                         bank4        0000
__Hbank5                         bank5        0000
__Hbank6                         bank6        0000
__Hbank7                         bank7        0000
__Hbank8                         bank8        0000
__Hbank9                         bank9        0000
__Hbigram                        bigram       0000
__HbssBANK1                      bssBANK1     0000
__HbssBANK3                      bssBANK3     0000
__HbssBANK4                      bssBANK4     0000
__Hclrtext                       clrtext      0000
__Hcode                          code         0000
__Hcommon                        common       0000
__Hconfig                        config       0000
__HcstackBANK0                   cstackBANK0  0000
__HcstackBANK1                   cstackBANK1  0000
__HcstackBANK2                   cstackBANK2  0000
__HcstackBANK3                   cstackBANK3  0000
__HcstackCOMMON                  cstackCOMMON 0000
__HdataBANK1                     dataBANK1    0000
__HdataBANK3                     dataBANK3    0000
__Heeprom_data                   eeprom_data  0000
__Hfunctab                       functab      0000
__HidataBANK1                    idataBANK1   0000
__HidataBANK3                    idataBANK3   0000
__Hidloc                         idloc        0000
__Hinittext                      inittext     0000
__Hmaintext                      maintext     0000
__Hpowerup                       powerup      0000
__Hram                           ram          0000
__Hsfr0                          sfr0         0000
__Hsfr1                          sfr1         0000
__Hsfr10                         sfr10        0000
__Hsfr11                         sfr11        0000
__Hsfr12                         sfr12        0000
__Hsfr13                         sfr13        0000
__Hsfr14                         sfr14        0000
__Hsfr15                         sfr15        0000
__Hsfr16                         sfr16        0000
__Hsfr17                         sfr17        0000
__Hsfr18                         sfr18        0000
__Hsfr19                         sfr19        0000
__Hsfr2                          sfr2         0000
__Hsfr20                         sfr20        0000
__Hsfr21                         sfr21        0000
__Hsfr22                         sfr22        0000
__Hsfr23                         sfr23        0000
__Hsfr24                         sfr24        0000
__Hsfr25                         sfr25        0000
__Hsfr26                         sfr26        0000
__Hsfr27                         sfr27        0000
__Hsfr28                         sfr28        0000
__Hsfr29                         sfr29        0000
__Hsfr3                          sfr3         0000
__Hsfr30                         sfr30        0000
__Hsfr31                         sfr31        0000
__Hsfr4                          sfr4         0000
__Hsfr5                          sfr5         0000
__Hsfr6                          sfr6         0000
__Hsfr7                          sfr7         0000
__Hsfr8                          sfr8         0000
__Hsfr9                          sfr9         0000
__Hspace_2                       (abs)        0000
__Hspace_3                       (abs)        0000
__Hstack                         stack        0000
__Hstrings                       strings      0000
__Hstringtext                    stringtext   0000
__Htext                          text         0000
__Labs1                          abs1         0000
__Lbank0                         bank0        0000
__Lbank1                         bank1        0000
__Lbank10                        bank10       0000
__Lbank11                        bank11       0000
__Lbank12                        bank12       0000
__Lbank13                        bank13       0000
__Lbank14                        bank14       0000
__Lbank15                        bank15       0000
__Lbank16                        bank16       0000
__Lbank17                        bank17       0000
__Lbank18                        bank18       0000
__Lbank19                        bank19       0000
__Lbank2                         bank2        0000
__Lbank20                        bank20       0000
__Lbank21                        bank21       0000
__Lbank22                        bank22       0000
__Lbank23                        bank23       0000
__Lbank24                        bank24       0000
__Lbank25                        bank25       0000
__Lbank26                        bank26       0000
__Lbank27                        bank27       0000
__Lbank28                        bank28       0000
__Lbank29                        bank29       0000
__Lbank3                         bank3        0000
__Lbank30                        bank30       0000
__Lbank31                        bank31       0000
__Lbank4                         bank4        0000
__Lbank5                         bank5        0000
__Lbank6                         bank6        0000
__Lbank7                         bank7        0000
__Lbank8                         bank8        0000
__Lbank9                         bank9        0000
__Lbigram                        bigram       0000
__LbssBANK1                      bssBANK1     0000
__LbssBANK3                      bssBANK3     0000
__LbssBANK4                      bssBANK4     0000
__Lclrtext                       clrtext      0000
__Lcode                          code         0000
__Lcommon                        common       0000
__Lconfig                        config       0000
__LcstackBANK0                   cstackBANK0  0000
__LcstackBANK1                   cstackBANK1  0000
__LcstackBANK2                   cstackBANK2  0000
__LcstackBANK3                   cstackBANK3  0000
__LcstackCOMMON                  cstackCOMMON 0000
__LdataBANK1                     dataBANK1    0000
__LdataBANK3                     dataBANK3    0000
__Leeprom_data                   eeprom_data  0000
__Lfunctab                       functab      0000
__LidataBANK1                    idataBANK1   0000
__LidataBANK3                    idataBANK3   0000
__Lidloc                         idloc        0000
__Linittext                      inittext     0000
__Lmaintext                      maintext     0000
__Lpowerup                       powerup      0000
__Lram                           ram          0000
__Lreset_vec                     reset_vec    0000
__Lsfr0                          sfr0         0000
__Lsfr1                          sfr1         0000
__Lsfr10                         sfr10        0000
__Lsfr11                         sfr11        0000
__Lsfr12                         sfr12        0000
__Lsfr13                         sfr13        0000
__Lsfr14                         sfr14        0000
__Lsfr15                         sfr15        0000
__Lsfr16                         sfr16        0000
__Lsfr17                         sfr17        0000
__Lsfr18                         sfr18        0000
__Lsfr19                         sfr19        0000
__Lsfr2                          sfr2         0000
__Lsfr20                         sfr20        0000
__Lsfr21                         sfr21        0000
__Lsfr22                         sfr22        0000
__Lsfr23                         sfr23        0000
__Lsfr24                         sfr24        0000
__Lsfr25                         sfr25        0000
__Lsfr26                         sfr26        0000
__Lsfr27                         sfr27        0000
__Lsfr28                         sfr28        0000
__Lsfr29                         sfr29        0000
__Lsfr3                          sfr3         0000
__Lsfr30                         sfr30        0000
__Lsfr31                         sfr31        0000
__Lsfr4                          sfr4         0000
__Lsfr5                          sfr5         0000
__Lsfr6                          sfr6         0000
__Lsfr7                          sfr7         0000
__Lsfr8                          sfr8         0000
__Lsfr9                          sfr9         0000
__Lspace_0                       (abs)        0000
__Lspace_1                       (abs)        0000
__Lspace_2                       (abs)        0000
__Lspace_3                       (abs)        0000
__Lstack                         stack        0000
__Lstrings                       strings      0000
__Lstringtext                    stringtext   0000
__Ltext                          text         0000
__S3                             (abs)        0000
___int_sp                        stack        0000
___sp                            stack        0000
__size_of_ADCC_Initialize        (abs)        0000
__size_of_ADCRead                (abs)        0000
__size_of_InitCustomChars        (abs)        0000
__size_of_LCD_Clear              (abs)        0000
__size_of_LCD_Cmd                (abs)        0000
__size_of_LCD_Init               (abs)        0000
__size_of_LCD_Port               (abs)        0000
__size_of_LCD_Set_Cursor         (abs)        0000
__size_of_LCD_Write_Char         (abs)        0000
__size_of_LCD_Write_Int          (abs)        0000
__size_of_LCD_Write_String       (abs)        0000
__size_of_OSCILLATOR_Initialize  (abs)        0000
__size_of_PID_Calculate          (abs)        0000
__size_of_PIN_MANAGER_Initialize (abs)        0000
__size_of_PWM7_LoadDutyValue     (abs)        0000
__size_of_PWM_Initialize         (abs)        0000
__size_of_SYSTEM_Initialize      (abs)        0000
__size_of_TMR2_Initialize        (abs)        0000
__size_of___aldiv                (abs)        0000
__size_of___awdiv                (abs)        0000
__size_of___awmod                (abs)        0000
__size_of___awtoft               (abs)        0000
__size_of___ftadd                (abs)        0000
__size_of___ftdiv                (abs)        0000
__size_of___ftge                 (abs)        0000
__size_of___ftmul                (abs)        0000
__size_of___ftpack               (abs)        0000
__size_of___ftsub                (abs)        0000
__size_of___fttol                (abs)        0000
__size_of___wmul                 (abs)        0000
__size_of_eval_poly              (abs)        0000
__size_of_frexp                  (abs)        0000
__size_of_log                    (abs)        0000
__size_of_main                   (abs)        0000
__size_of_readAnalog             (abs)        0000
__size_of_tempCalc               (abs)        0000
_set                                              
intlevel0                        functab      0000
intlevel1                        functab      0000
intlevel2                        functab      0000
intlevel3                        functab      0000
intlevel4                        functab      0000
intlevel5                        functab      0000
reset_vec                        reset_vec    0000
stackhi                          (abs)        0000
stacklo                          (abs)        0000
___latbits                       (abs)        0002
__Hinit                          init         0002
__Hintentry                      intentry     0002
__Hreset_vec                     reset_vec    0002
__Lend_init                      end_init     0002
__Linit                          init         0002
__Lintentry                      intentry     0002
start                            init         0002
__Hend_init                      end_init     0005
_LCD_Port                        text35       0006
__ptext35                        text35       0006
_TRISA                           (abs)        0011
_TRISB                           (abs)        0012
_TRISC                           (abs)        0013
_LATA                            (abs)        0016
_LATB                            (abs)        0017
_LATC                            (abs)        0018
?___ftmul                        cstackBANK0  0020
___aldiv@counter                 cstackBANK0  0020
___ftmul@f1                      cstackBANK0  0020
__pcstackBANK0                   cstackBANK0  0020
___aldiv@sign                    cstackBANK0  0021
___aldiv@quotient                cstackBANK0  0022
___ftmul@f2                      cstackBANK0  0023
LCD_Write_Int@str                cstackBANK0  0025
?_readAnalog                     cstackBANK0  0026
readAnalog@channel               cstackBANK0  0026
LCD_Write_Int@j                  cstackBANK0  002A
___ftmul@exp                     cstackBANK0  002A
___ftmul@f3_as_product           cstackBANK0  002B
LCD_Write_Int@i                  cstackBANK0  002C
___ftmul@cntr                    cstackBANK0  002E
___ftmul@sign                    cstackBANK0  002F
?___ftdiv                        cstackBANK0  0030
___ftdiv@f2                      cstackBANK0  0030
___ftdiv@f1                      cstackBANK0  0033
___ftdiv@cntr                    cstackBANK0  003A
___ftdiv@f3                      cstackBANK0  003B
_LCD_Write_Int                   text29       001E
__end_of_LCD_Port                text35       001E
__ptext29                        text29       001E
___ftdiv@exp                     cstackBANK0  003E
___ftdiv@sign                    cstackBANK0  003F
?___ftadd                        cstackBANK0  0040
___ftadd@f1                      cstackBANK0  0040
___ftadd@f2                      cstackBANK0  0043
___ftadd@sign                    cstackBANK0  004A
___ftadd@exp2                    cstackBANK0  004B
___ftadd@exp1                    cstackBANK0  004C
?___ftsub                        cstackBANK0  004D
?_eval_poly                      cstackBANK0  004D
___ftsub@f2                      cstackBANK0  004D
eval_poly@x                      cstackBANK0  004D
___ftsub@f1                      cstackBANK0  0050
eval_poly@d                      cstackBANK0  0050
eval_poly@n                      cstackBANK0  0052
eval_poly@res                    cstackBANK0  0054
?_log                            cstackBANK0  0057
log@x                            cstackBANK0  0057
log@exponent                     cstackBANK0  005B
?_tempCalc                       cstackBANK0  005D
tempCalc@analogValue             cstackBANK0  005D
_GIE                             (abs)        005F
_RA0                             (abs)        0060
tempCalc@R                       cstackBANK0  0060
_RA2                             (abs)        0062
_tempCalc$1008                   cstackBANK0  0063
_RA6                             (abs)        0066
tempCalc@steinhart               cstackBANK0  0066
_RA7                             (abs)        0067
_RB0                             (abs)        0068
?___fttol                        cstackBANK0  0069
_RB1                             (abs)        0069
___fttol@f1                      cstackBANK0  0069
_RB2                             (abs)        006A
main@bCount                      cstackBANK0  006D
main@x                           cstackBANK0  006F
?_ADCRead                        cstackCOMMON 0070
?___aldiv                        cstackCOMMON 0070
?___awdiv                        cstackCOMMON 0070
?___awmod                        cstackCOMMON 0070
?___ftpack                       cstackCOMMON 0070
?___wmul                         cstackCOMMON 0070
?_frexp                          cstackCOMMON 0070
LCD_Port@a                       cstackCOMMON 0070
PIN_MANAGER_Initialize@state     cstackCOMMON 0070
PWM7_LoadDutyValue@dutyCycle7    cstackCOMMON 0070
_RC0                             (abs)        0070
___aldiv@divisor                 cstackCOMMON 0070
___awdiv@divisor                 cstackCOMMON 0070
___awmod@divisor                 cstackCOMMON 0070
___ftge@ff1                      cstackCOMMON 0070
___ftpack@arg                    cstackCOMMON 0070
___wmul@multiplier               cstackCOMMON 0070
__pcstackCOMMON                  cstackCOMMON 0070
frexp@value                      cstackCOMMON 0070
_RC1                             (abs)        0071
LCD_Write_Char@temp              cstackCOMMON 0072
___awdiv@dividend                cstackCOMMON 0072
___awmod@dividend                cstackCOMMON 0072
___wmul@multiplicand             cstackCOMMON 0072
ADCRead@channel                  cstackCOMMON 0073
LCD_Cmd@a                        cstackCOMMON 0073
LCD_Write_Char@y                 cstackCOMMON 0073
___ftge@ff2                      cstackCOMMON 0073
___ftpack@exp                    cstackCOMMON 0073
frexp@eptr                       cstackCOMMON 0073
LCD_Set_Cursor@y                 cstackCOMMON 0074
LCD_Write_Char@a                 cstackCOMMON 0074
___aldiv@dividend                cstackCOMMON 0074
___ftpack@sign                   cstackCOMMON 0074
___wmul@product                  cstackCOMMON 0074
LCD_Write_String@a               cstackCOMMON 0075
___awdiv@counter                 cstackCOMMON 0075
___awmod@counter                 cstackCOMMON 0075
?_PID_Calculate                  cstackCOMMON 0076
InitCustomChars@i                cstackCOMMON 0076
PID_Calculate@setpoint           cstackCOMMON 0076
___awdiv@sign                    cstackCOMMON 0076
___awmod@sign                    cstackCOMMON 0076
LCD_Init@style                   cstackCOMMON 0077
LCD_Set_Cursor@x                 cstackCOMMON 0077
___awdiv@quotient                cstackCOMMON 0077
?___awtoft                       cstackCOMMON 0078
LCD_Set_Cursor@z                 cstackCOMMON 0078
LCD_Write_String@i               cstackCOMMON 0078
PID_Calculate@temp               cstackCOMMON 0078
___awtoft@c                      cstackCOMMON 0078
LCD_Set_Cursor@w                 cstackCOMMON 0079
LCD_Write_Int@value              cstackCOMMON 0079
readAnalog@analog_channel        cstackCOMMON 0079
LCD_Set_Cursor@temp              cstackCOMMON 007A
LCD_Write_Int@fieldLength        cstackCOMMON 007B
readAnalog@value                 cstackCOMMON 007B
LCD_Write_Int@numPlaces          cstackCOMMON 007C
LCD_Write_Int@sign               cstackCOMMON 007D
___awtoft@sign                   cstackCOMMON 007D
btemp                            (abs)        007E
ltemp                            (abs)        007E
ltemp0                           (abs)        007E
ttemp                            (abs)        007E
ttemp0                           (abs)        007E
wtemp                            (abs)        007E
wtemp0                           (abs)        007E
ttemp4                           (abs)        007F
wtemp6                           (abs)        007F
ltemp3                           (abs)        0080
wtemp1                           (abs)        0080
ttemp1                           (abs)        0081
ltemp1                           (abs)        0082
wtemp2                           (abs)        0082
ttemp2                           (abs)        0084
wtemp3                           (abs)        0084
ltemp2                           (abs)        0086
wtemp4                           (abs)        0086
ttemp3                           (abs)        0087
wtemp5                           (abs)        0088
_ADRESL                          (abs)        008C
_ADRESH                          (abs)        008D
_ADCON0                          (abs)        0093
_ADCON0bits                      (abs)        0093
_ADCON1                          (abs)        0094
_ADCON2                          (abs)        0095
_ADCON3                          (abs)        0096
_ADSTAT                          (abs)        0097
_ADCLK                           (abs)        0098
_ADACT                           (abs)        0099
_ADREF                           (abs)        009A
_ADCAP                           (abs)        009B
_ADPRE                           (abs)        009C
_ADACQ                           (abs)        009D
_ADPCH                           (abs)        009E
__pcstackBANK1                   cstackBANK1  00A0
___fttol@sign1                   cstackBANK1  00A4
___fttol@lval                    cstackBANK1  00A5
___fttol@exp1                    cstackBANK1  00A9
main@choice                      cstackBANK1  00B4
main@C_or_F                      cstackBANK1  00B5
main@startDelay                  cstackBANK1  00B6
main@resetDelay                  cstackBANK1  00B7
main@tPadCount                   cstackBANK1  00B8
main@set                         cstackBANK1  00B9
main@pitSetpoint                 cstackBANK1  00BA
main@output                      cstackBANK1  00BC
main@holdOutput                  cstackBANK1  00BE
main@lidOpenCount                cstackBANK1  00BF
main@loop                        cstackBANK1  00C0
main@dutyCycle7                  cstackBANK1  00C1
_LATC2                           (abs)        00C2
main@lastTemperature             cstackBANK1  00C3
main@pidPeriodCounter            cstackBANK1  00C5
main@currentTemperature          cstackBANK1  00C7
_Result                          bssBANK1     00C9
__pbssBANK1                      bssBANK1     00C9
_derivativeValue                 bssBANK1     00CB
_errno                           bssBANK1     00CD
_error                           bssBANK1     00CF
_errorValue                      bssBANK1     00D1
_lastSign                        bssBANK1     00D3
_pidCount                        bssBANK1     00D5
_pidIntegrated                   bssBANK1     00D7
_pidMinOutput                    bssBANK1     00D9
_pidPrevError                    bssBANK1     00DB
_sampleIndex                     bssBANK1     00DD
_signPositive                    bssBANK1     00DF
_timer                           bssBANK1     00E1
_delayCount                      bssBANK1     00E3
_key                             bssBANK1     00E4
_testKey                         bssBANK1     00E6
_Kd                              dataBANK1    00E7
__pdataBANK1                     dataBANK1    00E7
_Ki                              dataBANK1    00E9
_Kp                              dataBANK1    00EB
_ADRPT                           (abs)        010D
_ADLTHL                          (abs)        010E
_ADLTHH                          (abs)        010F
_ADUTHL                          (abs)        0110
_ADUTHH                          (abs)        0111
_ADSTPTL                         (abs)        0112
_ADSTPTH                         (abs)        0113
__pcstackBANK2                   cstackBANK2  0120
main@outputSamples               cstackBANK2  0120
___cgram                         dataBANK3    01A0
__pdataBANK3                     dataBANK3    01A0
_channels                        dataBANK3    01B8
_pidMaxOutput                    dataBANK3    01BC
__pbssBANK3                      bssBANK3     01BE
_totals                          bssBANK3     01BE
LCD_Write_Int@F13694             bssBANK3     01C6
main@F13664                      bssBANK3     01CB
_PID_Calculate                   text26       00E7
__end_of_LCD_Write_Int           text29       00E7
__ptext26                        text26       00E7
__pcstackBANK3                   cstackBANK3  01CF
main@outputTotal                 cstackBANK3  01CF
main@dutyCycle6                  cstackBANK3  01D3
main@analogs                     cstackBANK3  01D5
main@outputIndex                 cstackBANK3  01D9
main@j                           cstackBANK3  01DA
_CCPTMRS1bits                    (abs)        021F
__pbssBANK4                      bssBANK4     0220
main@F13671                      bssBANK4     0220
__Hspace_1                       (abs)        0270
__S1                             (abs)        0270
_T2TMR                           (abs)        028C
_T2PR                            (abs)        028D
_T2CON                           (abs)        028E
_T2CONbits                       (abs)        028E
_T2HLT                           (abs)        028F
_T2CLKCON                        (abs)        0290
_T2RST                           (abs)        0291
_PWM7DCL                         (abs)        0390
_PWM7DCH                         (abs)        0391
_PWM7CON                         (abs)        0392
___ftadd                         text9        01CC
__end_of_PID_Calculate           text26       01CC
__ptext9                         text9        01CC
__end_of___ftadd                 text9        02C2
__ptext1                         text1        02C2
_tempCalc                        text1        02C2
_PIR4bits                        (abs)        0710
_PIE0bits                        (abs)        0716
__end_of_tempCalc                text1        03D7
__ptext12                        text12       03D7
_readAnalog                      text12       03D7
_OSCCON1                         (abs)        088D
_OSCCON3                         (abs)        088F
_OSCEN                           (abs)        0891
_OSCTUNE                         (abs)        0892
_OSCFRQ                          (abs)        0893
_FVRCON                          (abs)        090C
__end_of_readAnalog              text12       0519
__pmaintext                      maintext     0519
_main                            maintext     0519
_PPSLOCK                         (abs)        0E8F
_PPSLOCKbits                     (abs)        0E8F
_RC3PPS                          (abs)        0F23
_ANSELA                          (abs)        0F38
_WPUA                            (abs)        0F39
_ANSELB                          (abs)        0F43
_WPUB                            (abs)        0F44
_ANSELC                          (abs)        0F4E
_WPUC                            (abs)        0F4F
_WPUE                            (abs)        0F65
__Lcinit                         cinit        07B6
__end_of_main                    maintext     07B6
__initialization                 cinit        07B6
start_initialization             cinit        07B6
__end_of__initialization         cinit        07FD
end_of_initialization            cinit        07FD
__Hcinit                         cinit        0800
__Hspace_0                       (abs)        1049
__S0                             (abs)        1049
__pidataBANK1                    idataBANK1   0846
_LCD_Clear                       text22       084C
__ptext22                        text22       084C
_OSCILLATOR_Initialize           text20       0854
__end_of_LCD_Clear               text22       0854
__ptext20                        text20       0854
_PWM_Initialize                  text18       085D
__end_of_OSCILLATOR_Initialize   text20       085D
__ptext18                        text18       085D
__end_of_PWM_Initialize          text18       0868
clear_ram0                       clrtext      0868
init_ram                         inittext     0874
_TMR2_Initialize                 text17       0880
__ptext17                        text17       0880
_ADCRead                         text14       088E
__end_of_TMR2_Initialize         text17       088E
__ptext14                        text14       088E
_LCD_Cmd                         text34       089C
__end_of_ADCRead                 text14       089C
__ptext34                        text34       089C
_PWM7_LoadDutyValue              text25       08B0
__end_of_LCD_Cmd                 text34       08B0
__ptext25                        text25       08B0
_LCD_Write_String                text28       08C6
__end_of_PWM7_LoadDutyValue      text25       08C6
__ptext28                        text28       08C6
_ADCC_Initialize                 text24       08E0
__end_of_LCD_Write_String        text28       08E0
__ptext24                        text24       08E0
___wmul                          text27       08FA
__end_of_ADCC_Initialize         text24       08FA
__ptext27                        text27       08FA
___ftsub                         text8        0915
__end_of___wmul                  text27       0915
__ptext8                         text8        0915
__end_of___ftsub                 text8        0933
__pidataBANK3                    idataBANK3   0933
___awtoft                        text7        0951
__ptext7                         text7        0951
_InitCustomChars                 text23       0971
__end_of___awtoft                text7        0971
__ptext23                        text23       0971
_LCD_Write_Char                  text32       0997
__end_of_InitCustomChars         text23       0997
__ptext32                        text32       0997
_PIN_MANAGER_Initialize          text19       09C3
__end_of_LCD_Write_Char          text32       09C3
__ptext19                        text19       09C3
___ftge                          text6        09F4
__end_of_PIN_MANAGER_Initialize  text19       09F4
__ptext6                         text6        09F4
__end_of___ftge                  text6        0A2F
__ptext3                         text3        0A2F
_frexp                           text3        0A2F
_LCD_Set_Cursor                  text33       0A6A
__end_of_frexp                   text3        0A6A
__ptext33                        text33       0A6A
_SYSTEM_Initialize               text16       0AA9
__end_of_LCD_Set_Cursor          text33       0AA9
__ptext16                        text16       0AA9
___awmod                         text30       0AEB
__end_of_SYSTEM_Initialize       text16       0AEB
__ptext30                        text30       0AEB
___awdiv                         text31       0B30
__end_of___awmod                 text30       0B30
__ptext31                        text31       0B30
__end_of___awdiv                 text31       0B81
__ptext4                         text4        0B81
_eval_poly                       text4        0B81
___ftpack                        text11       0BE1
__end_of_eval_poly               text4        0BE1
__ptext11                        text11       0BE1
___aldiv                         text13       0C45
__end_of___ftpack                text11       0C45
__ptext13                        text13       0C45
_LCD_Init                        text21       0CC7
__end_of___aldiv                 text13       0CC7
__ptext21                        text21       0CC7
___fttol                         text15       0D4E
__end_of_LCD_Init                text21       0D4E
__ptext15                        text15       0D4E
___ftdiv                         text10       0DF3
__end_of___fttol                 text15       0DF3
__ptext10                        text10       0DF3
__end_of___ftdiv                 text10       0E9C
__ptext2                         text2        0E9C
_log                             text2        0E9C
___ftmul                         text5        0F4C
__end_of_log                     text2        0F4C
__ptext5                         text5        0F4C
__end_of___ftmul                 text5        1000
__pstringtext                    stringtext   1000
__end_oflog@coeff                stringtext   101B
__pbssBIGRAM                     (abs)        2350
_samples                         (abs)        2350
log@coeff                        stringtext   1000
