

Microchip Technology PIC LITE Macro Assembler V1.38 build -256452561 
                                                                                               Wed Aug 30 21:24:49 2017

Microchip Technology Omniscient Code Generator v1.38 (Free mode) build 201607010351
     1                           	processor	16F18855
     2                           	opt	pw 120
     3                           	opt	lm
     4                           	psect	idataBIGRAM,global,class=CODE,delta=2
     5                           	psect	stringtext,global,class=STRCODE,delta=2
     6                           	psect	cinit,global,class=CODE,merge=1,delta=2
     7                           	psect	bssBANK0,global,class=BANK0,space=1,delta=1
     8                           	psect	inittext,global,class=CODE,delta=2
     9                           	psect	cstackCOMMON,global,class=COMMON,space=1,delta=1
    10                           	psect	cstackBANK0,global,class=BANK0,space=1,delta=1
    11                           	psect	maintext,global,class=CODE,merge=1,split=1,delta=2
    12                           	psect	text1,local,class=CODE,merge=1,delta=2
    13                           	psect	text2,local,class=CODE,merge=1,delta=2
    14                           	psect	text3,local,class=CODE,merge=1,delta=2
    15                           	psect	text4,local,class=CODE,merge=1,delta=2
    16                           	psect	text5,local,class=CODE,merge=1,delta=2
    17                           	psect	text6,local,class=CODE,merge=1,delta=2
    18                           	psect	text7,local,class=CODE,merge=1,delta=2
    19                           	psect	text8,local,class=CODE,merge=1,delta=2
    20                           	psect	text9,local,class=CODE,merge=1,delta=2
    21                           	dabs	1,0x620,48
    22                           	dabs	1,0x5A0,80
    23                           	dabs	1,0x520,80
    24                           	dabs	1,0x4A0,80
    25                           	dabs	1,0x420,80
    26                           	dabs	1,0x3A0,80
    27                           	dabs	1,0x350,32
    28                           	dabs	1,0x2210,0,_ASCII
    29                           	dabs	1,0x7E,2
    30  0000                     	;# 
    31  0001                     	;# 
    32  0002                     	;# 
    33  0003                     	;# 
    34  0004                     	;# 
    35  0005                     	;# 
    36  0006                     	;# 
    37  0007                     	;# 
    38  0008                     	;# 
    39  0009                     	;# 
    40  000A                     	;# 
    41  000B                     	;# 
    42  000C                     	;# 
    43  000D                     	;# 
    44  000E                     	;# 
    45  0010                     	;# 
    46  0011                     	;# 
    47  0012                     	;# 
    48  0013                     	;# 
    49  0016                     	;# 
    50  0017                     	;# 
    51  0018                     	;# 
    52  001C                     	;# 
    53  001C                     	;# 
    54  001D                     	;# 
    55  001D                     	;# 
    56  001E                     	;# 
    57  001F                     	;# 
    58  008C                     	;# 
    59  008C                     	;# 
    60  008D                     	;# 
    61  008E                     	;# 
    62  008E                     	;# 
    63  008F                     	;# 
    64  0090                     	;# 
    65  0090                     	;# 
    66  0091                     	;# 
    67  0093                     	;# 
    68  0094                     	;# 
    69  0095                     	;# 
    70  0096                     	;# 
    71  0097                     	;# 
    72  0098                     	;# 
    73  0099                     	;# 
    74  009A                     	;# 
    75  009B                     	;# 
    76  009C                     	;# 
    77  009D                     	;# 
    78  009E                     	;# 
    79  010C                     	;# 
    80  010D                     	;# 
    81  010E                     	;# 
    82  010E                     	;# 
    83  010F                     	;# 
    84  0110                     	;# 
    85  0110                     	;# 
    86  0111                     	;# 
    87  0112                     	;# 
    88  0112                     	;# 
    89  0113                     	;# 
    90  0114                     	;# 
    91  0114                     	;# 
    92  0115                     	;# 
    93  0116                     	;# 
    94  0116                     	;# 
    95  0117                     	;# 
    96  0119                     	;# 
    97  0119                     	;# 
    98  0119                     	;# 
    99  011A                     	;# 
   100  011A                     	;# 
   101  011A                     	;# 
   102  011B                     	;# 
   103  011B                     	;# 
   104  011B                     	;# 
   105  011B                     	;# 
   106  011B                     	;# 
   107  011C                     	;# 
   108  011C                     	;# 
   109  011C                     	;# 
   110  011D                     	;# 
   111  011D                     	;# 
   112  011D                     	;# 
   113  011E                     	;# 
   114  011E                     	;# 
   115  011E                     	;# 
   116  011F                     	;# 
   117  011F                     	;# 
   118  011F                     	;# 
   119  011F                     	;# 
   120  011F                     	;# 
   121  018C                     	;# 
   122  018D                     	;# 
   123  018E                     	;# 
   124  018F                     	;# 
   125  0190                     	;# 
   126  0191                     	;# 
   127  0192                     	;# 
   128  0196                     	;# 
   129  0197                     	;# 
   130  0198                     	;# 
   131  0199                     	;# 
   132  019A                     	;# 
   133  019B                     	;# 
   134  019C                     	;# 
   135  020C                     	;# 
   136  020D                     	;# 
   137  020E                     	;# 
   138  020F                     	;# 
   139  020F                     	;# 
   140  0210                     	;# 
   141  0210                     	;# 
   142  0211                     	;# 
   143  0211                     	;# 
   144  0212                     	;# 
   145  0213                     	;# 
   146  0214                     	;# 
   147  0215                     	;# 
   148  0215                     	;# 
   149  0216                     	;# 
   150  0216                     	;# 
   151  0217                     	;# 
   152  0217                     	;# 
   153  0218                     	;# 
   154  0219                     	;# 
   155  021A                     	;# 
   156  021B                     	;# 
   157  021B                     	;# 
   158  021C                     	;# 
   159  021C                     	;# 
   160  021D                     	;# 
   161  021D                     	;# 
   162  021E                     	;# 
   163  021F                     	;# 
   164  028C                     	;# 
   165  028C                     	;# 
   166  028D                     	;# 
   167  028D                     	;# 
   168  028E                     	;# 
   169  028F                     	;# 
   170  0290                     	;# 
   171  0290                     	;# 
   172  0291                     	;# 
   173  0292                     	;# 
   174  0292                     	;# 
   175  0293                     	;# 
   176  0293                     	;# 
   177  0294                     	;# 
   178  0295                     	;# 
   179  0296                     	;# 
   180  0296                     	;# 
   181  0297                     	;# 
   182  0298                     	;# 
   183  0298                     	;# 
   184  0299                     	;# 
   185  0299                     	;# 
   186  029A                     	;# 
   187  029B                     	;# 
   188  029C                     	;# 
   189  029C                     	;# 
   190  029D                     	;# 
   191  030C                     	;# 
   192  030C                     	;# 
   193  030D                     	;# 
   194  030E                     	;# 
   195  030F                     	;# 
   196  0310                     	;# 
   197  0310                     	;# 
   198  0311                     	;# 
   199  0312                     	;# 
   200  0313                     	;# 
   201  0314                     	;# 
   202  0314                     	;# 
   203  0315                     	;# 
   204  0316                     	;# 
   205  0317                     	;# 
   206  0318                     	;# 
   207  0318                     	;# 
   208  0319                     	;# 
   209  031A                     	;# 
   210  031B                     	;# 
   211  031C                     	;# 
   212  031C                     	;# 
   213  031D                     	;# 
   214  031E                     	;# 
   215  031F                     	;# 
   216  038C                     	;# 
   217  038D                     	;# 
   218  038E                     	;# 
   219  0390                     	;# 
   220  0391                     	;# 
   221  0392                     	;# 
   222  040C                     	;# 
   223  040D                     	;# 
   224  040E                     	;# 
   225  040F                     	;# 
   226  0410                     	;# 
   227  0411                     	;# 
   228  0416                     	;# 
   229  0416                     	;# 
   230  0417                     	;# 
   231  0418                     	;# 
   232  0418                     	;# 
   233  0419                     	;# 
   234  041A                     	;# 
   235  041A                     	;# 
   236  041B                     	;# 
   237  041C                     	;# 
   238  041C                     	;# 
   239  041D                     	;# 
   240  041E                     	;# 
   241  041F                     	;# 
   242  048C                     	;# 
   243  048C                     	;# 
   244  048D                     	;# 
   245  048E                     	;# 
   246  048F                     	;# 
   247  048F                     	;# 
   248  0490                     	;# 
   249  0491                     	;# 
   250  0492                     	;# 
   251  0492                     	;# 
   252  0493                     	;# 
   253  0494                     	;# 
   254  0495                     	;# 
   255  0495                     	;# 
   256  0496                     	;# 
   257  0497                     	;# 
   258  0498                     	;# 
   259  0499                     	;# 
   260  049A                     	;# 
   261  049B                     	;# 
   262  049C                     	;# 
   263  049D                     	;# 
   264  050C                     	;# 
   265  050C                     	;# 
   266  050D                     	;# 
   267  050E                     	;# 
   268  050F                     	;# 
   269  050F                     	;# 
   270  0510                     	;# 
   271  0511                     	;# 
   272  0512                     	;# 
   273  0512                     	;# 
   274  0513                     	;# 
   275  0514                     	;# 
   276  0515                     	;# 
   277  0515                     	;# 
   278  0516                     	;# 
   279  0517                     	;# 
   280  0518                     	;# 
   281  0519                     	;# 
   282  051A                     	;# 
   283  051B                     	;# 
   284  051C                     	;# 
   285  051D                     	;# 
   286  058C                     	;# 
   287  058C                     	;# 
   288  058D                     	;# 
   289  058E                     	;# 
   290  058F                     	;# 
   291  058F                     	;# 
   292  0590                     	;# 
   293  0591                     	;# 
   294  0592                     	;# 
   295  0593                     	;# 
   296  060C                     	;# 
   297  060D                     	;# 
   298  060E                     	;# 
   299  060F                     	;# 
   300  0610                     	;# 
   301  0611                     	;# 
   302  0612                     	;# 
   303  0613                     	;# 
   304  0614                     	;# 
   305  0616                     	;# 
   306  0617                     	;# 
   307  0618                     	;# 
   308  0619                     	;# 
   309  061A                     	;# 
   310  061B                     	;# 
   311  061C                     	;# 
   312  061D                     	;# 
   313  061E                     	;# 
   314  068C                     	;# 
   315  068D                     	;# 
   316  068E                     	;# 
   317  068F                     	;# 
   318  0690                     	;# 
   319  0691                     	;# 
   320  0692                     	;# 
   321  0693                     	;# 
   322  0694                     	;# 
   323  070C                     	;# 
   324  070D                     	;# 
   325  070E                     	;# 
   326  070F                     	;# 
   327  0710                     	;# 
   328  0711                     	;# 
   329  0712                     	;# 
   330  0713                     	;# 
   331  0714                     	;# 
   332  0716                     	;# 
   333  0717                     	;# 
   334  0718                     	;# 
   335  0719                     	;# 
   336  071A                     	;# 
   337  071B                     	;# 
   338  071C                     	;# 
   339  071D                     	;# 
   340  071E                     	;# 
   341  0796                     	;# 
   342  0797                     	;# 
   343  0798                     	;# 
   344  0799                     	;# 
   345  079A                     	;# 
   346  079B                     	;# 
   347  080C                     	;# 
   348  080D                     	;# 
   349  080E                     	;# 
   350  080F                     	;# 
   351  0810                     	;# 
   352  0811                     	;# 
   353  0812                     	;# 
   354  0813                     	;# 
   355  0814                     	;# 
   356  081A                     	;# 
   357  081B                     	;# 
   358  081C                     	;# 
   359  081D                     	;# 
   360  081E                     	;# 
   361  081F                     	;# 
   362  088C                     	;# 
   363  088D                     	;# 
   364  088E                     	;# 
   365  088F                     	;# 
   366  0890                     	;# 
   367  0891                     	;# 
   368  0892                     	;# 
   369  0893                     	;# 
   370  0895                     	;# 
   371  0896                     	;# 
   372  0897                     	;# 
   373  0898                     	;# 
   374  0899                     	;# 
   375  089A                     	;# 
   376  089B                     	;# 
   377  090C                     	;# 
   378  090E                     	;# 
   379  090F                     	;# 
   380  091F                     	;# 
   381  091F                     	;# 
   382  098F                     	;# 
   383  098F                     	;# 
   384  0990                     	;# 
   385  0991                     	;# 
   386  0992                     	;# 
   387  0993                     	;# 
   388  0994                     	;# 
   389  0995                     	;# 
   390  0996                     	;# 
   391  0997                     	;# 
   392  0E0F                     	;# 
   393  0E10                     	;# 
   394  0E11                     	;# 
   395  0E12                     	;# 
   396  0E13                     	;# 
   397  0E14                     	;# 
   398  0E15                     	;# 
   399  0E16                     	;# 
   400  0E17                     	;# 
   401  0E18                     	;# 
   402  0E19                     	;# 
   403  0E1A                     	;# 
   404  0E1B                     	;# 
   405  0E1C                     	;# 
   406  0E1D                     	;# 
   407  0E1E                     	;# 
   408  0E1F                     	;# 
   409  0E20                     	;# 
   410  0E21                     	;# 
   411  0E22                     	;# 
   412  0E23                     	;# 
   413  0E24                     	;# 
   414  0E25                     	;# 
   415  0E26                     	;# 
   416  0E27                     	;# 
   417  0E28                     	;# 
   418  0E29                     	;# 
   419  0E2A                     	;# 
   420  0E2B                     	;# 
   421  0E2C                     	;# 
   422  0E2D                     	;# 
   423  0E2E                     	;# 
   424  0E2F                     	;# 
   425  0E30                     	;# 
   426  0E31                     	;# 
   427  0E32                     	;# 
   428  0E33                     	;# 
   429  0E34                     	;# 
   430  0E35                     	;# 
   431  0E36                     	;# 
   432  0E37                     	;# 
   433  0E8F                     	;# 
   434  0E90                     	;# 
   435  0E91                     	;# 
   436  0E92                     	;# 
   437  0E93                     	;# 
   438  0E94                     	;# 
   439  0E95                     	;# 
   440  0E96                     	;# 
   441  0E97                     	;# 
   442  0E9C                     	;# 
   443  0E9D                     	;# 
   444  0E9E                     	;# 
   445  0EA1                     	;# 
   446  0EA2                     	;# 
   447  0EA3                     	;# 
   448  0EA4                     	;# 
   449  0EA5                     	;# 
   450  0EA9                     	;# 
   451  0EAA                     	;# 
   452  0EAB                     	;# 
   453  0EAC                     	;# 
   454  0EB1                     	;# 
   455  0EB2                     	;# 
   456  0EB3                     	;# 
   457  0EB8                     	;# 
   458  0EB9                     	;# 
   459  0EBA                     	;# 
   460  0EBB                     	;# 
   461  0EBC                     	;# 
   462  0EBD                     	;# 
   463  0EBE                     	;# 
   464  0EC3                     	;# 
   465  0EC5                     	;# 
   466  0EC6                     	;# 
   467  0EC7                     	;# 
   468  0EC8                     	;# 
   469  0EC9                     	;# 
   470  0ECA                     	;# 
   471  0ECB                     	;# 
   472  0ECC                     	;# 
   473  0F10                     	;# 
   474  0F11                     	;# 
   475  0F12                     	;# 
   476  0F13                     	;# 
   477  0F14                     	;# 
   478  0F15                     	;# 
   479  0F16                     	;# 
   480  0F17                     	;# 
   481  0F18                     	;# 
   482  0F19                     	;# 
   483  0F1A                     	;# 
   484  0F1B                     	;# 
   485  0F1C                     	;# 
   486  0F1D                     	;# 
   487  0F1E                     	;# 
   488  0F1F                     	;# 
   489  0F20                     	;# 
   490  0F21                     	;# 
   491  0F22                     	;# 
   492  0F23                     	;# 
   493  0F24                     	;# 
   494  0F25                     	;# 
   495  0F26                     	;# 
   496  0F27                     	;# 
   497  0F38                     	;# 
   498  0F39                     	;# 
   499  0F3A                     	;# 
   500  0F3B                     	;# 
   501  0F3C                     	;# 
   502  0F3D                     	;# 
   503  0F3E                     	;# 
   504  0F3F                     	;# 
   505  0F40                     	;# 
   506  0F41                     	;# 
   507  0F43                     	;# 
   508  0F44                     	;# 
   509  0F45                     	;# 
   510  0F46                     	;# 
   511  0F47                     	;# 
   512  0F48                     	;# 
   513  0F49                     	;# 
   514  0F4A                     	;# 
   515  0F4B                     	;# 
   516  0F4C                     	;# 
   517  0F4E                     	;# 
   518  0F4F                     	;# 
   519  0F50                     	;# 
   520  0F51                     	;# 
   521  0F52                     	;# 
   522  0F53                     	;# 
   523  0F54                     	;# 
   524  0F55                     	;# 
   525  0F56                     	;# 
   526  0F57                     	;# 
   527  0F65                     	;# 
   528  0F68                     	;# 
   529  0F69                     	;# 
   530  0F6A                     	;# 
   531  0F6B                     	;# 
   532  0FE4                     	;# 
   533  0FE5                     	;# 
   534  0FE6                     	;# 
   535  0FE7                     	;# 
   536  0FE8                     	;# 
   537  0FE9                     	;# 
   538  0FEA                     	;# 
   539  0FEB                     	;# 
   540  0FED                     	;# 
   541  0FEE                     	;# 
   542  0FEF                     	;# 
   543  0000                     	;# 
   544  0001                     	;# 
   545  0002                     	;# 
   546  0003                     	;# 
   547  0004                     	;# 
   548  0005                     	;# 
   549  0006                     	;# 
   550  0007                     	;# 
   551  0008                     	;# 
   552  0009                     	;# 
   553  000A                     	;# 
   554  000B                     	;# 
   555  000C                     	;# 
   556  000D                     	;# 
   557  000E                     	;# 
   558  0010                     	;# 
   559  0011                     	;# 
   560  0012                     	;# 
   561  0013                     	;# 
   562  0016                     	;# 
   563  0017                     	;# 
   564  0018                     	;# 
   565  001C                     	;# 
   566  001C                     	;# 
   567  001D                     	;# 
   568  001D                     	;# 
   569  001E                     	;# 
   570  001F                     	;# 
   571  008C                     	;# 
   572  008C                     	;# 
   573  008D                     	;# 
   574  008E                     	;# 
   575  008E                     	;# 
   576  008F                     	;# 
   577  0090                     	;# 
   578  0090                     	;# 
   579  0091                     	;# 
   580  0093                     	;# 
   581  0094                     	;# 
   582  0095                     	;# 
   583  0096                     	;# 
   584  0097                     	;# 
   585  0098                     	;# 
   586  0099                     	;# 
   587  009A                     	;# 
   588  009B                     	;# 
   589  009C                     	;# 
   590  009D                     	;# 
   591  009E                     	;# 
   592  010C                     	;# 
   593  010D                     	;# 
   594  010E                     	;# 
   595  010E                     	;# 
   596  010F                     	;# 
   597  0110                     	;# 
   598  0110                     	;# 
   599  0111                     	;# 
   600  0112                     	;# 
   601  0112                     	;# 
   602  0113                     	;# 
   603  0114                     	;# 
   604  0114                     	;# 
   605  0115                     	;# 
   606  0116                     	;# 
   607  0116                     	;# 
   608  0117                     	;# 
   609  0119                     	;# 
   610  0119                     	;# 
   611  0119                     	;# 
   612  011A                     	;# 
   613  011A                     	;# 
   614  011A                     	;# 
   615  011B                     	;# 
   616  011B                     	;# 
   617  011B                     	;# 
   618  011B                     	;# 
   619  011B                     	;# 
   620  011C                     	;# 
   621  011C                     	;# 
   622  011C                     	;# 
   623  011D                     	;# 
   624  011D                     	;# 
   625  011D                     	;# 
   626  011E                     	;# 
   627  011E                     	;# 
   628  011E                     	;# 
   629  011F                     	;# 
   630  011F                     	;# 
   631  011F                     	;# 
   632  011F                     	;# 
   633  011F                     	;# 
   634  018C                     	;# 
   635  018D                     	;# 
   636  018E                     	;# 
   637  018F                     	;# 
   638  0190                     	;# 
   639  0191                     	;# 
   640  0192                     	;# 
   641  0196                     	;# 
   642  0197                     	;# 
   643  0198                     	;# 
   644  0199                     	;# 
   645  019A                     	;# 
   646  019B                     	;# 
   647  019C                     	;# 
   648  020C                     	;# 
   649  020D                     	;# 
   650  020E                     	;# 
   651  020F                     	;# 
   652  020F                     	;# 
   653  0210                     	;# 
   654  0210                     	;# 
   655  0211                     	;# 
   656  0211                     	;# 
   657  0212                     	;# 
   658  0213                     	;# 
   659  0214                     	;# 
   660  0215                     	;# 
   661  0215                     	;# 
   662  0216                     	;# 
   663  0216                     	;# 
   664  0217                     	;# 
   665  0217                     	;# 
   666  0218                     	;# 
   667  0219                     	;# 
   668  021A                     	;# 
   669  021B                     	;# 
   670  021B                     	;# 
   671  021C                     	;# 
   672  021C                     	;# 
   673  021D                     	;# 
   674  021D                     	;# 
   675  021E                     	;# 
   676  021F                     	;# 
   677  028C                     	;# 
   678  028C                     	;# 
   679  028D                     	;# 
   680  028D                     	;# 
   681  028E                     	;# 
   682  028F                     	;# 
   683  0290                     	;# 
   684  0290                     	;# 
   685  0291                     	;# 
   686  0292                     	;# 
   687  0292                     	;# 
   688  0293                     	;# 
   689  0293                     	;# 
   690  0294                     	;# 
   691  0295                     	;# 
   692  0296                     	;# 
   693  0296                     	;# 
   694  0297                     	;# 
   695  0298                     	;# 
   696  0298                     	;# 
   697  0299                     	;# 
   698  0299                     	;# 
   699  029A                     	;# 
   700  029B                     	;# 
   701  029C                     	;# 
   702  029C                     	;# 
   703  029D                     	;# 
   704  030C                     	;# 
   705  030C                     	;# 
   706  030D                     	;# 
   707  030E                     	;# 
   708  030F                     	;# 
   709  0310                     	;# 
   710  0310                     	;# 
   711  0311                     	;# 
   712  0312                     	;# 
   713  0313                     	;# 
   714  0314                     	;# 
   715  0314                     	;# 
   716  0315                     	;# 
   717  0316                     	;# 
   718  0317                     	;# 
   719  0318                     	;# 
   720  0318                     	;# 
   721  0319                     	;# 
   722  031A                     	;# 
   723  031B                     	;# 
   724  031C                     	;# 
   725  031C                     	;# 
   726  031D                     	;# 
   727  031E                     	;# 
   728  031F                     	;# 
   729  038C                     	;# 
   730  038D                     	;# 
   731  038E                     	;# 
   732  0390                     	;# 
   733  0391                     	;# 
   734  0392                     	;# 
   735  040C                     	;# 
   736  040D                     	;# 
   737  040E                     	;# 
   738  040F                     	;# 
   739  0410                     	;# 
   740  0411                     	;# 
   741  0416                     	;# 
   742  0416                     	;# 
   743  0417                     	;# 
   744  0418                     	;# 
   745  0418                     	;# 
   746  0419                     	;# 
   747  041A                     	;# 
   748  041A                     	;# 
   749  041B                     	;# 
   750  041C                     	;# 
   751  041C                     	;# 
   752  041D                     	;# 
   753  041E                     	;# 
   754  041F                     	;# 
   755  048C                     	;# 
   756  048C                     	;# 
   757  048D                     	;# 
   758  048E                     	;# 
   759  048F                     	;# 
   760  048F                     	;# 
   761  0490                     	;# 
   762  0491                     	;# 
   763  0492                     	;# 
   764  0492                     	;# 
   765  0493                     	;# 
   766  0494                     	;# 
   767  0495                     	;# 
   768  0495                     	;# 
   769  0496                     	;# 
   770  0497                     	;# 
   771  0498                     	;# 
   772  0499                     	;# 
   773  049A                     	;# 
   774  049B                     	;# 
   775  049C                     	;# 
   776  049D                     	;# 
   777  050C                     	;# 
   778  050C                     	;# 
   779  050D                     	;# 
   780  050E                     	;# 
   781  050F                     	;# 
   782  050F                     	;# 
   783  0510                     	;# 
   784  0511                     	;# 
   785  0512                     	;# 
   786  0512                     	;# 
   787  0513                     	;# 
   788  0514                     	;# 
   789  0515                     	;# 
   790  0515                     	;# 
   791  0516                     	;# 
   792  0517                     	;# 
   793  0518                     	;# 
   794  0519                     	;# 
   795  051A                     	;# 
   796  051B                     	;# 
   797  051C                     	;# 
   798  051D                     	;# 
   799  058C                     	;# 
   800  058C                     	;# 
   801  058D                     	;# 
   802  058E                     	;# 
   803  058F                     	;# 
   804  058F                     	;# 
   805  0590                     	;# 
   806  0591                     	;# 
   807  0592                     	;# 
   808  0593                     	;# 
   809  060C                     	;# 
   810  060D                     	;# 
   811  060E                     	;# 
   812  060F                     	;# 
   813  0610                     	;# 
   814  0611                     	;# 
   815  0612                     	;# 
   816  0613                     	;# 
   817  0614                     	;# 
   818  0616                     	;# 
   819  0617                     	;# 
   820  0618                     	;# 
   821  0619                     	;# 
   822  061A                     	;# 
   823  061B                     	;# 
   824  061C                     	;# 
   825  061D                     	;# 
   826  061E                     	;# 
   827  068C                     	;# 
   828  068D                     	;# 
   829  068E                     	;# 
   830  068F                     	;# 
   831  0690                     	;# 
   832  0691                     	;# 
   833  0692                     	;# 
   834  0693                     	;# 
   835  0694                     	;# 
   836  070C                     	;# 
   837  070D                     	;# 
   838  070E                     	;# 
   839  070F                     	;# 
   840  0710                     	;# 
   841  0711                     	;# 
   842  0712                     	;# 
   843  0713                     	;# 
   844  0714                     	;# 
   845  0716                     	;# 
   846  0717                     	;# 
   847  0718                     	;# 
   848  0719                     	;# 
   849  071A                     	;# 
   850  071B                     	;# 
   851  071C                     	;# 
   852  071D                     	;# 
   853  071E                     	;# 
   854  0796                     	;# 
   855  0797                     	;# 
   856  0798                     	;# 
   857  0799                     	;# 
   858  079A                     	;# 
   859  079B                     	;# 
   860  080C                     	;# 
   861  080D                     	;# 
   862  080E                     	;# 
   863  080F                     	;# 
   864  0810                     	;# 
   865  0811                     	;# 
   866  0812                     	;# 
   867  0813                     	;# 
   868  0814                     	;# 
   869  081A                     	;# 
   870  081B                     	;# 
   871  081C                     	;# 
   872  081D                     	;# 
   873  081E                     	;# 
   874  081F                     	;# 
   875  088C                     	;# 
   876  088D                     	;# 
   877  088E                     	;# 
   878  088F                     	;# 
   879  0890                     	;# 
   880  0891                     	;# 
   881  0892                     	;# 
   882  0893                     	;# 
   883  0895                     	;# 
   884  0896                     	;# 
   885  0897                     	;# 
   886  0898                     	;# 
   887  0899                     	;# 
   888  089A                     	;# 
   889  089B                     	;# 
   890  090C                     	;# 
   891  090E                     	;# 
   892  090F                     	;# 
   893  091F                     	;# 
   894  091F                     	;# 
   895  098F                     	;# 
   896  098F                     	;# 
   897  0990                     	;# 
   898  0991                     	;# 
   899  0992                     	;# 
   900  0993                     	;# 
   901  0994                     	;# 
   902  0995                     	;# 
   903  0996                     	;# 
   904  0997                     	;# 
   905  0E0F                     	;# 
   906  0E10                     	;# 
   907  0E11                     	;# 
   908  0E12                     	;# 
   909  0E13                     	;# 
   910  0E14                     	;# 
   911  0E15                     	;# 
   912  0E16                     	;# 
   913  0E17                     	;# 
   914  0E18                     	;# 
   915  0E19                     	;# 
   916  0E1A                     	;# 
   917  0E1B                     	;# 
   918  0E1C                     	;# 
   919  0E1D                     	;# 
   920  0E1E                     	;# 
   921  0E1F                     	;# 
   922  0E20                     	;# 
   923  0E21                     	;# 
   924  0E22                     	;# 
   925  0E23                     	;# 
   926  0E24                     	;# 
   927  0E25                     	;# 
   928  0E26                     	;# 
   929  0E27                     	;# 
   930  0E28                     	;# 
   931  0E29                     	;# 
   932  0E2A                     	;# 
   933  0E2B                     	;# 
   934  0E2C                     	;# 
   935  0E2D                     	;# 
   936  0E2E                     	;# 
   937  0E2F                     	;# 
   938  0E30                     	;# 
   939  0E31                     	;# 
   940  0E32                     	;# 
   941  0E33                     	;# 
   942  0E34                     	;# 
   943  0E35                     	;# 
   944  0E36                     	;# 
   945  0E37                     	;# 
   946  0E8F                     	;# 
   947  0E90                     	;# 
   948  0E91                     	;# 
   949  0E92                     	;# 
   950  0E93                     	;# 
   951  0E94                     	;# 
   952  0E95                     	;# 
   953  0E96                     	;# 
   954  0E97                     	;# 
   955  0E9C                     	;# 
   956  0E9D                     	;# 
   957  0E9E                     	;# 
   958  0EA1                     	;# 
   959  0EA2                     	;# 
   960  0EA3                     	;# 
   961  0EA4                     	;# 
   962  0EA5                     	;# 
   963  0EA9                     	;# 
   964  0EAA                     	;# 
   965  0EAB                     	;# 
   966  0EAC                     	;# 
   967  0EB1                     	;# 
   968  0EB2                     	;# 
   969  0EB3                     	;# 
   970  0EB8                     	;# 
   971  0EB9                     	;# 
   972  0EBA                     	;# 
   973  0EBB                     	;# 
   974  0EBC                     	;# 
   975  0EBD                     	;# 
   976  0EBE                     	;# 
   977  0EC3                     	;# 
   978  0EC5                     	;# 
   979  0EC6                     	;# 
   980  0EC7                     	;# 
   981  0EC8                     	;# 
   982  0EC9                     	;# 
   983  0ECA                     	;# 
   984  0ECB                     	;# 
   985  0ECC                     	;# 
   986  0F10                     	;# 
   987  0F11                     	;# 
   988  0F12                     	;# 
   989  0F13                     	;# 
   990  0F14                     	;# 
   991  0F15                     	;# 
   992  0F16                     	;# 
   993  0F17                     	;# 
   994  0F18                     	;# 
   995  0F19                     	;# 
   996  0F1A                     	;# 
   997  0F1B                     	;# 
   998  0F1C                     	;# 
   999  0F1D                     	;# 
  1000  0F1E                     	;# 
  1001  0F1F                     	;# 
  1002  0F20                     	;# 
  1003  0F21                     	;# 
  1004  0F22                     	;# 
  1005  0F23                     	;# 
  1006  0F24                     	;# 
  1007  0F25                     	;# 
  1008  0F26                     	;# 
  1009  0F27                     	;# 
  1010  0F38                     	;# 
  1011  0F39                     	;# 
  1012  0F3A                     	;# 
  1013  0F3B                     	;# 
  1014  0F3C                     	;# 
  1015  0F3D                     	;# 
  1016  0F3E                     	;# 
  1017  0F3F                     	;# 
  1018  0F40                     	;# 
  1019  0F41                     	;# 
  1020  0F43                     	;# 
  1021  0F44                     	;# 
  1022  0F45                     	;# 
  1023  0F46                     	;# 
  1024  0F47                     	;# 
  1025  0F48                     	;# 
  1026  0F49                     	;# 
  1027  0F4A                     	;# 
  1028  0F4B                     	;# 
  1029  0F4C                     	;# 
  1030  0F4E                     	;# 
  1031  0F4F                     	;# 
  1032  0F50                     	;# 
  1033  0F51                     	;# 
  1034  0F52                     	;# 
  1035  0F53                     	;# 
  1036  0F54                     	;# 
  1037  0F55                     	;# 
  1038  0F56                     	;# 
  1039  0F57                     	;# 
  1040  0F65                     	;# 
  1041  0F68                     	;# 
  1042  0F69                     	;# 
  1043  0F6A                     	;# 
  1044  0F6B                     	;# 
  1045  0FE4                     	;# 
  1046  0FE5                     	;# 
  1047  0FE6                     	;# 
  1048  0FE7                     	;# 
  1049  0FE8                     	;# 
  1050  0FE9                     	;# 
  1051  0FEA                     	;# 
  1052  0FEB                     	;# 
  1053  0FED                     	;# 
  1054  0FEE                     	;# 
  1055  0FEF                     	;# 
  1056  0000                     	;# 
  1057  0001                     	;# 
  1058  0002                     	;# 
  1059  0003                     	;# 
  1060  0004                     	;# 
  1061  0005                     	;# 
  1062  0006                     	;# 
  1063  0007                     	;# 
  1064  0008                     	;# 
  1065  0009                     	;# 
  1066  000A                     	;# 
  1067  000B                     	;# 
  1068  000C                     	;# 
  1069  000D                     	;# 
  1070  000E                     	;# 
  1071  0010                     	;# 
  1072  0011                     	;# 
  1073  0012                     	;# 
  1074  0013                     	;# 
  1075  0016                     	;# 
  1076  0017                     	;# 
  1077  0018                     	;# 
  1078  001C                     	;# 
  1079  001C                     	;# 
  1080  001D                     	;# 
  1081  001D                     	;# 
  1082  001E                     	;# 
  1083  001F                     	;# 
  1084  008C                     	;# 
  1085  008C                     	;# 
  1086  008D                     	;# 
  1087  008E                     	;# 
  1088  008E                     	;# 
  1089  008F                     	;# 
  1090  0090                     	;# 
  1091  0090                     	;# 
  1092  0091                     	;# 
  1093  0093                     	;# 
  1094  0094                     	;# 
  1095  0095                     	;# 
  1096  0096                     	;# 
  1097  0097                     	;# 
  1098  0098                     	;# 
  1099  0099                     	;# 
  1100  009A                     	;# 
  1101  009B                     	;# 
  1102  009C                     	;# 
  1103  009D                     	;# 
  1104  009E                     	;# 
  1105  010C                     	;# 
  1106  010D                     	;# 
  1107  010E                     	;# 
  1108  010E                     	;# 
  1109  010F                     	;# 
  1110  0110                     	;# 
  1111  0110                     	;# 
  1112  0111                     	;# 
  1113  0112                     	;# 
  1114  0112                     	;# 
  1115  0113                     	;# 
  1116  0114                     	;# 
  1117  0114                     	;# 
  1118  0115                     	;# 
  1119  0116                     	;# 
  1120  0116                     	;# 
  1121  0117                     	;# 
  1122  0119                     	;# 
  1123  0119                     	;# 
  1124  0119                     	;# 
  1125  011A                     	;# 
  1126  011A                     	;# 
  1127  011A                     	;# 
  1128  011B                     	;# 
  1129  011B                     	;# 
  1130  011B                     	;# 
  1131  011B                     	;# 
  1132  011B                     	;# 
  1133  011C                     	;# 
  1134  011C                     	;# 
  1135  011C                     	;# 
  1136  011D                     	;# 
  1137  011D                     	;# 
  1138  011D                     	;# 
  1139  011E                     	;# 
  1140  011E                     	;# 
  1141  011E                     	;# 
  1142  011F                     	;# 
  1143  011F                     	;# 
  1144  011F                     	;# 
  1145  011F                     	;# 
  1146  011F                     	;# 
  1147  018C                     	;# 
  1148  018D                     	;# 
  1149  018E                     	;# 
  1150  018F                     	;# 
  1151  0190                     	;# 
  1152  0191                     	;# 
  1153  0192                     	;# 
  1154  0196                     	;# 
  1155  0197                     	;# 
  1156  0198                     	;# 
  1157  0199                     	;# 
  1158  019A                     	;# 
  1159  019B                     	;# 
  1160  019C                     	;# 
  1161  020C                     	;# 
  1162  020D                     	;# 
  1163  020E                     	;# 
  1164  020F                     	;# 
  1165  020F                     	;# 
  1166  0210                     	;# 
  1167  0210                     	;# 
  1168  0211                     	;# 
  1169  0211                     	;# 
  1170  0212                     	;# 
  1171  0213                     	;# 
  1172  0214                     	;# 
  1173  0215                     	;# 
  1174  0215                     	;# 
  1175  0216                     	;# 
  1176  0216                     	;# 
  1177  0217                     	;# 
  1178  0217                     	;# 
  1179  0218                     	;# 
  1180  0219                     	;# 
  1181  021A                     	;# 
  1182  021B                     	;# 
  1183  021B                     	;# 
  1184  021C                     	;# 
  1185  021C                     	;# 
  1186  021D                     	;# 
  1187  021D                     	;# 
  1188  021E                     	;# 
  1189  021F                     	;# 
  1190  028C                     	;# 
  1191  028C                     	;# 
  1192  028D                     	;# 
  1193  028D                     	;# 
  1194  028E                     	;# 
  1195  028F                     	;# 
  1196  0290                     	;# 
  1197  0290                     	;# 
  1198  0291                     	;# 
  1199  0292                     	;# 
  1200  0292                     	;# 
  1201  0293                     	;# 
  1202  0293                     	;# 
  1203  0294                     	;# 
  1204  0295                     	;# 
  1205  0296                     	;# 
  1206  0296                     	;# 
  1207  0297                     	;# 
  1208  0298                     	;# 
  1209  0298                     	;# 
  1210  0299                     	;# 
  1211  0299                     	;# 
  1212  029A                     	;# 
  1213  029B                     	;# 
  1214  029C                     	;# 
  1215  029C                     	;# 
  1216  029D                     	;# 
  1217  030C                     	;# 
  1218  030C                     	;# 
  1219  030D                     	;# 
  1220  030E                     	;# 
  1221  030F                     	;# 
  1222  0310                     	;# 
  1223  0310                     	;# 
  1224  0311                     	;# 
  1225  0312                     	;# 
  1226  0313                     	;# 
  1227  0314                     	;# 
  1228  0314                     	;# 
  1229  0315                     	;# 
  1230  0316                     	;# 
  1231  0317                     	;# 
  1232  0318                     	;# 
  1233  0318                     	;# 
  1234  0319                     	;# 
  1235  031A                     	;# 
  1236  031B                     	;# 
  1237  031C                     	;# 
  1238  031C                     	;# 
  1239  031D                     	;# 
  1240  031E                     	;# 
  1241  031F                     	;# 
  1242  038C                     	;# 
  1243  038D                     	;# 
  1244  038E                     	;# 
  1245  0390                     	;# 
  1246  0391                     	;# 
  1247  0392                     	;# 
  1248  040C                     	;# 
  1249  040D                     	;# 
  1250  040E                     	;# 
  1251  040F                     	;# 
  1252  0410                     	;# 
  1253  0411                     	;# 
  1254  0416                     	;# 
  1255  0416                     	;# 
  1256  0417                     	;# 
  1257  0418                     	;# 
  1258  0418                     	;# 
  1259  0419                     	;# 
  1260  041A                     	;# 
  1261  041A                     	;# 
  1262  041B                     	;# 
  1263  041C                     	;# 
  1264  041C                     	;# 
  1265  041D                     	;# 
  1266  041E                     	;# 
  1267  041F                     	;# 
  1268  048C                     	;# 
  1269  048C                     	;# 
  1270  048D                     	;# 
  1271  048E                     	;# 
  1272  048F                     	;# 
  1273  048F                     	;# 
  1274  0490                     	;# 
  1275  0491                     	;# 
  1276  0492                     	;# 
  1277  0492                     	;# 
  1278  0493                     	;# 
  1279  0494                     	;# 
  1280  0495                     	;# 
  1281  0495                     	;# 
  1282  0496                     	;# 
  1283  0497                     	;# 
  1284  0498                     	;# 
  1285  0499                     	;# 
  1286  049A                     	;# 
  1287  049B                     	;# 
  1288  049C                     	;# 
  1289  049D                     	;# 
  1290  050C                     	;# 
  1291  050C                     	;# 
  1292  050D                     	;# 
  1293  050E                     	;# 
  1294  050F                     	;# 
  1295  050F                     	;# 
  1296  0510                     	;# 
  1297  0511                     	;# 
  1298  0512                     	;# 
  1299  0512                     	;# 
  1300  0513                     	;# 
  1301  0514                     	;# 
  1302  0515                     	;# 
  1303  0515                     	;# 
  1304  0516                     	;# 
  1305  0517                     	;# 
  1306  0518                     	;# 
  1307  0519                     	;# 
  1308  051A                     	;# 
  1309  051B                     	;# 
  1310  051C                     	;# 
  1311  051D                     	;# 
  1312  058C                     	;# 
  1313  058C                     	;# 
  1314  058D                     	;# 
  1315  058E                     	;# 
  1316  058F                     	;# 
  1317  058F                     	;# 
  1318  0590                     	;# 
  1319  0591                     	;# 
  1320  0592                     	;# 
  1321  0593                     	;# 
  1322  060C                     	;# 
  1323  060D                     	;# 
  1324  060E                     	;# 
  1325  060F                     	;# 
  1326  0610                     	;# 
  1327  0611                     	;# 
  1328  0612                     	;# 
  1329  0613                     	;# 
  1330  0614                     	;# 
  1331  0616                     	;# 
  1332  0617                     	;# 
  1333  0618                     	;# 
  1334  0619                     	;# 
  1335  061A                     	;# 
  1336  061B                     	;# 
  1337  061C                     	;# 
  1338  061D                     	;# 
  1339  061E                     	;# 
  1340  068C                     	;# 
  1341  068D                     	;# 
  1342  068E                     	;# 
  1343  068F                     	;# 
  1344  0690                     	;# 
  1345  0691                     	;# 
  1346  0692                     	;# 
  1347  0693                     	;# 
  1348  0694                     	;# 
  1349  070C                     	;# 
  1350  070D                     	;# 
  1351  070E                     	;# 
  1352  070F                     	;# 
  1353  0710                     	;# 
  1354  0711                     	;# 
  1355  0712                     	;# 
  1356  0713                     	;# 
  1357  0714                     	;# 
  1358  0716                     	;# 
  1359  0717                     	;# 
  1360  0718                     	;# 
  1361  0719                     	;# 
  1362  071A                     	;# 
  1363  071B                     	;# 
  1364  071C                     	;# 
  1365  071D                     	;# 
  1366  071E                     	;# 
  1367  0796                     	;# 
  1368  0797                     	;# 
  1369  0798                     	;# 
  1370  0799                     	;# 
  1371  079A                     	;# 
  1372  079B                     	;# 
  1373  080C                     	;# 
  1374  080D                     	;# 
  1375  080E                     	;# 
  1376  080F                     	;# 
  1377  0810                     	;# 
  1378  0811                     	;# 
  1379  0812                     	;# 
  1380  0813                     	;# 
  1381  0814                     	;# 
  1382  081A                     	;# 
  1383  081B                     	;# 
  1384  081C                     	;# 
  1385  081D                     	;# 
  1386  081E                     	;# 
  1387  081F                     	;# 
  1388  088C                     	;# 
  1389  088D                     	;# 
  1390  088E                     	;# 
  1391  088F                     	;# 
  1392  0890                     	;# 
  1393  0891                     	;# 
  1394  0892                     	;# 
  1395  0893                     	;# 
  1396  0895                     	;# 
  1397  0896                     	;# 
  1398  0897                     	;# 
  1399  0898                     	;# 
  1400  0899                     	;# 
  1401  089A                     	;# 
  1402  089B                     	;# 
  1403  090C                     	;# 
  1404  090E                     	;# 
  1405  090F                     	;# 
  1406  091F                     	;# 
  1407  091F                     	;# 
  1408  098F                     	;# 
  1409  098F                     	;# 
  1410  0990                     	;# 
  1411  0991                     	;# 
  1412  0992                     	;# 
  1413  0993                     	;# 
  1414  0994                     	;# 
  1415  0995                     	;# 
  1416  0996                     	;# 
  1417  0997                     	;# 
  1418  0E0F                     	;# 
  1419  0E10                     	;# 
  1420  0E11                     	;# 
  1421  0E12                     	;# 
  1422  0E13                     	;# 
  1423  0E14                     	;# 
  1424  0E15                     	;# 
  1425  0E16                     	;# 
  1426  0E17                     	;# 
  1427  0E18                     	;# 
  1428  0E19                     	;# 
  1429  0E1A                     	;# 
  1430  0E1B                     	;# 
  1431  0E1C                     	;# 
  1432  0E1D                     	;# 
  1433  0E1E                     	;# 
  1434  0E1F                     	;# 
  1435  0E20                     	;# 
  1436  0E21                     	;# 
  1437  0E22                     	;# 
  1438  0E23                     	;# 
  1439  0E24                     	;# 
  1440  0E25                     	;# 
  1441  0E26                     	;# 
  1442  0E27                     	;# 
  1443  0E28                     	;# 
  1444  0E29                     	;# 
  1445  0E2A                     	;# 
  1446  0E2B                     	;# 
  1447  0E2C                     	;# 
  1448  0E2D                     	;# 
  1449  0E2E                     	;# 
  1450  0E2F                     	;# 
  1451  0E30                     	;# 
  1452  0E31                     	;# 
  1453  0E32                     	;# 
  1454  0E33                     	;# 
  1455  0E34                     	;# 
  1456  0E35                     	;# 
  1457  0E36                     	;# 
  1458  0E37                     	;# 
  1459  0E8F                     	;# 
  1460  0E90                     	;# 
  1461  0E91                     	;# 
  1462  0E92                     	;# 
  1463  0E93                     	;# 
  1464  0E94                     	;# 
  1465  0E95                     	;# 
  1466  0E96                     	;# 
  1467  0E97                     	;# 
  1468  0E9C                     	;# 
  1469  0E9D                     	;# 
  1470  0E9E                     	;# 
  1471  0EA1                     	;# 
  1472  0EA2                     	;# 
  1473  0EA3                     	;# 
  1474  0EA4                     	;# 
  1475  0EA5                     	;# 
  1476  0EA9                     	;# 
  1477  0EAA                     	;# 
  1478  0EAB                     	;# 
  1479  0EAC                     	;# 
  1480  0EB1                     	;# 
  1481  0EB2                     	;# 
  1482  0EB3                     	;# 
  1483  0EB8                     	;# 
  1484  0EB9                     	;# 
  1485  0EBA                     	;# 
  1486  0EBB                     	;# 
  1487  0EBC                     	;# 
  1488  0EBD                     	;# 
  1489  0EBE                     	;# 
  1490  0EC3                     	;# 
  1491  0EC5                     	;# 
  1492  0EC6                     	;# 
  1493  0EC7                     	;# 
  1494  0EC8                     	;# 
  1495  0EC9                     	;# 
  1496  0ECA                     	;# 
  1497  0ECB                     	;# 
  1498  0ECC                     	;# 
  1499  0F10                     	;# 
  1500  0F11                     	;# 
  1501  0F12                     	;# 
  1502  0F13                     	;# 
  1503  0F14                     	;# 
  1504  0F15                     	;# 
  1505  0F16                     	;# 
  1506  0F17                     	;# 
  1507  0F18                     	;# 
  1508  0F19                     	;# 
  1509  0F1A                     	;# 
  1510  0F1B                     	;# 
  1511  0F1C                     	;# 
  1512  0F1D                     	;# 
  1513  0F1E                     	;# 
  1514  0F1F                     	;# 
  1515  0F20                     	;# 
  1516  0F21                     	;# 
  1517  0F22                     	;# 
  1518  0F23                     	;# 
  1519  0F24                     	;# 
  1520  0F25                     	;# 
  1521  0F26                     	;# 
  1522  0F27                     	;# 
  1523  0F38                     	;# 
  1524  0F39                     	;# 
  1525  0F3A                     	;# 
  1526  0F3B                     	;# 
  1527  0F3C                     	;# 
  1528  0F3D                     	;# 
  1529  0F3E                     	;# 
  1530  0F3F                     	;# 
  1531  0F40                     	;# 
  1532  0F41                     	;# 
  1533  0F43                     	;# 
  1534  0F44                     	;# 
  1535  0F45                     	;# 
  1536  0F46                     	;# 
  1537  0F47                     	;# 
  1538  0F48                     	;# 
  1539  0F49                     	;# 
  1540  0F4A                     	;# 
  1541  0F4B                     	;# 
  1542  0F4C                     	;# 
  1543  0F4E                     	;# 
  1544  0F4F                     	;# 
  1545  0F50                     	;# 
  1546  0F51                     	;# 
  1547  0F52                     	;# 
  1548  0F53                     	;# 
  1549  0F54                     	;# 
  1550  0F55                     	;# 
  1551  0F56                     	;# 
  1552  0F57                     	;# 
  1553  0F65                     	;# 
  1554  0F68                     	;# 
  1555  0F69                     	;# 
  1556  0F6A                     	;# 
  1557  0F6B                     	;# 
  1558  0FE4                     	;# 
  1559  0FE5                     	;# 
  1560  0FE6                     	;# 
  1561  0FE7                     	;# 
  1562  0FE8                     	;# 
  1563  0FE9                     	;# 
  1564  0FEA                     	;# 
  1565  0FEB                     	;# 
  1566  0FED                     	;# 
  1567  0FEE                     	;# 
  1568  0FEF                     	;_ASCII
  1569                           
  1570                           	psect	idataBIGRAM
  1571  060E                     __pidataBIGRAM:	
  1572                           
  1573                           ;initializer for _ASCII
  1574  060E  3400               	retlw	0
  1575  060F  3400               	retlw	0
  1576  0610  3400               	retlw	0
  1577  0611  3400               	retlw	0
  1578  0612  3400               	retlw	0
  1579  0613  3400               	retlw	0
  1580  0614  3400               	retlw	0
  1581  0615  345F               	retlw	95
  1582  0616  3400               	retlw	0
  1583  0617  3400               	retlw	0
  1584  0618  3400               	retlw	0
  1585  0619  3407               	retlw	7
  1586  061A  3400               	retlw	0
  1587  061B  3407               	retlw	7
  1588  061C  3400               	retlw	0
  1589  061D  3414               	retlw	20
  1590  061E  347F               	retlw	127
  1591  061F  3414               	retlw	20
  1592  0620  347F               	retlw	127
  1593  0621  3414               	retlw	20
  1594  0622  3424               	retlw	36
  1595  0623  342A               	retlw	42
  1596  0624  347F               	retlw	127
  1597  0625  342A               	retlw	42
  1598  0626  3412               	retlw	18
  1599  0627  3423               	retlw	35
  1600  0628  3413               	retlw	19
  1601  0629  3408               	retlw	8
  1602  062A  3464               	retlw	100
  1603  062B  3462               	retlw	98
  1604  062C  3436               	retlw	54
  1605  062D  3449               	retlw	73
  1606  062E  3455               	retlw	85
  1607  062F  3422               	retlw	34
  1608  0630  3450               	retlw	80
  1609  0631  3400               	retlw	0
  1610  0632  3405               	retlw	5
  1611  0633  3403               	retlw	3
  1612  0634  3400               	retlw	0
  1613  0635  3400               	retlw	0
  1614  0636  3400               	retlw	0
  1615  0637  341C               	retlw	28
  1616  0638  3422               	retlw	34
  1617  0639  3441               	retlw	65
  1618  063A  3400               	retlw	0
  1619  063B  3400               	retlw	0
  1620  063C  3441               	retlw	65
  1621  063D  3422               	retlw	34
  1622  063E  341C               	retlw	28
  1623  063F  3400               	retlw	0
  1624  0640  3414               	retlw	20
  1625  0641  3408               	retlw	8
  1626  0642  343E               	retlw	62
  1627  0643  3408               	retlw	8
  1628  0644  3414               	retlw	20
  1629  0645  3408               	retlw	8
  1630  0646  3408               	retlw	8
  1631  0647  343E               	retlw	62
  1632  0648  3408               	retlw	8
  1633  0649  3408               	retlw	8
  1634  064A  3400               	retlw	0
  1635  064B  3450               	retlw	80
  1636  064C  3430               	retlw	48
  1637  064D  3400               	retlw	0
  1638  064E  3400               	retlw	0
  1639  064F  3408               	retlw	8
  1640  0650  3408               	retlw	8
  1641  0651  3408               	retlw	8
  1642  0652  3408               	retlw	8
  1643  0653  3408               	retlw	8
  1644  0654  3400               	retlw	0
  1645  0655  3460               	retlw	96
  1646  0656  3460               	retlw	96
  1647  0657  3400               	retlw	0
  1648  0658  3400               	retlw	0
  1649  0659  3420               	retlw	32
  1650  065A  3410               	retlw	16
  1651  065B  3408               	retlw	8
  1652  065C  3404               	retlw	4
  1653  065D  3402               	retlw	2
  1654  065E  343E               	retlw	62
  1655  065F  3451               	retlw	81
  1656  0660  3449               	retlw	73
  1657  0661  3445               	retlw	69
  1658  0662  343E               	retlw	62
  1659  0663  3400               	retlw	0
  1660  0664  3442               	retlw	66
  1661  0665  347F               	retlw	127
  1662  0666  3440               	retlw	64
  1663  0667  3400               	retlw	0
  1664  0668  3442               	retlw	66
  1665  0669  3461               	retlw	97
  1666  066A  3451               	retlw	81
  1667  066B  3449               	retlw	73
  1668  066C  3446               	retlw	70
  1669  066D  3421               	retlw	33
  1670  066E  3441               	retlw	65
  1671  066F  3445               	retlw	69
  1672  0670  344B               	retlw	75
  1673  0671  3431               	retlw	49
  1674  0672  3418               	retlw	24
  1675  0673  3414               	retlw	20
  1676  0674  3412               	retlw	18
  1677  0675  347F               	retlw	127
  1678  0676  3410               	retlw	16
  1679  0677  3427               	retlw	39
  1680  0678  3445               	retlw	69
  1681  0679  3445               	retlw	69
  1682  067A  3445               	retlw	69
  1683  067B  3439               	retlw	57
  1684  067C  343C               	retlw	60
  1685  067D  344A               	retlw	74
  1686  067E  3449               	retlw	73
  1687  067F  3449               	retlw	73
  1688  0680  3430               	retlw	48
  1689  0681  3401               	retlw	1
  1690  0682  3471               	retlw	113
  1691  0683  3409               	retlw	9
  1692  0684  3405               	retlw	5
  1693  0685  3403               	retlw	3
  1694  0686  3436               	retlw	54
  1695  0687  3449               	retlw	73
  1696  0688  3449               	retlw	73
  1697  0689  3449               	retlw	73
  1698  068A  3436               	retlw	54
  1699  068B  3406               	retlw	6
  1700  068C  3449               	retlw	73
  1701  068D  3449               	retlw	73
  1702  068E  3429               	retlw	41
  1703  068F  341E               	retlw	30
  1704  0690  3400               	retlw	0
  1705  0691  3436               	retlw	54
  1706  0692  3436               	retlw	54
  1707  0693  3400               	retlw	0
  1708  0694  3400               	retlw	0
  1709  0695  3400               	retlw	0
  1710  0696  3456               	retlw	86
  1711  0697  3436               	retlw	54
  1712  0698  3400               	retlw	0
  1713  0699  3400               	retlw	0
  1714  069A  3408               	retlw	8
  1715  069B  3414               	retlw	20
  1716  069C  3422               	retlw	34
  1717  069D  3441               	retlw	65
  1718  069E  3400               	retlw	0
  1719  069F  3414               	retlw	20
  1720  06A0  3414               	retlw	20
  1721  06A1  3414               	retlw	20
  1722  06A2  3414               	retlw	20
  1723  06A3  3414               	retlw	20
  1724  06A4  3400               	retlw	0
  1725  06A5  3441               	retlw	65
  1726  06A6  3422               	retlw	34
  1727  06A7  3414               	retlw	20
  1728  06A8  3408               	retlw	8
  1729  06A9  3402               	retlw	2
  1730  06AA  3401               	retlw	1
  1731  06AB  3451               	retlw	81
  1732  06AC  3409               	retlw	9
  1733  06AD  3406               	retlw	6
  1734  06AE  3432               	retlw	50
  1735  06AF  3449               	retlw	73
  1736  06B0  3479               	retlw	121
  1737  06B1  3441               	retlw	65
  1738  06B2  343E               	retlw	62
  1739  06B3  347E               	retlw	126
  1740  06B4  3411               	retlw	17
  1741  06B5  3411               	retlw	17
  1742  06B6  3411               	retlw	17
  1743  06B7  347E               	retlw	126
  1744  06B8  347F               	retlw	127
  1745  06B9  3449               	retlw	73
  1746  06BA  3449               	retlw	73
  1747  06BB  3449               	retlw	73
  1748  06BC  3436               	retlw	54
  1749  06BD  343E               	retlw	62
  1750  06BE  3441               	retlw	65
  1751  06BF  3441               	retlw	65
  1752  06C0  3441               	retlw	65
  1753  06C1  3422               	retlw	34
  1754  06C2  347F               	retlw	127
  1755  06C3  3441               	retlw	65
  1756  06C4  3441               	retlw	65
  1757  06C5  3422               	retlw	34
  1758  06C6  341C               	retlw	28
  1759  06C7  347F               	retlw	127
  1760  06C8  3449               	retlw	73
  1761  06C9  3449               	retlw	73
  1762  06CA  3449               	retlw	73
  1763  06CB  3441               	retlw	65
  1764  06CC  347F               	retlw	127
  1765  06CD  3409               	retlw	9
  1766  06CE  3409               	retlw	9
  1767  06CF  3409               	retlw	9
  1768  06D0  3401               	retlw	1
  1769  06D1  343E               	retlw	62
  1770  06D2  3441               	retlw	65
  1771  06D3  3449               	retlw	73
  1772  06D4  3449               	retlw	73
  1773  06D5  347A               	retlw	122
  1774  06D6  347F               	retlw	127
  1775  06D7  3408               	retlw	8
  1776  06D8  3408               	retlw	8
  1777  06D9  3408               	retlw	8
  1778  06DA  347F               	retlw	127
  1779  06DB  3400               	retlw	0
  1780  06DC  3441               	retlw	65
  1781  06DD  347F               	retlw	127
  1782  06DE  3441               	retlw	65
  1783  06DF  3400               	retlw	0
  1784  06E0  3420               	retlw	32
  1785  06E1  3440               	retlw	64
  1786  06E2  3441               	retlw	65
  1787  06E3  343F               	retlw	63
  1788  06E4  3401               	retlw	1
  1789  06E5  347F               	retlw	127
  1790  06E6  3408               	retlw	8
  1791  06E7  3414               	retlw	20
  1792  06E8  3422               	retlw	34
  1793  06E9  3441               	retlw	65
  1794  06EA  347F               	retlw	127
  1795  06EB  3440               	retlw	64
  1796  06EC  3440               	retlw	64
  1797  06ED  3440               	retlw	64
  1798  06EE  3440               	retlw	64
  1799  06EF  347F               	retlw	127
  1800  06F0  3402               	retlw	2
  1801  06F1  340C               	retlw	12
  1802  06F2  3402               	retlw	2
  1803  06F3  347F               	retlw	127
  1804  06F4  347F               	retlw	127
  1805  06F5  3404               	retlw	4
  1806  06F6  3408               	retlw	8
  1807  06F7  3410               	retlw	16
  1808  06F8  347F               	retlw	127
  1809  06F9  343E               	retlw	62
  1810  06FA  3441               	retlw	65
  1811  06FB  3441               	retlw	65
  1812  06FC  3441               	retlw	65
  1813  06FD  343E               	retlw	62
  1814  06FE  347F               	retlw	127
  1815  06FF  3409               	retlw	9
  1816  0700  3409               	retlw	9
  1817  0701  3409               	retlw	9
  1818  0702  3406               	retlw	6
  1819  0703  343E               	retlw	62
  1820  0704  3441               	retlw	65
  1821  0705  3451               	retlw	81
  1822  0706  3421               	retlw	33
  1823  0707  345E               	retlw	94
  1824  0708  347F               	retlw	127
  1825  0709  3409               	retlw	9
  1826  070A  3419               	retlw	25
  1827  070B  3429               	retlw	41
  1828  070C  3446               	retlw	70
  1829  070D  3446               	retlw	70
  1830  070E  3449               	retlw	73
  1831  070F  3449               	retlw	73
  1832  0710  3449               	retlw	73
  1833  0711  3431               	retlw	49
  1834  0712  3401               	retlw	1
  1835  0713  3401               	retlw	1
  1836  0714  347F               	retlw	127
  1837  0715  3401               	retlw	1
  1838  0716  3401               	retlw	1
  1839  0717  343F               	retlw	63
  1840  0718  3440               	retlw	64
  1841  0719  3440               	retlw	64
  1842  071A  3440               	retlw	64
  1843  071B  343F               	retlw	63
  1844  071C  341F               	retlw	31
  1845  071D  3420               	retlw	32
  1846  071E  3440               	retlw	64
  1847  071F  3420               	retlw	32
  1848  0720  341F               	retlw	31
  1849  0721  343F               	retlw	63
  1850  0722  3440               	retlw	64
  1851  0723  3438               	retlw	56
  1852  0724  3440               	retlw	64
  1853  0725  343F               	retlw	63
  1854  0726  3463               	retlw	99
  1855  0727  3414               	retlw	20
  1856  0728  3408               	retlw	8
  1857  0729  3414               	retlw	20
  1858  072A  3463               	retlw	99
  1859  072B  3407               	retlw	7
  1860  072C  3408               	retlw	8
  1861  072D  3470               	retlw	112
  1862  072E  3408               	retlw	8
  1863  072F  3407               	retlw	7
  1864  0730  3461               	retlw	97
  1865  0731  3451               	retlw	81
  1866  0732  3449               	retlw	73
  1867  0733  3445               	retlw	69
  1868  0734  3443               	retlw	67
  1869  0735  3400               	retlw	0
  1870  0736  347F               	retlw	127
  1871  0737  3441               	retlw	65
  1872  0738  3441               	retlw	65
  1873  0739  3400               	retlw	0
  1874  073A  3402               	retlw	2
  1875  073B  3404               	retlw	4
  1876  073C  3408               	retlw	8
  1877  073D  3410               	retlw	16
  1878  073E  3420               	retlw	32
  1879  073F  3400               	retlw	0
  1880  0740  3441               	retlw	65
  1881  0741  3441               	retlw	65
  1882  0742  347F               	retlw	127
  1883  0743  3400               	retlw	0
  1884  0744  3404               	retlw	4
  1885  0745  3402               	retlw	2
  1886  0746  3401               	retlw	1
  1887  0747  3402               	retlw	2
  1888  0748  3404               	retlw	4
  1889  0749  3440               	retlw	64
  1890  074A  3440               	retlw	64
  1891  074B  3440               	retlw	64
  1892  074C  3440               	retlw	64
  1893  074D  3440               	retlw	64
  1894  074E  3400               	retlw	0
  1895  074F  3401               	retlw	1
  1896  0750  3402               	retlw	2
  1897  0751  3404               	retlw	4
  1898  0752  3400               	retlw	0
  1899  0753  3420               	retlw	32
  1900  0754  3454               	retlw	84
  1901  0755  3454               	retlw	84
  1902  0756  3454               	retlw	84
  1903  0757  3478               	retlw	120
  1904  0758  347F               	retlw	127
  1905  0759  3448               	retlw	72
  1906  075A  3444               	retlw	68
  1907  075B  3444               	retlw	68
  1908  075C  3438               	retlw	56
  1909  075D  3438               	retlw	56
  1910  075E  3444               	retlw	68
  1911  075F  3444               	retlw	68
  1912  0760  3444               	retlw	68
  1913  0761  3420               	retlw	32
  1914  0762  3438               	retlw	56
  1915  0763  3444               	retlw	68
  1916  0764  3444               	retlw	68
  1917  0765  3448               	retlw	72
  1918  0766  347F               	retlw	127
  1919  0767  3438               	retlw	56
  1920  0768  3454               	retlw	84
  1921  0769  3454               	retlw	84
  1922  076A  3454               	retlw	84
  1923  076B  3418               	retlw	24
  1924  076C  3408               	retlw	8
  1925  076D  347E               	retlw	126
  1926  076E  3409               	retlw	9
  1927  076F  3401               	retlw	1
  1928  0770  3402               	retlw	2
  1929  0771  340C               	retlw	12
  1930  0772  3452               	retlw	82
  1931  0773  3452               	retlw	82
  1932  0774  3452               	retlw	82
  1933  0775  343E               	retlw	62
  1934  0776  347F               	retlw	127
  1935  0777  3408               	retlw	8
  1936  0778  3404               	retlw	4
  1937  0779  3404               	retlw	4
  1938  077A  3478               	retlw	120
  1939  077B  3400               	retlw	0
  1940  077C  3444               	retlw	68
  1941  077D  347D               	retlw	125
  1942  077E  3440               	retlw	64
  1943  077F  3400               	retlw	0
  1944  0780  3420               	retlw	32
  1945  0781  3440               	retlw	64
  1946  0782  3444               	retlw	68
  1947  0783  343D               	retlw	61
  1948  0784  3400               	retlw	0
  1949  0785  347F               	retlw	127
  1950  0786  3410               	retlw	16
  1951  0787  3428               	retlw	40
  1952  0788  3444               	retlw	68
  1953  0789  3400               	retlw	0
  1954  078A  3400               	retlw	0
  1955  078B  3441               	retlw	65
  1956  078C  347F               	retlw	127
  1957  078D  3440               	retlw	64
  1958  078E  3400               	retlw	0
  1959  078F  347C               	retlw	124
  1960  0790  3404               	retlw	4
  1961  0791  3418               	retlw	24
  1962  0792  3404               	retlw	4
  1963  0793  3478               	retlw	120
  1964  0794  347C               	retlw	124
  1965  0795  3408               	retlw	8
  1966  0796  3404               	retlw	4
  1967  0797  3404               	retlw	4
  1968  0798  3478               	retlw	120
  1969  0799  3438               	retlw	56
  1970  079A  3444               	retlw	68
  1971  079B  3444               	retlw	68
  1972  079C  3444               	retlw	68
  1973  079D  3438               	retlw	56
  1974  079E  347C               	retlw	124
  1975  079F  3414               	retlw	20
  1976  07A0  3414               	retlw	20
  1977  07A1  3414               	retlw	20
  1978  07A2  3408               	retlw	8
  1979  07A3  3408               	retlw	8
  1980  07A4  3414               	retlw	20
  1981  07A5  3414               	retlw	20
  1982  07A6  3418               	retlw	24
  1983  07A7  347C               	retlw	124
  1984  07A8  347C               	retlw	124
  1985  07A9  3408               	retlw	8
  1986  07AA  3404               	retlw	4
  1987  07AB  3404               	retlw	4
  1988  07AC  3408               	retlw	8
  1989  07AD  3448               	retlw	72
  1990  07AE  3454               	retlw	84
  1991  07AF  3454               	retlw	84
  1992  07B0  3454               	retlw	84
  1993  07B1  3420               	retlw	32
  1994  07B2  3404               	retlw	4
  1995  07B3  343F               	retlw	63
  1996  07B4  3444               	retlw	68
  1997  07B5  3440               	retlw	64
  1998  07B6  3420               	retlw	32
  1999  07B7  343C               	retlw	60
  2000  07B8  3440               	retlw	64
  2001  07B9  3440               	retlw	64
  2002  07BA  3420               	retlw	32
  2003  07BB  347C               	retlw	124
  2004  07BC  341C               	retlw	28
  2005  07BD  3420               	retlw	32
  2006  07BE  3440               	retlw	64
  2007  07BF  3420               	retlw	32
  2008  07C0  341C               	retlw	28
  2009  07C1  343C               	retlw	60
  2010  07C2  3440               	retlw	64
  2011  07C3  3430               	retlw	48
  2012  07C4  3440               	retlw	64
  2013  07C5  343C               	retlw	60
  2014  07C6  3444               	retlw	68
  2015  07C7  3428               	retlw	40
  2016  07C8  3410               	retlw	16
  2017  07C9  3428               	retlw	40
  2018  07CA  3444               	retlw	68
  2019  07CB  340C               	retlw	12
  2020  07CC  3450               	retlw	80
  2021  07CD  3450               	retlw	80
  2022  07CE  3450               	retlw	80
  2023  07CF  343C               	retlw	60
  2024  07D0  3444               	retlw	68
  2025  07D1  3464               	retlw	100
  2026  07D2  3454               	retlw	84
  2027  07D3  344C               	retlw	76
  2028  07D4  3444               	retlw	68
  2029  07D5  3400               	retlw	0
  2030  07D6  3408               	retlw	8
  2031  07D7  3436               	retlw	54
  2032  07D8  3441               	retlw	65
  2033  07D9  3400               	retlw	0
  2034  07DA  3400               	retlw	0
  2035  07DB  3400               	retlw	0
  2036  07DC  347F               	retlw	127
  2037  07DD  3400               	retlw	0
  2038  07DE  3400               	retlw	0
  2039  07DF  3400               	retlw	0
  2040  07E0  3441               	retlw	65
  2041  07E1  3436               	retlw	54
  2042  07E2  3408               	retlw	8
  2043  07E3  3400               	retlw	0
  2044  07E4  3410               	retlw	16
  2045  07E5  3408               	retlw	8
  2046  07E6  3408               	retlw	8
  2047  07E7  3410               	retlw	16
  2048  07E8  3408               	retlw	8
  2049  07E9  3478               	retlw	120
  2050  07EA  3446               	retlw	70
  2051  07EB  3441               	retlw	65
  2052  07EC  3446               	retlw	70
  2053  07ED  3478               	retlw	120
  2054  0011                     _TRISA	set	17
  2055  0012                     _TRISB	set	18
  2056  0013                     _TRISC	set	19
  2057  0013                     _TRISCbits	set	19
  2058  0072                     _RC2	set	114
  2059  0F38                     _ANSELA	set	3896
  2060  0F43                     _ANSELB	set	3907
  2061  0F4E                     _ANSELC	set	3918
  2062                           
  2063                           	psect	stringtext
  2064  0800                     __pstringtext:	
  2065  0800                     STR_1:	
  2066  0800  3450               	retlw	80	;'P'
  2067  0801  3449               	retlw	73	;'I'
  2068  0802  3443               	retlw	67	;'C'
  2069  0803  3420               	retlw	32	;' '
  2070  0804  3431               	retlw	49	;'1'
  2071  0805  3436               	retlw	54	;'6'
  2072  0806  3446               	retlw	70	;'F'
  2073  0807  3431               	retlw	49	;'1'
  2074  0808  3438               	retlw	56	;'8'
  2075  0809  3438               	retlw	56	;'8'
  2076  080A  3435               	retlw	53	;'5'
  2077  080B  3435               	retlw	53	;'5'
  2078  080C  3400               	retlw	0
  2079                           
  2080                           ; #config settings
  2081  0000                     
  2082                           	psect	cinit
  2083  07EE                     start_initialization:	
  2084  07EE                     __initialization:		;BIGRAM
  2085                           
  2086                           ; Initialize objects allocated to BIGRAM
  2087  07EE  300E               	movlw	low __pidataBIGRAM
  2088  07EF  0084               	movwf	4
  2089  07F0  3086               	movlw	(high __pidataBIGRAM)| (0+128)
  2090  07F1  0085               	movwf	5
  2091  07F2  3010               	movlw	low (0+8720)
  2092  07F3  0086               	movwf	6
  2093  07F4  3022               	movlw	high (0+8720)
  2094  07F5  0087               	movwf	7
  2095  07F6  3001               	movlw	1
  2096  07F7  00FF               	movwf	btemp+1
  2097  07F8  30E0               	movlw	224
  2098  07F9  3184  249B         	fcall	init_ram
  2099                           
  2100                           ; Clear objects allocated to BANK0
  2101  07FB  01A9               	clrf	__pbssBANK0& (0+127)
  2102  07FC  01AA               	clrf	(__pbssBANK0+1)& (0+127)
  2103  07FD                     end_of_initialization:	
  2104                           ;End of C runtime variable initialization code
  2105                           
  2106  07FD                     __end_of__initialization:	
  2107  07FD  0020               	movlb	0
  2108  07FE  3185  2D3C         	ljmp	_main	;jump to C main() function
  2109                           
  2110                           	psect	bssBANK0
  2111  0029                     __pbssBANK0:	
  2112  0029                     _Index:	
  2113  0029                     	ds	2
  2114                           
  2115                           	psect	inittext
  2116  049B                     init_ram:	
  2117  049B  00FE               	movwf	126
  2118  049C                     initloop:	
  2119  049C  0012               	moviw fsr0++
  2120  049D  001E               	movwi fsr1++
  2121  049E  3001               	movlw	1
  2122  049F  02FE               	subwf	126,f
  2123  04A0  3000               	movlw	0
  2124  04A1  3BFF               	subwfb	127,f
  2125  04A2  087F               	movf	127,w
  2126  04A3  047E               	iorwf	126,w
  2127  04A4  1903               	btfsc	3,2
  2128  04A5  3400               	retlw	0
  2129  04A6  2C9C               	goto	initloop
  2130                           
  2131                           	psect	cstackCOMMON
  2132  0070                     __pcstackCOMMON:	
  2133  0070                     ?_ConfigureOscillator:	
  2134  0070                     ??_ConfigureOscillator:	
  2135                           ; 1 bytes @ 0x0
  2136                           
  2137  0070                     ?_InitApp:	
  2138                           ; 1 bytes @ 0x0
  2139                           
  2140  0070                     ??_InitApp:	
  2141                           ; 1 bytes @ 0x0
  2142                           
  2143  0070                     ?_LCDInit:	
  2144                           ; 1 bytes @ 0x0
  2145                           
  2146  0070                     ?_LCDClear:	
  2147                           ; 1 bytes @ 0x0
  2148                           
  2149  0070                     ?_LCDCharacter:	
  2150                           ; 1 bytes @ 0x0
  2151                           
  2152  0070                     ?_main:	
  2153                           ; 1 bytes @ 0x0
  2154                           
  2155  0070                     ?___wmul:	
  2156                           ; 2 bytes @ 0x0
  2157                           
  2158  0070                     ___wmul@multiplier:	
  2159                           ; 2 bytes @ 0x0
  2160                           
  2161                           
  2162                           ; 2 bytes @ 0x0
  2163  0070                     	ds	2
  2164  0072                     ___wmul@multiplicand:	
  2165                           
  2166                           ; 2 bytes @ 0x2
  2167  0072                     	ds	2
  2168  0074                     ??___wmul:	
  2169  0074                     ___wmul@product:	
  2170                           ; 1 bytes @ 0x4
  2171                           
  2172                           
  2173                           ; 2 bytes @ 0x4
  2174  0074                     	ds	2
  2175  0076                     ?_LCDWrite:	
  2176  0076                     LCDWrite@data:	
  2177                           ; 1 bytes @ 0x6
  2178                           
  2179                           
  2180                           ; 1 bytes @ 0x6
  2181  0076                     	ds	1
  2182  0077                     ??_LCDWrite:	
  2183                           
  2184                           ; 1 bytes @ 0x7
  2185  0077                     	ds	1
  2186  0078                     LCDWrite@data_or_command:	
  2187                           
  2188                           ; 1 bytes @ 0x8
  2189  0078                     	ds	1
  2190  0079                     LCDWrite@d:	
  2191                           
  2192                           ; 1 bytes @ 0x9
  2193  0079                     	ds	1
  2194  007A                     LCDWrite@i:	
  2195                           
  2196                           ; 1 bytes @ 0xA
  2197  007A                     	ds	1
  2198  007B                     ??_LCDInit:	
  2199  007B                     ??_gotoXY:	
  2200                           ; 1 bytes @ 0xB
  2201                           
  2202  007B                     LCDCharacter@character:	
  2203                           ; 1 bytes @ 0xB
  2204                           
  2205                           
  2206                           ; 1 bytes @ 0xB
  2207  007B                     	ds	1
  2208  007C                     ??_LCDClear:	
  2209  007C                     ?_LCDString:	
  2210                           ; 1 bytes @ 0xC
  2211                           
  2212  007C                     LCDString@characters:	
  2213                           ; 1 bytes @ 0xC
  2214                           
  2215                           
  2216                           ; 2 bytes @ 0xC
  2217  007C                     	ds	2
  2218                           
  2219                           	psect	cstackBANK0
  2220  0020                     __pcstackBANK0:	
  2221  0020                     ?_gotoXY:	
  2222  0020                     ??_LCDCharacter:	
  2223                           ; 1 bytes @ 0x0
  2224                           
  2225  0020                     gotoXY@x:	
  2226                           ; 1 bytes @ 0x0
  2227                           
  2228                           
  2229                           ; 2 bytes @ 0x0
  2230  0020                     	ds	2
  2231  0022                     gotoXY@y:	
  2232                           
  2233                           ; 2 bytes @ 0x2
  2234  0022                     	ds	3
  2235  0025                     ??_LCDString:	
  2236                           
  2237                           ; 1 bytes @ 0x5
  2238  0025                     	ds	1
  2239  0026                     ??_main:	
  2240                           
  2241                           ; 1 bytes @ 0x6
  2242  0026                     	ds	3
  2243                           
  2244                           	psect	maintext
  2245  053C                     __pmaintext:	
  2246 ;;
  2247 ;;Main: autosize = 0, tempsize = 3, incstack = 0, save=0
  2248 ;;
  2249 ;; *************** function _main *****************
  2250 ;; Defined at:
  2251 ;;		line 9 in file "main.c"
  2252 ;; Parameters:    Size  Location     Type
  2253 ;;		None
  2254 ;; Auto vars:     Size  Location     Type
  2255 ;;		None
  2256 ;; Return value:  Size  Location     Type
  2257 ;;                  2   18[None  ] int 
  2258 ;; Registers used:
  2259 ;;		wreg, fsr0l, fsr0h, fsr1l, fsr1h, status,2, status,0, pclath, cstack
  2260 ;; Tracked objects:
  2261 ;;		On entry : B1F/0
  2262 ;;		On exit  : 0/0
  2263 ;;		Unchanged: 0/0
  2264 ;; Data sizes:     COMMON   BANK0   BANK1   BANK2   BANK3   BANK4   BANK5   BANK6   BANK7   BANK8   BANK9  BANK10  BANK1
      +1  BANK12
  2265 ;;      Params:         0       0       0       0       0       0       0       0       0       0       0       0       
      +0       0
  2266 ;;      Locals:         0       0       0       0       0       0       0       0       0       0       0       0       
      +0       0
  2267 ;;      Temps:          0       3       0       0       0       0       0       0       0       0       0       0       
      +0       0
  2268 ;;      Totals:         0       3       0       0       0       0       0       0       0       0       0       0       
      +0       0
  2269 ;;Total ram usage:        3 bytes
  2270 ;; Hardware stack levels required when called:    3
  2271 ;; This function calls:
  2272 ;;		_ConfigureOscillator
  2273 ;;		_InitApp
  2274 ;;		_LCDClear
  2275 ;;		_LCDInit
  2276 ;;		_LCDString
  2277 ;;		_gotoXY
  2278 ;; This function is called by:
  2279 ;;		Startup code after reset
  2280 ;; This function uses a non-reentrant model
  2281 ;;
  2282                           
  2283                           
  2284                           ;psect for function _main
  2285  053C                     _main:	
  2286                           
  2287                           ;main.c: 12: ConfigureOscillator();
  2288                           
  2289                           ;incstack = 0
  2290                           ; Regs used in _main: [wreg-fsr1h+status,2+status,0+pclath+cstack]
  2291  053C  3184  2491  3185   	fcall	_ConfigureOscillator
  2292                           
  2293                           ;main.c: 15: InitApp();
  2294  053F  3184  2492  3185   	fcall	_InitApp
  2295                           
  2296                           ;main.c: 21: LCDInit();
  2297  0542  3185  257A  3185   	fcall	_LCDInit
  2298                           
  2299                           ;main.c: 22: LCDClear();
  2300  0545  3185  250F  3185   	fcall	_LCDClear
  2301  0548                     l769:	
  2302                           ;main.c: 26: while(1)
  2303                           
  2304                           
  2305                           ;main.c: 27: {
  2306                           ;main.c: 28: RC2 = 1;
  2307  0548  0020               	movlb	0	; select bank0
  2308  0549  150E               	bsf	14,2	;volatile
  2309                           
  2310                           ;main.c: 29: _delay((unsigned long)((1000)*(1000000/4000.0)));
  2311  054A  3002               	movlw	2
  2312  054B  00A8               	movwf	??_main+2
  2313  054C  3045               	movlw	69
  2314  054D  00A7               	movwf	??_main+1
  2315  054E  30A9               	movlw	169
  2316  054F  00A6               	movwf	??_main
  2317  0550                     u317:	
  2318  0550  0BA6               	decfsz	??_main,f
  2319  0551  2D50               	goto	u317
  2320  0552  0BA7               	decfsz	??_main+1,f
  2321  0553  2D50               	goto	u317
  2322  0554  0BA8               	decfsz	??_main+2,f
  2323  0555  2D50               	goto	u317
  2324  0556  3200               	nop2
  2325                           
  2326                           ;main.c: 30: RC2 = 0;
  2327  0557  0020               	movlb	0	; select bank0
  2328  0558  110E               	bcf	14,2	;volatile
  2329                           
  2330                           ;main.c: 31: _delay((unsigned long)((1000)*(1000000/4000.0)));
  2331  0559  3002               	movlw	2
  2332  055A  00A8               	movwf	??_main+2
  2333  055B  3045               	movlw	69
  2334  055C  00A7               	movwf	??_main+1
  2335  055D  30A9               	movlw	169
  2336  055E  00A6               	movwf	??_main
  2337  055F                     u327:	
  2338  055F  0BA6               	decfsz	??_main,f
  2339  0560  2D5F               	goto	u327
  2340  0561  0BA7               	decfsz	??_main+1,f
  2341  0562  2D5F               	goto	u327
  2342  0563  0BA8               	decfsz	??_main+2,f
  2343  0564  2D5F               	goto	u327
  2344  0565  3200               	nop2
  2345                           
  2346                           ;main.c: 32: gotoXY(1,1);
  2347  0566  3001               	movlw	1
  2348  0567  0020               	movlb	0	; select bank0
  2349  0568  00A0               	movwf	gotoXY@x
  2350  0569  3000               	movlw	0
  2351  056A  00A1               	movwf	gotoXY@x+1
  2352  056B  3001               	movlw	1
  2353  056C  00A2               	movwf	gotoXY@y
  2354  056D  3000               	movlw	0
  2355  056E  00A3               	movwf	gotoXY@y+1
  2356  056F  3184  24A7  3185   	fcall	_gotoXY
  2357                           
  2358                           ;main.c: 33: LCDString("PIC 16F18855");
  2359  0572  3000               	movlw	low (STR_1| (0+32768))
  2360  0573  00FC               	movwf	LCDString@characters
  2361  0574  3088               	movlw	high (STR_1| (0+32768))
  2362  0575  00FD               	movwf	LCDString@characters+1
  2363  0576  3184  24BB  3185   	fcall	_LCDString
  2364  0579  2D48               	goto	l769
  2365  057A                     __end_of_main:	
  2366                           ;main.c: 35: }
  2367                           ;main.c: 36: return(1);
  2368                           ;	Return value of _main is never used
  2369                           
  2370                           
  2371                           	psect	text1
  2372  04BB                     __ptext1:	
  2373 ;; *************** function _LCDString *****************
  2374 ;; Defined at:
  2375 ;;		line 149 in file "user.c"
  2376 ;; Parameters:    Size  Location     Type
  2377 ;;  characters      2   12[COMMON] PTR unsigned char 
  2378 ;;		 -> STR_1(13), 
  2379 ;; Auto vars:     Size  Location     Type
  2380 ;;		None
  2381 ;; Return value:  Size  Location     Type
  2382 ;;                  1    wreg      void 
  2383 ;; Registers used:
  2384 ;;		wreg, fsr0l, fsr0h, fsr1l, fsr1h, status,2, status,0, pclath, cstack
  2385 ;; Tracked objects:
  2386 ;;		On entry : 0/0
  2387 ;;		On exit  : 0/0
  2388 ;;		Unchanged: 0/0
  2389 ;; Data sizes:     COMMON   BANK0   BANK1   BANK2   BANK3   BANK4   BANK5   BANK6   BANK7   BANK8   BANK9  BANK10  BANK1
      +1  BANK12
  2390 ;;      Params:         2       0       0       0       0       0       0       0       0       0       0       0       
      +0       0
  2391 ;;      Locals:         0       0       0       0       0       0       0       0       0       0       0       0       
      +0       0
  2392 ;;      Temps:          0       1       0       0       0       0       0       0       0       0       0       0       
      +0       0
  2393 ;;      Totals:         2       1       0       0       0       0       0       0       0       0       0       0       
      +0       0
  2394 ;;Total ram usage:        3 bytes
  2395 ;; Hardware stack levels used:    1
  2396 ;; Hardware stack levels required when called:    2
  2397 ;; This function calls:
  2398 ;;		_LCDCharacter
  2399 ;; This function is called by:
  2400 ;;		_main
  2401 ;; This function uses a non-reentrant model
  2402 ;;
  2403                           
  2404                           
  2405                           ;psect for function _LCDString
  2406  04BB                     _LCDString:	
  2407  04BB                     l761:	
  2408                           ;user.c: 150: while (*characters)
  2409                           
  2410                           ;incstack = 0
  2411                           ; Regs used in _LCDString: [wreg-fsr1h+status,2+status,0+pclath+cstack]
  2412                           
  2413  04BB  087C               	movf	LCDString@characters,w
  2414  04BC  0084               	movwf	4
  2415  04BD  087D               	movf	LCDString@characters+1,w
  2416  04BE  0085               	movwf	5
  2417  04BF  0012               	moviw fsr0++
  2418  04C0  1903               	btfsc	3,2
  2419  04C1  0008               	return
  2420                           
  2421                           ;user.c: 151: LCDCharacter(*characters++);
  2422  04C2  087C               	movf	LCDString@characters,w
  2423  04C3  0084               	movwf	4
  2424  04C4  087D               	movf	LCDString@characters+1,w
  2425  04C5  0085               	movwf	5
  2426  04C6  0800               	movf	0,w	;code access
  2427  04C7  3185  25BE  3184   	fcall	_LCDCharacter
  2428  04CA  3001               	movlw	1
  2429  04CB  07FC               	addwf	LCDString@characters,f
  2430  04CC  3000               	movlw	0
  2431  04CD  3DFD               	addwfc	LCDString@characters+1,f
  2432  04CE  2CBB               	goto	l761
  2433  04CF                     __end_of_LCDString:	
  2434                           
  2435                           	psect	text2
  2436  05BE                     __ptext2:	
  2437 ;; *************** function _LCDCharacter *****************
  2438 ;; Defined at:
  2439 ;;		line 138 in file "user.c"
  2440 ;; Parameters:    Size  Location     Type
  2441 ;;  character       1    wreg     unsigned char 
  2442 ;; Auto vars:     Size  Location     Type
  2443 ;;  character       1   11[COMMON] unsigned char 
  2444 ;; Return value:  Size  Location     Type
  2445 ;;                  1    wreg      void 
  2446 ;; Registers used:
  2447 ;;		wreg, fsr1l, fsr1h, status,2, status,0, pclath, cstack
  2448 ;; Tracked objects:
  2449 ;;		On entry : 0/0
  2450 ;;		On exit  : 0/0
  2451 ;;		Unchanged: 0/0
  2452 ;; Data sizes:     COMMON   BANK0   BANK1   BANK2   BANK3   BANK4   BANK5   BANK6   BANK7   BANK8   BANK9  BANK10  BANK1
      +1  BANK12
  2453 ;;      Params:         0       0       0       0       0       0       0       0       0       0       0       0       
      +0       0
  2454 ;;      Locals:         1       0       0       0       0       0       0       0       0       0       0       0       
      +0       0
  2455 ;;      Temps:          0       5       0       0       0       0       0       0       0       0       0       0       
      +0       0
  2456 ;;      Totals:         1       5       0       0       0       0       0       0       0       0       0       0       
      +0       0
  2457 ;;Total ram usage:        6 bytes
  2458 ;; Hardware stack levels used:    1
  2459 ;; Hardware stack levels required when called:    1
  2460 ;; This function calls:
  2461 ;;		_LCDWrite
  2462 ;;		___wmul
  2463 ;; This function is called by:
  2464 ;;		_LCDString
  2465 ;; This function uses a non-reentrant model
  2466 ;;
  2467                           
  2468                           
  2469                           ;psect for function _LCDCharacter
  2470  05BE                     _LCDCharacter:	
  2471                           
  2472                           ;incstack = 0
  2473                           ; Regs used in _LCDCharacter: [wreg+fsr1l+fsr1h+status,2+status,0+pclath+cstack]
  2474                           ;LCDCharacter@character stored from wreg
  2475  05BE  00FB               	movwf	LCDCharacter@character
  2476                           
  2477                           ;user.c: 139: LCDWrite(1, 0x00);
  2478  05BF  01F6               	clrf	LCDWrite@data
  2479  05C0  3001               	movlw	1
  2480  05C1  3184  24EA  3185   	fcall	_LCDWrite
  2481                           
  2482                           ;user.c: 141: for (Index = 0 ; Index < 5 ; Index++)
  2483  05C4  0020               	movlb	0	; select bank0
  2484  05C5  01A9               	clrf	_Index
  2485  05C6  01AA               	clrf	_Index+1
  2486  05C7  082A               	movf	_Index+1,w
  2487  05C8  3A80               	xorlw	128
  2488  05C9  00A0               	movwf	??_LCDCharacter
  2489  05CA  3080               	movlw	128
  2490  05CB  0220               	subwf	??_LCDCharacter,w
  2491  05CC  1D03               	skipz
  2492  05CD  2DD0               	goto	u245
  2493  05CE  3005               	movlw	5
  2494  05CF  0229               	subwf	_Index,w
  2495  05D0                     u245:	
  2496  05D0  1803               	btfsc	3,0
  2497  05D1  2E09               	goto	l721
  2498  05D2                     l715:	
  2499                           
  2500                           ;user.c: 142: LCDWrite(1, ASCII[character - 0x20][Index]);
  2501  05D2  087B               	movf	LCDCharacter@character,w
  2502  05D3  3EE0               	addlw	224
  2503  05D4  00F0               	movwf	___wmul@multiplier
  2504  05D5  30FF               	movlw	255
  2505  05D6  1803               	skipnc
  2506  05D7  3000               	movlw	0
  2507  05D8  00F1               	movwf	___wmul@multiplier+1
  2508  05D9  3005               	movlw	5
  2509  05DA  00F2               	movwf	___wmul@multiplicand
  2510  05DB  3000               	movlw	0
  2511  05DC  00F3               	movwf	___wmul@multiplicand+1
  2512  05DD  3184  24CF  3185   	fcall	___wmul
  2513  05E0  3010               	movlw	16
  2514  05E1  0020               	movlb	0	; select bank0
  2515  05E2  00A0               	movwf	??_LCDCharacter
  2516  05E3  3022               	movlw	34
  2517  05E4  00A1               	movwf	??_LCDCharacter+1
  2518  05E5  0870               	movf	?___wmul,w
  2519  05E6  0720               	addwf	??_LCDCharacter,w
  2520  05E7  00A2               	movwf	??_LCDCharacter+2
  2521  05E8  0871               	movf	?___wmul+1,w
  2522  05E9  3D21               	addwfc	??_LCDCharacter+1,w
  2523  05EA  00A3               	movwf	??_LCDCharacter+3
  2524  05EB  0829               	movf	_Index,w
  2525  05EC  0722               	addwf	??_LCDCharacter+2,w
  2526  05ED  0086               	movwf	6
  2527  05EE  082A               	movf	_Index+1,w
  2528  05EF  3D23               	addwfc	??_LCDCharacter+3,w
  2529  05F0  0087               	movwf	7
  2530  05F1  0801               	movf	1,w
  2531  05F2  00A4               	movwf	??_LCDCharacter+4
  2532  05F3  0824               	movf	??_LCDCharacter+4,w
  2533  05F4  00F6               	movwf	LCDWrite@data
  2534  05F5  3001               	movlw	1
  2535  05F6  3184  24EA  3185   	fcall	_LCDWrite
  2536  05F9  3001               	movlw	1
  2537  05FA  0020               	movlb	0	; select bank0
  2538  05FB  07A9               	addwf	_Index,f
  2539  05FC  3000               	movlw	0
  2540  05FD  3DAA               	addwfc	_Index+1,f
  2541  05FE  082A               	movf	_Index+1,w
  2542  05FF  3A80               	xorlw	128
  2543  0600  00A0               	movwf	??_LCDCharacter
  2544  0601  3080               	movlw	128
  2545  0602  0220               	subwf	??_LCDCharacter,w
  2546  0603  1D03               	skipz
  2547  0604  2E07               	goto	u255
  2548  0605  3005               	movlw	5
  2549  0606  0229               	subwf	_Index,w
  2550  0607                     u255:	
  2551  0607  1C03               	skipc
  2552  0608  2DD2               	goto	l715
  2553  0609                     l721:	
  2554                           
  2555                           ;user.c: 145: LCDWrite(1, 0x00);
  2556  0609  01F6               	clrf	LCDWrite@data
  2557  060A  3001               	movlw	1
  2558  060B  3184  24EA         	fcall	_LCDWrite
  2559  060D  0008               	return
  2560  060E                     __end_of_LCDCharacter:	
  2561                           
  2562                           	psect	text3
  2563  04CF                     __ptext3:	
  2564 ;; *************** function ___wmul *****************
  2565 ;; Defined at:
  2566 ;;		line 15 in file "C:\Program Files (x86)\Microchip\xc8\v1.38\sources\common\Umul16.c"
  2567 ;; Parameters:    Size  Location     Type
  2568 ;;  multiplier      2    0[COMMON] unsigned int 
  2569 ;;  multiplicand    2    2[COMMON] unsigned int 
  2570 ;; Auto vars:     Size  Location     Type
  2571 ;;  product         2    4[COMMON] unsigned int 
  2572 ;; Return value:  Size  Location     Type
  2573 ;;                  2    0[COMMON] unsigned int 
  2574 ;; Registers used:
  2575 ;;		wreg, status,2, status,0
  2576 ;; Tracked objects:
  2577 ;;		On entry : 0/0
  2578 ;;		On exit  : 0/0
  2579 ;;		Unchanged: 0/0
  2580 ;; Data sizes:     COMMON   BANK0   BANK1   BANK2   BANK3   BANK4   BANK5   BANK6   BANK7   BANK8   BANK9  BANK10  BANK1
      +1  BANK12
  2581 ;;      Params:         4       0       0       0       0       0       0       0       0       0       0       0       
      +0       0
  2582 ;;      Locals:         2       0       0       0       0       0       0       0       0       0       0       0       
      +0       0
  2583 ;;      Temps:          0       0       0       0       0       0       0       0       0       0       0       0       
      +0       0
  2584 ;;      Totals:         6       0       0       0       0       0       0       0       0       0       0       0       
      +0       0
  2585 ;;Total ram usage:        6 bytes
  2586 ;; Hardware stack levels used:    1
  2587 ;; This function calls:
  2588 ;;		Nothing
  2589 ;; This function is called by:
  2590 ;;		_LCDCharacter
  2591 ;; This function uses a non-reentrant model
  2592 ;;
  2593                           
  2594                           
  2595                           ;psect for function ___wmul
  2596  04CF                     ___wmul:	
  2597                           
  2598                           ;incstack = 0
  2599                           ; Regs used in ___wmul: [wreg+status,2+status,0]
  2600  04CF  01F4               	clrf	___wmul@product
  2601  04D0  01F5               	clrf	___wmul@product+1
  2602  04D1                     l693:	
  2603  04D1  1C70               	btfss	___wmul@multiplier,0
  2604  04D2  2CD7               	goto	l167
  2605  04D3  0872               	movf	___wmul@multiplicand,w
  2606  04D4  07F4               	addwf	___wmul@product,f
  2607  04D5  0873               	movf	___wmul@multiplicand+1,w
  2608  04D6  3DF5               	addwfc	___wmul@product+1,f
  2609  04D7                     l167:	
  2610  04D7  3001               	movlw	1
  2611  04D8                     u215:	
  2612  04D8  35F2               	lslf	___wmul@multiplicand,f
  2613  04D9  0DF3               	rlf	___wmul@multiplicand+1,f
  2614  04DA  0B89               	decfsz	9,f
  2615  04DB  2CD8               	goto	u215
  2616  04DC  3001               	movlw	1
  2617  04DD                     u225:	
  2618  04DD  36F1               	lsrf	___wmul@multiplier+1,f
  2619  04DE  0CF0               	rrf	___wmul@multiplier,f
  2620  04DF  0B89               	decfsz	9,f
  2621  04E0  2CDD               	goto	u225
  2622  04E1  0870               	movf	___wmul@multiplier,w
  2623  04E2  0471               	iorwf	___wmul@multiplier+1,w
  2624  04E3  1D03               	btfss	3,2
  2625  04E4  2CD1               	goto	l693
  2626  04E5  0875               	movf	___wmul@product+1,w
  2627  04E6  00F1               	movwf	?___wmul+1
  2628  04E7  0874               	movf	___wmul@product,w
  2629  04E8  00F0               	movwf	?___wmul
  2630  04E9  0008               	return
  2631  04EA                     __end_of___wmul:	
  2632                           
  2633                           	psect	text4
  2634  057A                     __ptext4:	
  2635 ;; *************** function _LCDInit *****************
  2636 ;; Defined at:
  2637 ;;		line 163 in file "user.c"
  2638 ;; Parameters:    Size  Location     Type
  2639 ;;		None
  2640 ;; Auto vars:     Size  Location     Type
  2641 ;;		None
  2642 ;; Return value:  Size  Location     Type
  2643 ;;                  1    wreg      void 
  2644 ;; Registers used:
  2645 ;;		wreg, status,2, status,0, pclath, cstack
  2646 ;; Tracked objects:
  2647 ;;		On entry : 0/0
  2648 ;;		On exit  : 0/0
  2649 ;;		Unchanged: 0/0
  2650 ;; Data sizes:     COMMON   BANK0   BANK1   BANK2   BANK3   BANK4   BANK5   BANK6   BANK7   BANK8   BANK9  BANK10  BANK1
      +1  BANK12
  2651 ;;      Params:         0       0       0       0       0       0       0       0       0       0       0       0       
      +0       0
  2652 ;;      Locals:         0       0       0       0       0       0       0       0       0       0       0       0       
      +0       0
  2653 ;;      Temps:          1       0       0       0       0       0       0       0       0       0       0       0       
      +0       0
  2654 ;;      Totals:         1       0       0       0       0       0       0       0       0       0       0       0       
      +0       0
  2655 ;;Total ram usage:        1 bytes
  2656 ;; Hardware stack levels used:    1
  2657 ;; Hardware stack levels required when called:    1
  2658 ;; This function calls:
  2659 ;;		_LCDWrite
  2660 ;; This function is called by:
  2661 ;;		_main
  2662 ;; This function uses a non-reentrant model
  2663 ;;
  2664                           
  2665                           
  2666                           ;psect for function _LCDInit
  2667  057A                     _LCDInit:	
  2668                           
  2669                           ;user.c: 166: TRISCbits.TRISC3=0;
  2670                           
  2671                           ;incstack = 0
  2672                           ; Regs used in _LCDInit: [wreg+status,2+status,0+pclath+cstack]
  2673  057A  0020               	movlb	0	; select bank0
  2674  057B  1193               	bcf	19,3	;volatile
  2675                           
  2676                           ;user.c: 167: TRISCbits.TRISC4=0;
  2677  057C  1213               	bcf	19,4	;volatile
  2678                           
  2679                           ;user.c: 168: TRISCbits.TRISC5=0;
  2680  057D  1293               	bcf	19,5	;volatile
  2681                           
  2682                           ;user.c: 169: TRISCbits.TRISC6=0;
  2683  057E  1313               	bcf	19,6	;volatile
  2684                           
  2685                           ;user.c: 170: TRISCbits.TRISC7=0;
  2686  057F  1393               	bcf	19,7	;volatile
  2687                           
  2688                           ;user.c: 172: TRISCbits.TRISC4=0;
  2689  0580  1213               	bcf	19,4	;volatile
  2690                           
  2691                           ;user.c: 173: TRISCbits.TRISC5=0;
  2692  0581  1293               	bcf	19,5	;volatile
  2693                           
  2694                           ;user.c: 174: TRISCbits.TRISC3=0;
  2695  0582  1193               	bcf	19,3	;volatile
  2696                           
  2697                           ;user.c: 184: TRISCbits.TRISC7=0;
  2698  0583  1393               	bcf	19,7	;volatile
  2699                           
  2700                           ;user.c: 186: _delay((unsigned long)((1)*(1000000/4000.0)));
  2701  0584  3053               	movlw	83
  2702  0585  00FB               	movwf	??_LCDInit
  2703  0586                     u337:	
  2704  0586  0BFB               	decfsz	??_LCDInit,f
  2705  0587  2D86               	goto	u337
  2706                           
  2707                           ;user.c: 187: TRISCbits.TRISC7 = 1;
  2708  0588  0020               	movlb	0	; select bank0
  2709  0589  1793               	bsf	19,7	;volatile
  2710                           
  2711                           ;user.c: 188: _delay((unsigned long)((1)*(1000000/4000.0)));
  2712  058A  3053               	movlw	83
  2713  058B  00FB               	movwf	??_LCDInit
  2714  058C                     u347:	
  2715  058C  0BFB               	decfsz	??_LCDInit,f
  2716  058D  2D8C               	goto	u347
  2717                           
  2718                           ;user.c: 190: LCDWrite(0, 0x21);
  2719  058E  3021               	movlw	33
  2720  058F  00FB               	movwf	??_LCDInit
  2721  0590  087B               	movf	??_LCDInit,w
  2722  0591  00F6               	movwf	LCDWrite@data
  2723  0592  3000               	movlw	0
  2724  0593  3184  24EA  3185   	fcall	_LCDWrite
  2725                           
  2726                           ;user.c: 191: LCDWrite(0, 0xBB);
  2727  0596  30BB               	movlw	187
  2728  0597  00FB               	movwf	??_LCDInit
  2729  0598  087B               	movf	??_LCDInit,w
  2730  0599  00F6               	movwf	LCDWrite@data
  2731  059A  3000               	movlw	0
  2732  059B  3184  24EA  3185   	fcall	_LCDWrite
  2733                           
  2734                           ;user.c: 192: LCDWrite(0, 0x04);
  2735  059E  3004               	movlw	4
  2736  059F  00FB               	movwf	??_LCDInit
  2737  05A0  087B               	movf	??_LCDInit,w
  2738  05A1  00F6               	movwf	LCDWrite@data
  2739  05A2  3000               	movlw	0
  2740  05A3  3184  24EA  3185   	fcall	_LCDWrite
  2741                           
  2742                           ;user.c: 193: LCDWrite(0, 0x14);
  2743  05A6  3014               	movlw	20
  2744  05A7  00FB               	movwf	??_LCDInit
  2745  05A8  087B               	movf	??_LCDInit,w
  2746  05A9  00F6               	movwf	LCDWrite@data
  2747  05AA  3000               	movlw	0
  2748  05AB  3184  24EA  3185   	fcall	_LCDWrite
  2749                           
  2750                           ;user.c: 195: LCDWrite(0, 0x20);
  2751  05AE  3020               	movlw	32
  2752  05AF  00FB               	movwf	??_LCDInit
  2753  05B0  087B               	movf	??_LCDInit,w
  2754  05B1  00F6               	movwf	LCDWrite@data
  2755  05B2  3000               	movlw	0
  2756  05B3  3184  24EA  3185   	fcall	_LCDWrite
  2757                           
  2758                           ;user.c: 196: LCDWrite(0, 0x0D);
  2759  05B6  300D               	movlw	13
  2760  05B7  00FB               	movwf	??_LCDInit
  2761  05B8  087B               	movf	??_LCDInit,w
  2762  05B9  00F6               	movwf	LCDWrite@data
  2763  05BA  3000               	movlw	0
  2764  05BB  3184  24EA         	fcall	_LCDWrite
  2765  05BD  0008               	return
  2766  05BE                     __end_of_LCDInit:	
  2767                           
  2768                           	psect	text5
  2769  050F                     __ptext5:	
  2770 ;; *************** function _LCDClear *****************
  2771 ;; Defined at:
  2772 ;;		line 155 in file "user.c"
  2773 ;; Parameters:    Size  Location     Type
  2774 ;;		None
  2775 ;; Auto vars:     Size  Location     Type
  2776 ;;		None
  2777 ;; Return value:  Size  Location     Type
  2778 ;;                  1    wreg      void 
  2779 ;; Registers used:
  2780 ;;		wreg, status,2, status,0, pclath, cstack
  2781 ;; Tracked objects:
  2782 ;;		On entry : 0/0
  2783 ;;		On exit  : 0/0
  2784 ;;		Unchanged: 0/0
  2785 ;; Data sizes:     COMMON   BANK0   BANK1   BANK2   BANK3   BANK4   BANK5   BANK6   BANK7   BANK8   BANK9  BANK10  BANK1
      +1  BANK12
  2786 ;;      Params:         0       0       0       0       0       0       0       0       0       0       0       0       
      +0       0
  2787 ;;      Locals:         0       0       0       0       0       0       0       0       0       0       0       0       
      +0       0
  2788 ;;      Temps:          1       0       0       0       0       0       0       0       0       0       0       0       
      +0       0
  2789 ;;      Totals:         1       0       0       0       0       0       0       0       0       0       0       0       
      +0       0
  2790 ;;Total ram usage:        1 bytes
  2791 ;; Hardware stack levels used:    1
  2792 ;; Hardware stack levels required when called:    2
  2793 ;; This function calls:
  2794 ;;		_LCDWrite
  2795 ;;		_gotoXY
  2796 ;; This function is called by:
  2797 ;;		_main
  2798 ;; This function uses a non-reentrant model
  2799 ;;
  2800                           
  2801                           
  2802                           ;psect for function _LCDClear
  2803  050F                     _LCDClear:	
  2804                           
  2805                           ;user.c: 156: for (Index = 0 ; Index < (84 * 48 / 8) ; Index++)
  2806                           
  2807                           ;incstack = 0
  2808                           ; Regs used in _LCDClear: [wreg+status,2+status,0+pclath+cstack]
  2809  050F  0020               	movlb	0	; select bank0
  2810  0510  01A9               	clrf	_Index
  2811  0511  01AA               	clrf	_Index+1
  2812  0512  082A               	movf	_Index+1,w
  2813  0513  3A80               	xorlw	128
  2814  0514  00FC               	movwf	??_LCDClear
  2815  0515  3081               	movlw	129
  2816  0516  027C               	subwf	??_LCDClear,w
  2817  0517  1D03               	skipz
  2818  0518  2D1B               	goto	u265
  2819  0519  30F8               	movlw	248
  2820  051A  0229               	subwf	_Index,w
  2821  051B                     u265:	
  2822  051B  1803               	btfsc	3,0
  2823  051C  2D32               	goto	l753
  2824  051D                     l747:	
  2825                           
  2826                           ;user.c: 157: LCDWrite(1, 0x00);
  2827  051D  01F6               	clrf	LCDWrite@data
  2828  051E  3001               	movlw	1
  2829  051F  3184  24EA  3185   	fcall	_LCDWrite
  2830  0522  3001               	movlw	1
  2831  0523  0020               	movlb	0	; select bank0
  2832  0524  07A9               	addwf	_Index,f
  2833  0525  3000               	movlw	0
  2834  0526  3DAA               	addwfc	_Index+1,f
  2835  0527  082A               	movf	_Index+1,w
  2836  0528  3A80               	xorlw	128
  2837  0529  00FC               	movwf	??_LCDClear
  2838  052A  3081               	movlw	129
  2839  052B  027C               	subwf	??_LCDClear,w
  2840  052C  1D03               	skipz
  2841  052D  2D30               	goto	u275
  2842  052E  30F8               	movlw	248
  2843  052F  0229               	subwf	_Index,w
  2844  0530                     u275:	
  2845  0530  1C03               	skipc
  2846  0531  2D1D               	goto	l747
  2847  0532                     l753:	
  2848                           
  2849                           ;user.c: 159: gotoXY(0, 0);
  2850  0532  3000               	movlw	0
  2851  0533  0020               	movlb	0	; select bank0
  2852  0534  00A0               	movwf	gotoXY@x
  2853  0535  00A1               	movwf	gotoXY@x+1
  2854  0536  3000               	movlw	0
  2855  0537  00A2               	movwf	gotoXY@y
  2856  0538  00A3               	movwf	gotoXY@y+1
  2857  0539  3184  24A7         	fcall	_gotoXY
  2858  053B  0008               	return
  2859  053C                     __end_of_LCDClear:	
  2860                           
  2861                           	psect	text6
  2862  04A7                     __ptext6:	
  2863 ;; *************** function _gotoXY *****************
  2864 ;; Defined at:
  2865 ;;		line 122 in file "user.c"
  2866 ;; Parameters:    Size  Location     Type
  2867 ;;  x               2    0[BANK0 ] int 
  2868 ;;  y               2    2[BANK0 ] int 
  2869 ;; Auto vars:     Size  Location     Type
  2870 ;;		None
  2871 ;; Return value:  Size  Location     Type
  2872 ;;                  1    wreg      void 
  2873 ;; Registers used:
  2874 ;;		wreg, status,2, status,0, pclath, cstack
  2875 ;; Tracked objects:
  2876 ;;		On entry : 0/0
  2877 ;;		On exit  : 0/0
  2878 ;;		Unchanged: 0/0
  2879 ;; Data sizes:     COMMON   BANK0   BANK1   BANK2   BANK3   BANK4   BANK5   BANK6   BANK7   BANK8   BANK9  BANK10  BANK1
      +1  BANK12
  2880 ;;      Params:         0       4       0       0       0       0       0       0       0       0       0       0       
      +0       0
  2881 ;;      Locals:         0       0       0       0       0       0       0       0       0       0       0       0       
      +0       0
  2882 ;;      Temps:          1       0       0       0       0       0       0       0       0       0       0       0       
      +0       0
  2883 ;;      Totals:         1       4       0       0       0       0       0       0       0       0       0       0       
      +0       0
  2884 ;;Total ram usage:        5 bytes
  2885 ;; Hardware stack levels used:    1
  2886 ;; Hardware stack levels required when called:    1
  2887 ;; This function calls:
  2888 ;;		_LCDWrite
  2889 ;; This function is called by:
  2890 ;;		_main
  2891 ;;		_LCDClear
  2892 ;; This function uses a non-reentrant model
  2893 ;;
  2894                           
  2895                           
  2896                           ;psect for function _gotoXY
  2897  04A7                     _gotoXY:	
  2898                           
  2899                           ;user.c: 123: LCDWrite(0, 0x80 | x);
  2900                           
  2901                           ;incstack = 0
  2902                           ; Regs used in _gotoXY: [wreg+status,2+status,0+pclath+cstack]
  2903  04A7  0020               	movlb	0	; select bank0
  2904  04A8  0820               	movf	gotoXY@x,w
  2905  04A9  3880               	iorlw	128
  2906  04AA  00FB               	movwf	??_gotoXY
  2907  04AB  087B               	movf	??_gotoXY,w
  2908  04AC  00F6               	movwf	LCDWrite@data
  2909  04AD  3000               	movlw	0
  2910  04AE  3184  24EA  3184   	fcall	_LCDWrite
  2911                           
  2912                           ;user.c: 124: LCDWrite(0, 0x40 | y);
  2913  04B1  0020               	movlb	0	; select bank0
  2914  04B2  0822               	movf	gotoXY@y,w
  2915  04B3  3840               	iorlw	64
  2916  04B4  00FB               	movwf	??_gotoXY
  2917  04B5  087B               	movf	??_gotoXY,w
  2918  04B6  00F6               	movwf	LCDWrite@data
  2919  04B7  3000               	movlw	0
  2920  04B8  3184  24EA         	fcall	_LCDWrite
  2921  04BA  0008               	return
  2922  04BB                     __end_of_gotoXY:	
  2923                           
  2924                           	psect	text7
  2925  04EA                     __ptext7:	
  2926 ;; *************** function _LCDWrite *****************
  2927 ;; Defined at:
  2928 ;;		line 202 in file "user.c"
  2929 ;; Parameters:    Size  Location     Type
  2930 ;;  data_or_comm    1    wreg     unsigned char 
  2931 ;;  data            1    6[COMMON] unsigned char 
  2932 ;; Auto vars:     Size  Location     Type
  2933 ;;  data_or_comm    1    8[COMMON] unsigned char 
  2934 ;;  i               1   10[COMMON] unsigned char 
  2935 ;;  d               1    9[COMMON] unsigned char 
  2936 ;; Return value:  Size  Location     Type
  2937 ;;                  1    wreg      void 
  2938 ;; Registers used:
  2939 ;;		wreg, status,2, status,0
  2940 ;; Tracked objects:
  2941 ;;		On entry : 0/0
  2942 ;;		On exit  : 0/0
  2943 ;;		Unchanged: 0/0
  2944 ;; Data sizes:     COMMON   BANK0   BANK1   BANK2   BANK3   BANK4   BANK5   BANK6   BANK7   BANK8   BANK9  BANK10  BANK1
      +1  BANK12
  2945 ;;      Params:         1       0       0       0       0       0       0       0       0       0       0       0       
      +0       0
  2946 ;;      Locals:         3       0       0       0       0       0       0       0       0       0       0       0       
      +0       0
  2947 ;;      Temps:          1       0       0       0       0       0       0       0       0       0       0       0       
      +0       0
  2948 ;;      Totals:         5       0       0       0       0       0       0       0       0       0       0       0       
      +0       0
  2949 ;;Total ram usage:        5 bytes
  2950 ;; Hardware stack levels used:    1
  2951 ;; This function calls:
  2952 ;;		Nothing
  2953 ;; This function is called by:
  2954 ;;		_gotoXY
  2955 ;;		_LCDCharacter
  2956 ;;		_LCDClear
  2957 ;;		_LCDInit
  2958 ;;		_LCDBitmap
  2959 ;; This function uses a non-reentrant model
  2960 ;;
  2961                           
  2962                           
  2963                           ;psect for function _LCDWrite
  2964  04EA                     _LCDWrite:	
  2965                           
  2966                           ;incstack = 0
  2967                           ; Regs used in _LCDWrite: [wreg+status,2+status,0]
  2968                           ;LCDWrite@data_or_command stored from wreg
  2969  04EA  00F8               	movwf	LCDWrite@data_or_command
  2970                           
  2971                           ;user.c: 203: unsigned char i,d;
  2972                           ;user.c: 205: d=data;
  2973  04EB  0876               	movf	LCDWrite@data,w
  2974  04EC  00F7               	movwf	??_LCDWrite
  2975  04ED  0877               	movf	??_LCDWrite,w
  2976  04EE  00F9               	movwf	LCDWrite@d
  2977                           
  2978                           ;user.c: 206: if(data_or_command==0)TRISCbits.TRISC3=0;
  2979  04EF  0878               	movf	LCDWrite@data_or_command,w
  2980  04F0  1D03               	btfss	3,2
  2981  04F1  2CF5               	goto	l77
  2982  04F2  0020               	movlb	0	; select bank0
  2983  04F3  1193               	bcf	19,3	;volatile
  2984  04F4  2CF7               	goto	l78
  2985  04F5                     l77:	
  2986                           
  2987                           ;user.c: 207: else TRISCbits.TRISC3=1;
  2988  04F5  0020               	movlb	0	; select bank0
  2989  04F6  1593               	bsf	19,3	;volatile
  2990  04F7                     l78:	
  2991                           
  2992                           ;user.c: 211: TRISCbits.TRISC6=0;
  2993  04F7  1313               	bcf	19,6	;volatile
  2994                           
  2995                           ;user.c: 214: for(i=0;i<8;i++)
  2996  04F8  01FA               	clrf	LCDWrite@i
  2997  04F9  3008               	movlw	8
  2998  04FA  027A               	subwf	LCDWrite@i,w
  2999  04FB  1803               	btfsc	3,0
  3000  04FC  2D0D               	goto	l80
  3001  04FD                     l79:	
  3002                           
  3003                           ;user.c: 215: {
  3004                           ;user.c: 216: TRISCbits.TRISC4=0;
  3005  04FD  1213               	bcf	19,4	;volatile
  3006                           
  3007                           ;user.c: 217: if(d&0x80)TRISCbits.TRISC4=1;
  3008  04FE  1FF9               	btfss	LCDWrite@d,7
  3009  04FF  2D01               	goto	l81
  3010  0500  1613               	bsf	19,4	;volatile
  3011  0501                     l81:	
  3012                           
  3013                           ;user.c: 218: TRISCbits.TRISC5=1;
  3014  0501  1693               	bsf	19,5	;volatile
  3015                           
  3016                           ;user.c: 219: d<<=1;
  3017  0502  1003               	clrc
  3018  0503  0DF9               	rlf	LCDWrite@d,f
  3019                           
  3020                           ;user.c: 220: TRISCbits.TRISC5=0;
  3021  0504  1293               	bcf	19,5	;volatile
  3022  0505  3001               	movlw	1
  3023  0506  00F7               	movwf	??_LCDWrite
  3024  0507  0877               	movf	??_LCDWrite,w
  3025  0508  07FA               	addwf	LCDWrite@i,f
  3026  0509  3008               	movlw	8
  3027  050A  027A               	subwf	LCDWrite@i,w
  3028  050B  1C03               	skipc
  3029  050C  2CFD               	goto	l79
  3030  050D                     l80:	
  3031                           
  3032                           ;user.c: 221: }
  3033                           ;user.c: 223: TRISCbits.TRISC6=1;
  3034  050D  1713               	bsf	19,6	;volatile
  3035  050E  0008               	return
  3036  050F                     __end_of_LCDWrite:	
  3037                           
  3038                           	psect	text8
  3039  0492                     __ptext8:	
  3040 ;; *************** function _InitApp *****************
  3041 ;; Defined at:
  3042 ;;		line 227 in file "user.c"
  3043 ;; Parameters:    Size  Location     Type
  3044 ;;		None
  3045 ;; Auto vars:     Size  Location     Type
  3046 ;;		None
  3047 ;; Return value:  Size  Location     Type
  3048 ;;                  1    wreg      void 
  3049 ;; Registers used:
  3050 ;;		status,2
  3051 ;; Tracked objects:
  3052 ;;		On entry : 0/0
  3053 ;;		On exit  : 0/0
  3054 ;;		Unchanged: 0/0
  3055 ;; Data sizes:     COMMON   BANK0   BANK1   BANK2   BANK3   BANK4   BANK5   BANK6   BANK7   BANK8   BANK9  BANK10  BANK1
      +1  BANK12
  3056 ;;      Params:         0       0       0       0       0       0       0       0       0       0       0       0       
      +0       0
  3057 ;;      Locals:         0       0       0       0       0       0       0       0       0       0       0       0       
      +0       0
  3058 ;;      Temps:          0       0       0       0       0       0       0       0       0       0       0       0       
      +0       0
  3059 ;;      Totals:         0       0       0       0       0       0       0       0       0       0       0       0       
      +0       0
  3060 ;;Total ram usage:        0 bytes
  3061 ;; Hardware stack levels used:    1
  3062 ;; This function calls:
  3063 ;;		Nothing
  3064 ;; This function is called by:
  3065 ;;		_main
  3066 ;; This function uses a non-reentrant model
  3067 ;;
  3068                           
  3069                           
  3070                           ;psect for function _InitApp
  3071  0492                     _InitApp:	
  3072                           
  3073                           ;user.c: 229: ANSELA=0;
  3074                           
  3075                           ;incstack = 0
  3076                           ; Regs used in _InitApp: [status,2]
  3077  0492  003E               	movlb	30	; select bank30
  3078  0493  01B8               	clrf	56	;volatile
  3079                           
  3080                           ;user.c: 230: ANSELB=0;
  3081  0494  01C3               	clrf	67	;volatile
  3082                           
  3083                           ;user.c: 231: ANSELC=0;
  3084  0495  01CE               	clrf	78	;volatile
  3085                           
  3086                           ;user.c: 232: TRISA=0;
  3087  0496  0020               	movlb	0	; select bank0
  3088  0497  0191               	clrf	17	;volatile
  3089                           
  3090                           ;user.c: 233: TRISB=0;
  3091  0498  0192               	clrf	18	;volatile
  3092                           
  3093                           ;user.c: 234: TRISC=0;
  3094  0499  0193               	clrf	19	;volatile
  3095  049A  0008               	return
  3096  049B                     __end_of_InitApp:	
  3097                           
  3098                           	psect	text9
  3099  0491                     __ptext9:	
  3100 ;; *************** function _ConfigureOscillator *****************
  3101 ;; Defined at:
  3102 ;;		line 37 in file "system.c"
  3103 ;; Parameters:    Size  Location     Type
  3104 ;;		None
  3105 ;; Auto vars:     Size  Location     Type
  3106 ;;		None
  3107 ;; Return value:  Size  Location     Type
  3108 ;;                  1    wreg      void 
  3109 ;; Registers used:
  3110 ;;		None
  3111 ;; Tracked objects:
  3112 ;;		On entry : 0/0
  3113 ;;		On exit  : 0/0
  3114 ;;		Unchanged: 0/0
  3115 ;; Data sizes:     COMMON   BANK0   BANK1   BANK2   BANK3   BANK4   BANK5   BANK6   BANK7   BANK8   BANK9  BANK10  BANK1
      +1  BANK12
  3116 ;;      Params:         0       0       0       0       0       0       0       0       0       0       0       0       
      +0       0
  3117 ;;      Locals:         0       0       0       0       0       0       0       0       0       0       0       0       
      +0       0
  3118 ;;      Temps:          0       0       0       0       0       0       0       0       0       0       0       0       
      +0       0
  3119 ;;      Totals:         0       0       0       0       0       0       0       0       0       0       0       0       
      +0       0
  3120 ;;Total ram usage:        0 bytes
  3121 ;; Hardware stack levels used:    1
  3122 ;; This function calls:
  3123 ;;		Nothing
  3124 ;; This function is called by:
  3125 ;;		_main
  3126 ;; This function uses a non-reentrant model
  3127 ;;
  3128                           
  3129                           
  3130                           ;psect for function _ConfigureOscillator
  3131  0491                     _ConfigureOscillator:	
  3132                           
  3133                           ;incstack = 0
  3134                           ; Regs used in _ConfigureOscillator: []
  3135  0491  0008               	return
  3136  0492                     __end_of_ConfigureOscillator:	
  3137  007E                     btemp	set	126	;btemp
  3138  007E                     wtemp	set	126
  3139  007E                     wtemp0	set	126
  3140  0080                     wtemp1	set	128
  3141  0082                     wtemp2	set	130
  3142  0084                     wtemp3	set	132
  3143  0086                     wtemp4	set	134
  3144  0088                     wtemp5	set	136
  3145  007F                     wtemp6	set	127
  3146  007E                     ttemp	set	126
  3147  007E                     ttemp0	set	126
  3148  0081                     ttemp1	set	129
  3149  0084                     ttemp2	set	132
  3150  0087                     ttemp3	set	135
  3151  007F                     ttemp4	set	127
  3152  007E                     ltemp	set	126
  3153  007E                     ltemp0	set	126
  3154  0082                     ltemp1	set	130
  3155  0086                     ltemp2	set	134
  3156  0080                     ltemp3	set	128


Data Sizes:
    Strings     13
    Constant    0
    Data        480
    BSS         2
    Persistent  0
    Stack       0

Auto Spaces:
    Space          Size  Autos    Used
    COMMON           14     14      14
    BANK0            80      9      11
    BANK1            80      0       0
    BANK2            80      0       0
    BANK3            80      0       0
    BANK4            80      0       0
    BANK5            80      0       0
    BANK6            48      0       0
    BANK7             0      0       0
    BANK8             0      0       0
    BANK9             0      0       0
    BANK10            0      0       0
    BANK11            0      0       0
    BANK12            0      0       0

Pointer List with Targets:

    LCDString@characters	PTR unsigned char  size(2) Largest target is 13
		 -> STR_1(CODE[13]), 


Critical Paths under _main in COMMON

    _main->_LCDString
    _LCDString->_LCDCharacter
    _LCDCharacter->_LCDWrite
    _LCDInit->_LCDWrite
    _LCDClear->_gotoXY
    _gotoXY->_LCDWrite
    _LCDWrite->___wmul

Critical Paths under _main in BANK0

    _main->_LCDString
    _LCDString->_LCDCharacter
    _LCDClear->_gotoXY

Critical Paths under _main in BANK1

    None.

Critical Paths under _main in BANK2

    None.

Critical Paths under _main in BANK3

    None.

Critical Paths under _main in BANK4

    None.

Critical Paths under _main in BANK5

    None.

Critical Paths under _main in BANK6

    None.

Critical Paths under _main in BANK7

    None.

Critical Paths under _main in BANK8

    None.

Critical Paths under _main in BANK9

    None.

Critical Paths under _main in BANK10

    None.

Critical Paths under _main in BANK11

    None.

Critical Paths under _main in BANK12

    None.

Call Graph Tables:

 ---------------------------------------------------------------------------------
 (Depth) Function   	        Calls       Base Space   Used Autos Params    Refs
 ---------------------------------------------------------------------------------
 (0) _main                                                 3     3      0    4845
                                              6 BANK0      3     3      0
                _ConfigureOscillator
                            _InitApp
                           _LCDClear
                            _LCDInit
                          _LCDString
                             _gotoXY
 ---------------------------------------------------------------------------------
 (1) _LCDString                                            3     1      2    1121
                                             12 COMMON     2     0      2
                                              5 BANK0      1     1      0
                       _LCDCharacter
 ---------------------------------------------------------------------------------
 (2) _LCDCharacter                                         6     6      0    1023
                                             11 COMMON     1     1      0
                                              0 BANK0      5     5      0
                           _LCDWrite
                             ___wmul
 ---------------------------------------------------------------------------------
 (3) ___wmul                                               6     2      4     198
                                              0 COMMON     6     2      4
 ---------------------------------------------------------------------------------
 (1) _LCDInit                                              1     1      0     803
                                             11 COMMON     1     1      0
                           _LCDWrite
 ---------------------------------------------------------------------------------
 (1) _LCDClear                                             1     1      0    1862
                                             12 COMMON     1     1      0
                           _LCDWrite
                             _gotoXY
 ---------------------------------------------------------------------------------
 (1) _gotoXY                                               5     1      4    1059
                                             11 COMMON     1     1      0
                                              0 BANK0      4     0      4
                           _LCDWrite
 ---------------------------------------------------------------------------------
 (2) _LCDWrite                                             5     4      1     803
                                              6 COMMON     5     4      1
                             ___wmul (ARG)
 ---------------------------------------------------------------------------------
 (1) _InitApp                                              0     0      0       0
 ---------------------------------------------------------------------------------
 (1) _ConfigureOscillator                                  0     0      0       0
 ---------------------------------------------------------------------------------
 Estimated maximum stack depth 3
 ---------------------------------------------------------------------------------

 Call Graph Graphs:

 _main (ROOT)
   _ConfigureOscillator
   _InitApp
   _LCDClear
     _LCDWrite
       ___wmul (ARG)
     _gotoXY
       _LCDWrite
         ___wmul (ARG)
   _LCDInit
     _LCDWrite
       ___wmul (ARG)
   _LCDString
     _LCDCharacter
       _LCDWrite
         ___wmul (ARG)
       ___wmul
   _gotoXY
     _LCDWrite
       ___wmul (ARG)

 Address spaces:
Name               Size   Autos  Total    Cost      Usage
BIGRAM             3F0      0       0       0        0.0%
EEDATA             100      0       0       0        0.0%
NULL                 0      0       0       0        0.0%
CODE                 0      0       0       0        0.0%
BITCOMMON            E      0       0       1        0.0%
BITSFR0              0      0       0       1        0.0%
SFR0                 0      0       0       1        0.0%
COMMON               E      E       E       2      100.0%
BITSFR1              0      0       0       2        0.0%
SFR1                 0      0       0       2        0.0%
BITSFR2              0      0       0       3        0.0%
SFR2                 0      0       0       3        0.0%
STACK                0      0       0       3        0.0%
BITBANK0            50      0       0       4        0.0%
BITSFR3              0      0       0       4        0.0%
SFR3                 0      0       0       4        0.0%
BANK0               50      9       B       5       13.8%
BITSFR4              0      0       0       5        0.0%
SFR4                 0      0       0       5        0.0%
BITBANK1            50      0       0       6        0.0%
BITSFR5              0      0       0       6        0.0%
SFR5                 0      0       0       6        0.0%
BANK1               50      0       0       7        0.0%
BITSFR6              0      0       0       7        0.0%
SFR6                 0      0       0       7        0.0%
BITBANK2            50      0       0       8        0.0%
BITSFR7              0      0       0       8        0.0%
SFR7                 0      0       0       8        0.0%
BANK2               50      0       0       9        0.0%
BITSFR8              0      0       0       9        0.0%
SFR8                 0      0       0       9        0.0%
BITBANK3            50      0       0      10        0.0%
BITSFR9              0      0       0      10        0.0%
SFR9                 0      0       0      10        0.0%
BANK3               50      0       0      11        0.0%
BITSFR10             0      0       0      11        0.0%
SFR10                0      0       0      11        0.0%
BITBANK4            50      0       0      12        0.0%
BITSFR11             0      0       0      12        0.0%
SFR11                0      0       0      12        0.0%
BANK4               50      0       0      13        0.0%
BITSFR12             0      0       0      13        0.0%
SFR12                0      0       0      13        0.0%
BITBANK5            50      0       0      14        0.0%
BITSFR13             0      0       0      14        0.0%
SFR13                0      0       0      14        0.0%
BANK5               50      0       0      15        0.0%
BITSFR14             0      0       0      15        0.0%
SFR14                0      0       0      15        0.0%
BITBANK6            50      0       0      16        0.0%
BITSFR15             0      0       0      16        0.0%
SFR15                0      0       0      16        0.0%
BANK6               30      0       0      17        0.0%
BITSFR16             0      0       0      17        0.0%
SFR16                0      0       0      17        0.0%
BITBANK7            50      0       0      18        0.0%
BITSFR17             0      0       0      18        0.0%
SFR17                0      0       0      18        0.0%
BITSFR18             0      0       0      19        0.0%
SFR18                0      0       0      19        0.0%
BANK7                0      0       0      19        0.0%
BITSFR19             0      0       0      20        0.0%
SFR19                0      0       0      20        0.0%
ABS                  0      0      19      20        0.0%
BITBANK8            50      0       0      21        0.0%
BITSFR20             0      0       0      21        0.0%
SFR20                0      0       0      21        0.0%
BITSFR21             0      0       0      22        0.0%
SFR21                0      0       0      22        0.0%
BANK8                0      0       0      22        0.0%
BITBANK9            50      0       0      23        0.0%
BITSFR22             0      0       0      23        0.0%
SFR22                0      0       0      23        0.0%
BITSFR23             0      0       0      24        0.0%
SFR23                0      0       0      24        0.0%
BANK9                0      0       0      24        0.0%
BITBANK10           50      0       0      25        0.0%
BITSFR24             0      0       0      25        0.0%
SFR24                0      0       0      25        0.0%
BITSFR25             0      0       0      26        0.0%
SFR25                0      0       0      26        0.0%
BANK10               0      0       0      26        0.0%
BITBANK11           50      0       0      27        0.0%
BITSFR26             0      0       0      27        0.0%
SFR26                0      0       0      27        0.0%
BITSFR27             0      0       0      28        0.0%
SFR27                0      0       0      28        0.0%
BANK11               0      0       0      28        0.0%
BITBANK12           30      0       0      29        0.0%
BITSFR28             0      0       0      29        0.0%
SFR28                0      0       0      29        0.0%
BITSFR29             0      0       0      30        0.0%
SFR29                0      0       0      30        0.0%
BANK12               0      0       0      30        0.0%
BITSFR30             0      0       0      31        0.0%
SFR30                0      0       0      31        0.0%
DATA                 0      0      19      31        0.0%
BITSFR31             0      0       0      32        0.0%
SFR31                0      0       0      32        0.0%


Microchip Technology PIC Macro Assembler V1.38 build -256452561 
Symbol Table                                                                                   Wed Aug 30 21:24:49 2017

                 __CFG_CP$OFF 0000                            l80 050D                            l81 0501  
                          l77 04F5                            l78 04F7                            l79 04FD  
         ___wmul@multiplicand 0072                   __CFG_LVP$ON 0000                           l167 04D7  
                         l721 0609                           l715 05D2                           l753 0532  
                         l761 04BB                           l747 051D                           l693 04D1  
                         l769 0548                           _RC2 0072                           u215 04D8  
                         u225 04DD                           u245 05D0                           u317 0550  
                         u255 0607                           u327 055F                           u265 051B  
                         u337 0586                  __CFG_CPD$OFF 0000                           u275 0530  
                         u347 058C                  __CFG_BORV$LO 0000                ??_LCDCharacter 0020  
                         wreg 0009               __end_of_LCDInit 05BE                  __CFG_ZCD$OFF 0000  
                        STR_1 0800                  __CFG_WRT$OFF 0000                 __CFG_FCMEN$ON 0000  
                        _main 053C                          fsr0h 0005                          fsr1h 0007  
                        fsr0l 0004                          indf0 0000                          indf1 0001  
                        fsr1l 0006                          btemp 007E                          ltemp 007E  
                        start 0002                          ttemp 007E                          wtemp 007E  
          __size_of_LCDString 0014                 __CFG_CSWEN$ON 0000                 __CFG_MCLRE$ON 0000  
             __end_of_InitApp 049B              __end_of_LCDClear 053C              __end_of_LCDWrite 050F  
                       ?_main 0070                 __CFG_WDTE$OFF 0000                         _ASCII 2210  
                       _TRISA 0011                         _TRISB 0012                         _TRISC 0013  
         _ConfigureOscillator 0491                         _Index 0029                __CFG_BOREN$OFF 0000  
                       ltemp0 007E                         ltemp1 0082                         ltemp2 0086  
                       ltemp3 0080                         ttemp0 007E                         ttemp1 0081  
                       ttemp2 0084                         ttemp3 0087                         ttemp4 007F  
                       status 0003                         wtemp0 007E                         wtemp1 0080  
                       wtemp2 0082                         wtemp3 0084                         wtemp4 0086  
                       wtemp5 0088                         wtemp6 007F          ?_ConfigureOscillator 0070  
             __initialization 07EE                  __end_of_main 057A                        ??_main 0026  
                   ??_LCDInit 007B             __end_of_LCDString 04CF       LCDWrite@data_or_command 0078  
                      _ANSELA 0F38                        _ANSELB 0F43                        _ANSELC 0F4E  
          __CFG_RSTOSC$HFINT1 0000                __CFG_WDTCCS$SC 0000                     ??_InitApp 0070  
       ??_ConfigureOscillator 0070                __CFG_PWRTE$OFF 0000          __end_of_LCDCharacter 060E  
                      ___wmul 04CF                __CFG_STVREN$ON 0000                        _gotoXY 04A7  
                __pdataBIGRAM 2210                  LCDWrite@data 0076                     ?_LCDClear 0070  
     __end_of__initialization 07FD                     ?_LCDWrite 0076         LCDCharacter@character 007B  
              __pcstackCOMMON 0070                     LCDWrite@d 0079                     LCDWrite@i 007A  
                  __pbssBANK0 0029                    ??_LCDClear 007C                    ??_LCDWrite 0077  
                  __pmaintext 053C                       ?___wmul 0070               __CFG_PPS1WAY$ON 0000  
                     ?_gotoXY 0020                       _LCDInit 057A         __size_of_LCDCharacter 0050  
                     _InitApp 0492          __CFG_SCANE$available 0000               __size_of___wmul 001B  
             __size_of_gotoXY 0014                       __ptext1 04BB                       __ptext2 05BE  
                     __ptext3 04CF                       __ptext4 057A                       __ptext5 050F  
                     __ptext6 04A7                       __ptext7 04EA                       __ptext8 0492  
                     __ptext9 0491                  _LCDCharacter 05BE                     _LCDString 04BB  
        end_of_initialization 07FD                       gotoXY@x 0020                       gotoXY@y 0022  
                     init_ram 049B                       initloop 049C                  __pstringtext 0800  
       __CFG_WDTCPS$WDTCPS_31 0000                     _TRISCbits 0013              __CFG_FEXTOSC$OFF 0000  
                  ?_LCDString 007C   __end_of_ConfigureOscillator 0492             __size_of_LCDClear 002D  
           __size_of_LCDWrite 0025                 __pidataBIGRAM 060E                __end_of___wmul 04EA  
              __end_of_gotoXY 04BB           start_initialization 07EE              __CFG_LPBOREN$OFF 0000  
                    ??___wmul 0074                      ??_gotoXY 007B                      ?_LCDInit 0070  
                   ___latbits 0002                 __pcstackBANK0 0020                   ??_LCDString 0025  
                    ?_InitApp 0070                      _LCDClear 050F                ___wmul@product 0074  
                    _LCDWrite 04EA             ___wmul@multiplier 0070              __size_of_LCDInit 0044  
            __size_of_InitApp 0009                 __size_of_main 003E          __CFG_WDTCWS$WDTCWS_7 0000  
__size_of_ConfigureOscillator 0001             __CFG_CLKOUTEN$OFF 0000           LCDString@characters 007C  
               ?_LCDCharacter 0070  
