

Microchip Technology PIC LITE Macro Assembler V1.38 build -256452561 
                                                                                               Wed Sep 27 17:10:29 2017

Microchip Technology Omniscient Code Generator v1.38 (Free mode) build 201607010351
     1                           	processor	16F18855
     2                           	opt	pw 120
     3                           	opt	lm
     4                           	psect	stringtext,global,class=STRCODE,delta=2
     5                           	psect	cinit,global,class=CODE,merge=1,delta=2
     6                           	psect	bssBANK0,global,class=BANK0,space=1,delta=1
     7                           	psect	cstackCOMMON,global,class=COMMON,space=1,delta=1
     8                           	psect	cstackBANK0,global,class=BANK0,space=1,delta=1
     9                           	psect	maintext,global,class=CODE,merge=1,split=1,delta=2
    10                           	psect	text1,local,class=CODE,merge=1,delta=2
    11                           	psect	text2,local,class=CODE,merge=1,delta=2
    12                           	psect	text3,local,class=CODE,merge=1,delta=2
    13                           	psect	text4,local,class=CODE,merge=1,delta=2
    14                           	psect	text5,local,class=CODE,merge=1,delta=2
    15                           	psect	text6,local,class=CODE,merge=1,delta=2
    16                           	psect	text7,local,class=CODE,merge=1,delta=2
    17                           	psect	text8,local,class=CODE,merge=1,delta=2
    18                           	psect	text9,local,class=CODE,merge=1,delta=2
    19                           	psect	text10,local,class=CODE,merge=1,delta=2
    20                           	psect	text11,local,class=CODE,merge=1,delta=2
    21                           	psect	text12,local,class=CODE,merge=1,delta=2
    22                           	dabs	1,0x7E,2
    23  0000                     	;# 
    24  0001                     	;# 
    25  0002                     	;# 
    26  0003                     	;# 
    27  0004                     	;# 
    28  0005                     	;# 
    29  0006                     	;# 
    30  0007                     	;# 
    31  0008                     	;# 
    32  0009                     	;# 
    33  000A                     	;# 
    34  000B                     	;# 
    35  000C                     	;# 
    36  000D                     	;# 
    37  000E                     	;# 
    38  0010                     	;# 
    39  0011                     	;# 
    40  0012                     	;# 
    41  0013                     	;# 
    42  0016                     	;# 
    43  0017                     	;# 
    44  0018                     	;# 
    45  001C                     	;# 
    46  001C                     	;# 
    47  001D                     	;# 
    48  001D                     	;# 
    49  001E                     	;# 
    50  001F                     	;# 
    51  008C                     	;# 
    52  008C                     	;# 
    53  008D                     	;# 
    54  008E                     	;# 
    55  008E                     	;# 
    56  008F                     	;# 
    57  0090                     	;# 
    58  0090                     	;# 
    59  0091                     	;# 
    60  0093                     	;# 
    61  0094                     	;# 
    62  0095                     	;# 
    63  0096                     	;# 
    64  0097                     	;# 
    65  0098                     	;# 
    66  0099                     	;# 
    67  009A                     	;# 
    68  009B                     	;# 
    69  009C                     	;# 
    70  009D                     	;# 
    71  009E                     	;# 
    72  010C                     	;# 
    73  010D                     	;# 
    74  010E                     	;# 
    75  010E                     	;# 
    76  010F                     	;# 
    77  0110                     	;# 
    78  0110                     	;# 
    79  0111                     	;# 
    80  0112                     	;# 
    81  0112                     	;# 
    82  0113                     	;# 
    83  0114                     	;# 
    84  0114                     	;# 
    85  0115                     	;# 
    86  0116                     	;# 
    87  0116                     	;# 
    88  0117                     	;# 
    89  0119                     	;# 
    90  0119                     	;# 
    91  0119                     	;# 
    92  011A                     	;# 
    93  011A                     	;# 
    94  011A                     	;# 
    95  011B                     	;# 
    96  011B                     	;# 
    97  011B                     	;# 
    98  011B                     	;# 
    99  011B                     	;# 
   100  011C                     	;# 
   101  011C                     	;# 
   102  011C                     	;# 
   103  011D                     	;# 
   104  011D                     	;# 
   105  011D                     	;# 
   106  011E                     	;# 
   107  011E                     	;# 
   108  011E                     	;# 
   109  011F                     	;# 
   110  011F                     	;# 
   111  011F                     	;# 
   112  011F                     	;# 
   113  011F                     	;# 
   114  018C                     	;# 
   115  018D                     	;# 
   116  018E                     	;# 
   117  018F                     	;# 
   118  0190                     	;# 
   119  0191                     	;# 
   120  0192                     	;# 
   121  0196                     	;# 
   122  0197                     	;# 
   123  0198                     	;# 
   124  0199                     	;# 
   125  019A                     	;# 
   126  019B                     	;# 
   127  019C                     	;# 
   128  020C                     	;# 
   129  020D                     	;# 
   130  020E                     	;# 
   131  020F                     	;# 
   132  020F                     	;# 
   133  0210                     	;# 
   134  0210                     	;# 
   135  0211                     	;# 
   136  0211                     	;# 
   137  0212                     	;# 
   138  0213                     	;# 
   139  0214                     	;# 
   140  0215                     	;# 
   141  0215                     	;# 
   142  0216                     	;# 
   143  0216                     	;# 
   144  0217                     	;# 
   145  0217                     	;# 
   146  0218                     	;# 
   147  0219                     	;# 
   148  021A                     	;# 
   149  021B                     	;# 
   150  021B                     	;# 
   151  021C                     	;# 
   152  021C                     	;# 
   153  021D                     	;# 
   154  021D                     	;# 
   155  021E                     	;# 
   156  021F                     	;# 
   157  028C                     	;# 
   158  028C                     	;# 
   159  028D                     	;# 
   160  028D                     	;# 
   161  028E                     	;# 
   162  028F                     	;# 
   163  0290                     	;# 
   164  0290                     	;# 
   165  0291                     	;# 
   166  0292                     	;# 
   167  0292                     	;# 
   168  0293                     	;# 
   169  0293                     	;# 
   170  0294                     	;# 
   171  0295                     	;# 
   172  0296                     	;# 
   173  0296                     	;# 
   174  0297                     	;# 
   175  0298                     	;# 
   176  0298                     	;# 
   177  0299                     	;# 
   178  0299                     	;# 
   179  029A                     	;# 
   180  029B                     	;# 
   181  029C                     	;# 
   182  029C                     	;# 
   183  029D                     	;# 
   184  030C                     	;# 
   185  030C                     	;# 
   186  030D                     	;# 
   187  030E                     	;# 
   188  030F                     	;# 
   189  0310                     	;# 
   190  0310                     	;# 
   191  0311                     	;# 
   192  0312                     	;# 
   193  0313                     	;# 
   194  0314                     	;# 
   195  0314                     	;# 
   196  0315                     	;# 
   197  0316                     	;# 
   198  0317                     	;# 
   199  0318                     	;# 
   200  0318                     	;# 
   201  0319                     	;# 
   202  031A                     	;# 
   203  031B                     	;# 
   204  031C                     	;# 
   205  031C                     	;# 
   206  031D                     	;# 
   207  031E                     	;# 
   208  031F                     	;# 
   209  038C                     	;# 
   210  038D                     	;# 
   211  038E                     	;# 
   212  0390                     	;# 
   213  0391                     	;# 
   214  0392                     	;# 
   215  040C                     	;# 
   216  040D                     	;# 
   217  040E                     	;# 
   218  040F                     	;# 
   219  0410                     	;# 
   220  0411                     	;# 
   221  0416                     	;# 
   222  0416                     	;# 
   223  0417                     	;# 
   224  0418                     	;# 
   225  0418                     	;# 
   226  0419                     	;# 
   227  041A                     	;# 
   228  041A                     	;# 
   229  041B                     	;# 
   230  041C                     	;# 
   231  041C                     	;# 
   232  041D                     	;# 
   233  041E                     	;# 
   234  041F                     	;# 
   235  048C                     	;# 
   236  048C                     	;# 
   237  048D                     	;# 
   238  048E                     	;# 
   239  048F                     	;# 
   240  048F                     	;# 
   241  0490                     	;# 
   242  0491                     	;# 
   243  0492                     	;# 
   244  0492                     	;# 
   245  0493                     	;# 
   246  0494                     	;# 
   247  0495                     	;# 
   248  0495                     	;# 
   249  0496                     	;# 
   250  0497                     	;# 
   251  0498                     	;# 
   252  0499                     	;# 
   253  049A                     	;# 
   254  049B                     	;# 
   255  049C                     	;# 
   256  049D                     	;# 
   257  050C                     	;# 
   258  050C                     	;# 
   259  050D                     	;# 
   260  050E                     	;# 
   261  050F                     	;# 
   262  050F                     	;# 
   263  0510                     	;# 
   264  0511                     	;# 
   265  0512                     	;# 
   266  0512                     	;# 
   267  0513                     	;# 
   268  0514                     	;# 
   269  0515                     	;# 
   270  0515                     	;# 
   271  0516                     	;# 
   272  0517                     	;# 
   273  0518                     	;# 
   274  0519                     	;# 
   275  051A                     	;# 
   276  051B                     	;# 
   277  051C                     	;# 
   278  051D                     	;# 
   279  058C                     	;# 
   280  058C                     	;# 
   281  058D                     	;# 
   282  058E                     	;# 
   283  058F                     	;# 
   284  058F                     	;# 
   285  0590                     	;# 
   286  0591                     	;# 
   287  0592                     	;# 
   288  0593                     	;# 
   289  060C                     	;# 
   290  060D                     	;# 
   291  060E                     	;# 
   292  060F                     	;# 
   293  0610                     	;# 
   294  0611                     	;# 
   295  0612                     	;# 
   296  0613                     	;# 
   297  0614                     	;# 
   298  0616                     	;# 
   299  0617                     	;# 
   300  0618                     	;# 
   301  0619                     	;# 
   302  061A                     	;# 
   303  061B                     	;# 
   304  061C                     	;# 
   305  061D                     	;# 
   306  061E                     	;# 
   307  068C                     	;# 
   308  068D                     	;# 
   309  068E                     	;# 
   310  068F                     	;# 
   311  0690                     	;# 
   312  0691                     	;# 
   313  0692                     	;# 
   314  0693                     	;# 
   315  0694                     	;# 
   316  070C                     	;# 
   317  070D                     	;# 
   318  070E                     	;# 
   319  070F                     	;# 
   320  0710                     	;# 
   321  0711                     	;# 
   322  0712                     	;# 
   323  0713                     	;# 
   324  0714                     	;# 
   325  0716                     	;# 
   326  0717                     	;# 
   327  0718                     	;# 
   328  0719                     	;# 
   329  071A                     	;# 
   330  071B                     	;# 
   331  071C                     	;# 
   332  071D                     	;# 
   333  071E                     	;# 
   334  0796                     	;# 
   335  0797                     	;# 
   336  0798                     	;# 
   337  0799                     	;# 
   338  079A                     	;# 
   339  079B                     	;# 
   340  080C                     	;# 
   341  080D                     	;# 
   342  080E                     	;# 
   343  080F                     	;# 
   344  0810                     	;# 
   345  0811                     	;# 
   346  0812                     	;# 
   347  0813                     	;# 
   348  0814                     	;# 
   349  081A                     	;# 
   350  081B                     	;# 
   351  081C                     	;# 
   352  081D                     	;# 
   353  081E                     	;# 
   354  081F                     	;# 
   355  088C                     	;# 
   356  088D                     	;# 
   357  088E                     	;# 
   358  088F                     	;# 
   359  0890                     	;# 
   360  0891                     	;# 
   361  0892                     	;# 
   362  0893                     	;# 
   363  0895                     	;# 
   364  0896                     	;# 
   365  0897                     	;# 
   366  0898                     	;# 
   367  0899                     	;# 
   368  089A                     	;# 
   369  089B                     	;# 
   370  090C                     	;# 
   371  090E                     	;# 
   372  090F                     	;# 
   373  091F                     	;# 
   374  091F                     	;# 
   375  098F                     	;# 
   376  098F                     	;# 
   377  0990                     	;# 
   378  0991                     	;# 
   379  0992                     	;# 
   380  0993                     	;# 
   381  0994                     	;# 
   382  0995                     	;# 
   383  0996                     	;# 
   384  0997                     	;# 
   385  0E0F                     	;# 
   386  0E10                     	;# 
   387  0E11                     	;# 
   388  0E12                     	;# 
   389  0E13                     	;# 
   390  0E14                     	;# 
   391  0E15                     	;# 
   392  0E16                     	;# 
   393  0E17                     	;# 
   394  0E18                     	;# 
   395  0E19                     	;# 
   396  0E1A                     	;# 
   397  0E1B                     	;# 
   398  0E1C                     	;# 
   399  0E1D                     	;# 
   400  0E1E                     	;# 
   401  0E1F                     	;# 
   402  0E20                     	;# 
   403  0E21                     	;# 
   404  0E22                     	;# 
   405  0E23                     	;# 
   406  0E24                     	;# 
   407  0E25                     	;# 
   408  0E26                     	;# 
   409  0E27                     	;# 
   410  0E28                     	;# 
   411  0E29                     	;# 
   412  0E2A                     	;# 
   413  0E2B                     	;# 
   414  0E2C                     	;# 
   415  0E2D                     	;# 
   416  0E2E                     	;# 
   417  0E2F                     	;# 
   418  0E30                     	;# 
   419  0E31                     	;# 
   420  0E32                     	;# 
   421  0E33                     	;# 
   422  0E34                     	;# 
   423  0E35                     	;# 
   424  0E36                     	;# 
   425  0E37                     	;# 
   426  0E8F                     	;# 
   427  0E90                     	;# 
   428  0E91                     	;# 
   429  0E92                     	;# 
   430  0E93                     	;# 
   431  0E94                     	;# 
   432  0E95                     	;# 
   433  0E96                     	;# 
   434  0E97                     	;# 
   435  0E9C                     	;# 
   436  0E9D                     	;# 
   437  0E9E                     	;# 
   438  0EA1                     	;# 
   439  0EA2                     	;# 
   440  0EA3                     	;# 
   441  0EA4                     	;# 
   442  0EA5                     	;# 
   443  0EA9                     	;# 
   444  0EAA                     	;# 
   445  0EAB                     	;# 
   446  0EAC                     	;# 
   447  0EB1                     	;# 
   448  0EB2                     	;# 
   449  0EB3                     	;# 
   450  0EB8                     	;# 
   451  0EB9                     	;# 
   452  0EBA                     	;# 
   453  0EBB                     	;# 
   454  0EBC                     	;# 
   455  0EBD                     	;# 
   456  0EBE                     	;# 
   457  0EC3                     	;# 
   458  0EC5                     	;# 
   459  0EC6                     	;# 
   460  0EC7                     	;# 
   461  0EC8                     	;# 
   462  0EC9                     	;# 
   463  0ECA                     	;# 
   464  0ECB                     	;# 
   465  0ECC                     	;# 
   466  0F10                     	;# 
   467  0F11                     	;# 
   468  0F12                     	;# 
   469  0F13                     	;# 
   470  0F14                     	;# 
   471  0F15                     	;# 
   472  0F16                     	;# 
   473  0F17                     	;# 
   474  0F18                     	;# 
   475  0F19                     	;# 
   476  0F1A                     	;# 
   477  0F1B                     	;# 
   478  0F1C                     	;# 
   479  0F1D                     	;# 
   480  0F1E                     	;# 
   481  0F1F                     	;# 
   482  0F20                     	;# 
   483  0F21                     	;# 
   484  0F22                     	;# 
   485  0F23                     	;# 
   486  0F24                     	;# 
   487  0F25                     	;# 
   488  0F26                     	;# 
   489  0F27                     	;# 
   490  0F38                     	;# 
   491  0F39                     	;# 
   492  0F3A                     	;# 
   493  0F3B                     	;# 
   494  0F3C                     	;# 
   495  0F3D                     	;# 
   496  0F3E                     	;# 
   497  0F3F                     	;# 
   498  0F40                     	;# 
   499  0F41                     	;# 
   500  0F43                     	;# 
   501  0F44                     	;# 
   502  0F45                     	;# 
   503  0F46                     	;# 
   504  0F47                     	;# 
   505  0F48                     	;# 
   506  0F49                     	;# 
   507  0F4A                     	;# 
   508  0F4B                     	;# 
   509  0F4C                     	;# 
   510  0F4E                     	;# 
   511  0F4F                     	;# 
   512  0F50                     	;# 
   513  0F51                     	;# 
   514  0F52                     	;# 
   515  0F53                     	;# 
   516  0F54                     	;# 
   517  0F55                     	;# 
   518  0F56                     	;# 
   519  0F57                     	;# 
   520  0F65                     	;# 
   521  0F68                     	;# 
   522  0F69                     	;# 
   523  0F6A                     	;# 
   524  0F6B                     	;# 
   525  0FE4                     	;# 
   526  0FE5                     	;# 
   527  0FE6                     	;# 
   528  0FE7                     	;# 
   529  0FE8                     	;# 
   530  0FE9                     	;# 
   531  0FEA                     	;# 
   532  0FEB                     	;# 
   533  0FED                     	;# 
   534  0FEE                     	;# 
   535  0FEF                     	;# 
   536  0000                     	;# 
   537  0001                     	;# 
   538  0002                     	;# 
   539  0003                     	;# 
   540  0004                     	;# 
   541  0005                     	;# 
   542  0006                     	;# 
   543  0007                     	;# 
   544  0008                     	;# 
   545  0009                     	;# 
   546  000A                     	;# 
   547  000B                     	;# 
   548  000C                     	;# 
   549  000D                     	;# 
   550  000E                     	;# 
   551  0010                     	;# 
   552  0011                     	;# 
   553  0012                     	;# 
   554  0013                     	;# 
   555  0016                     	;# 
   556  0017                     	;# 
   557  0018                     	;# 
   558  001C                     	;# 
   559  001C                     	;# 
   560  001D                     	;# 
   561  001D                     	;# 
   562  001E                     	;# 
   563  001F                     	;# 
   564  008C                     	;# 
   565  008C                     	;# 
   566  008D                     	;# 
   567  008E                     	;# 
   568  008E                     	;# 
   569  008F                     	;# 
   570  0090                     	;# 
   571  0090                     	;# 
   572  0091                     	;# 
   573  0093                     	;# 
   574  0094                     	;# 
   575  0095                     	;# 
   576  0096                     	;# 
   577  0097                     	;# 
   578  0098                     	;# 
   579  0099                     	;# 
   580  009A                     	;# 
   581  009B                     	;# 
   582  009C                     	;# 
   583  009D                     	;# 
   584  009E                     	;# 
   585  010C                     	;# 
   586  010D                     	;# 
   587  010E                     	;# 
   588  010E                     	;# 
   589  010F                     	;# 
   590  0110                     	;# 
   591  0110                     	;# 
   592  0111                     	;# 
   593  0112                     	;# 
   594  0112                     	;# 
   595  0113                     	;# 
   596  0114                     	;# 
   597  0114                     	;# 
   598  0115                     	;# 
   599  0116                     	;# 
   600  0116                     	;# 
   601  0117                     	;# 
   602  0119                     	;# 
   603  0119                     	;# 
   604  0119                     	;# 
   605  011A                     	;# 
   606  011A                     	;# 
   607  011A                     	;# 
   608  011B                     	;# 
   609  011B                     	;# 
   610  011B                     	;# 
   611  011B                     	;# 
   612  011B                     	;# 
   613  011C                     	;# 
   614  011C                     	;# 
   615  011C                     	;# 
   616  011D                     	;# 
   617  011D                     	;# 
   618  011D                     	;# 
   619  011E                     	;# 
   620  011E                     	;# 
   621  011E                     	;# 
   622  011F                     	;# 
   623  011F                     	;# 
   624  011F                     	;# 
   625  011F                     	;# 
   626  011F                     	;# 
   627  018C                     	;# 
   628  018D                     	;# 
   629  018E                     	;# 
   630  018F                     	;# 
   631  0190                     	;# 
   632  0191                     	;# 
   633  0192                     	;# 
   634  0196                     	;# 
   635  0197                     	;# 
   636  0198                     	;# 
   637  0199                     	;# 
   638  019A                     	;# 
   639  019B                     	;# 
   640  019C                     	;# 
   641  020C                     	;# 
   642  020D                     	;# 
   643  020E                     	;# 
   644  020F                     	;# 
   645  020F                     	;# 
   646  0210                     	;# 
   647  0210                     	;# 
   648  0211                     	;# 
   649  0211                     	;# 
   650  0212                     	;# 
   651  0213                     	;# 
   652  0214                     	;# 
   653  0215                     	;# 
   654  0215                     	;# 
   655  0216                     	;# 
   656  0216                     	;# 
   657  0217                     	;# 
   658  0217                     	;# 
   659  0218                     	;# 
   660  0219                     	;# 
   661  021A                     	;# 
   662  021B                     	;# 
   663  021B                     	;# 
   664  021C                     	;# 
   665  021C                     	;# 
   666  021D                     	;# 
   667  021D                     	;# 
   668  021E                     	;# 
   669  021F                     	;# 
   670  028C                     	;# 
   671  028C                     	;# 
   672  028D                     	;# 
   673  028D                     	;# 
   674  028E                     	;# 
   675  028F                     	;# 
   676  0290                     	;# 
   677  0290                     	;# 
   678  0291                     	;# 
   679  0292                     	;# 
   680  0292                     	;# 
   681  0293                     	;# 
   682  0293                     	;# 
   683  0294                     	;# 
   684  0295                     	;# 
   685  0296                     	;# 
   686  0296                     	;# 
   687  0297                     	;# 
   688  0298                     	;# 
   689  0298                     	;# 
   690  0299                     	;# 
   691  0299                     	;# 
   692  029A                     	;# 
   693  029B                     	;# 
   694  029C                     	;# 
   695  029C                     	;# 
   696  029D                     	;# 
   697  030C                     	;# 
   698  030C                     	;# 
   699  030D                     	;# 
   700  030E                     	;# 
   701  030F                     	;# 
   702  0310                     	;# 
   703  0310                     	;# 
   704  0311                     	;# 
   705  0312                     	;# 
   706  0313                     	;# 
   707  0314                     	;# 
   708  0314                     	;# 
   709  0315                     	;# 
   710  0316                     	;# 
   711  0317                     	;# 
   712  0318                     	;# 
   713  0318                     	;# 
   714  0319                     	;# 
   715  031A                     	;# 
   716  031B                     	;# 
   717  031C                     	;# 
   718  031C                     	;# 
   719  031D                     	;# 
   720  031E                     	;# 
   721  031F                     	;# 
   722  038C                     	;# 
   723  038D                     	;# 
   724  038E                     	;# 
   725  0390                     	;# 
   726  0391                     	;# 
   727  0392                     	;# 
   728  040C                     	;# 
   729  040D                     	;# 
   730  040E                     	;# 
   731  040F                     	;# 
   732  0410                     	;# 
   733  0411                     	;# 
   734  0416                     	;# 
   735  0416                     	;# 
   736  0417                     	;# 
   737  0418                     	;# 
   738  0418                     	;# 
   739  0419                     	;# 
   740  041A                     	;# 
   741  041A                     	;# 
   742  041B                     	;# 
   743  041C                     	;# 
   744  041C                     	;# 
   745  041D                     	;# 
   746  041E                     	;# 
   747  041F                     	;# 
   748  048C                     	;# 
   749  048C                     	;# 
   750  048D                     	;# 
   751  048E                     	;# 
   752  048F                     	;# 
   753  048F                     	;# 
   754  0490                     	;# 
   755  0491                     	;# 
   756  0492                     	;# 
   757  0492                     	;# 
   758  0493                     	;# 
   759  0494                     	;# 
   760  0495                     	;# 
   761  0495                     	;# 
   762  0496                     	;# 
   763  0497                     	;# 
   764  0498                     	;# 
   765  0499                     	;# 
   766  049A                     	;# 
   767  049B                     	;# 
   768  049C                     	;# 
   769  049D                     	;# 
   770  050C                     	;# 
   771  050C                     	;# 
   772  050D                     	;# 
   773  050E                     	;# 
   774  050F                     	;# 
   775  050F                     	;# 
   776  0510                     	;# 
   777  0511                     	;# 
   778  0512                     	;# 
   779  0512                     	;# 
   780  0513                     	;# 
   781  0514                     	;# 
   782  0515                     	;# 
   783  0515                     	;# 
   784  0516                     	;# 
   785  0517                     	;# 
   786  0518                     	;# 
   787  0519                     	;# 
   788  051A                     	;# 
   789  051B                     	;# 
   790  051C                     	;# 
   791  051D                     	;# 
   792  058C                     	;# 
   793  058C                     	;# 
   794  058D                     	;# 
   795  058E                     	;# 
   796  058F                     	;# 
   797  058F                     	;# 
   798  0590                     	;# 
   799  0591                     	;# 
   800  0592                     	;# 
   801  0593                     	;# 
   802  060C                     	;# 
   803  060D                     	;# 
   804  060E                     	;# 
   805  060F                     	;# 
   806  0610                     	;# 
   807  0611                     	;# 
   808  0612                     	;# 
   809  0613                     	;# 
   810  0614                     	;# 
   811  0616                     	;# 
   812  0617                     	;# 
   813  0618                     	;# 
   814  0619                     	;# 
   815  061A                     	;# 
   816  061B                     	;# 
   817  061C                     	;# 
   818  061D                     	;# 
   819  061E                     	;# 
   820  068C                     	;# 
   821  068D                     	;# 
   822  068E                     	;# 
   823  068F                     	;# 
   824  0690                     	;# 
   825  0691                     	;# 
   826  0692                     	;# 
   827  0693                     	;# 
   828  0694                     	;# 
   829  070C                     	;# 
   830  070D                     	;# 
   831  070E                     	;# 
   832  070F                     	;# 
   833  0710                     	;# 
   834  0711                     	;# 
   835  0712                     	;# 
   836  0713                     	;# 
   837  0714                     	;# 
   838  0716                     	;# 
   839  0717                     	;# 
   840  0718                     	;# 
   841  0719                     	;# 
   842  071A                     	;# 
   843  071B                     	;# 
   844  071C                     	;# 
   845  071D                     	;# 
   846  071E                     	;# 
   847  0796                     	;# 
   848  0797                     	;# 
   849  0798                     	;# 
   850  0799                     	;# 
   851  079A                     	;# 
   852  079B                     	;# 
   853  080C                     	;# 
   854  080D                     	;# 
   855  080E                     	;# 
   856  080F                     	;# 
   857  0810                     	;# 
   858  0811                     	;# 
   859  0812                     	;# 
   860  0813                     	;# 
   861  0814                     	;# 
   862  081A                     	;# 
   863  081B                     	;# 
   864  081C                     	;# 
   865  081D                     	;# 
   866  081E                     	;# 
   867  081F                     	;# 
   868  088C                     	;# 
   869  088D                     	;# 
   870  088E                     	;# 
   871  088F                     	;# 
   872  0890                     	;# 
   873  0891                     	;# 
   874  0892                     	;# 
   875  0893                     	;# 
   876  0895                     	;# 
   877  0896                     	;# 
   878  0897                     	;# 
   879  0898                     	;# 
   880  0899                     	;# 
   881  089A                     	;# 
   882  089B                     	;# 
   883  090C                     	;# 
   884  090E                     	;# 
   885  090F                     	;# 
   886  091F                     	;# 
   887  091F                     	;# 
   888  098F                     	;# 
   889  098F                     	;# 
   890  0990                     	;# 
   891  0991                     	;# 
   892  0992                     	;# 
   893  0993                     	;# 
   894  0994                     	;# 
   895  0995                     	;# 
   896  0996                     	;# 
   897  0997                     	;# 
   898  0E0F                     	;# 
   899  0E10                     	;# 
   900  0E11                     	;# 
   901  0E12                     	;# 
   902  0E13                     	;# 
   903  0E14                     	;# 
   904  0E15                     	;# 
   905  0E16                     	;# 
   906  0E17                     	;# 
   907  0E18                     	;# 
   908  0E19                     	;# 
   909  0E1A                     	;# 
   910  0E1B                     	;# 
   911  0E1C                     	;# 
   912  0E1D                     	;# 
   913  0E1E                     	;# 
   914  0E1F                     	;# 
   915  0E20                     	;# 
   916  0E21                     	;# 
   917  0E22                     	;# 
   918  0E23                     	;# 
   919  0E24                     	;# 
   920  0E25                     	;# 
   921  0E26                     	;# 
   922  0E27                     	;# 
   923  0E28                     	;# 
   924  0E29                     	;# 
   925  0E2A                     	;# 
   926  0E2B                     	;# 
   927  0E2C                     	;# 
   928  0E2D                     	;# 
   929  0E2E                     	;# 
   930  0E2F                     	;# 
   931  0E30                     	;# 
   932  0E31                     	;# 
   933  0E32                     	;# 
   934  0E33                     	;# 
   935  0E34                     	;# 
   936  0E35                     	;# 
   937  0E36                     	;# 
   938  0E37                     	;# 
   939  0E8F                     	;# 
   940  0E90                     	;# 
   941  0E91                     	;# 
   942  0E92                     	;# 
   943  0E93                     	;# 
   944  0E94                     	;# 
   945  0E95                     	;# 
   946  0E96                     	;# 
   947  0E97                     	;# 
   948  0E9C                     	;# 
   949  0E9D                     	;# 
   950  0E9E                     	;# 
   951  0EA1                     	;# 
   952  0EA2                     	;# 
   953  0EA3                     	;# 
   954  0EA4                     	;# 
   955  0EA5                     	;# 
   956  0EA9                     	;# 
   957  0EAA                     	;# 
   958  0EAB                     	;# 
   959  0EAC                     	;# 
   960  0EB1                     	;# 
   961  0EB2                     	;# 
   962  0EB3                     	;# 
   963  0EB8                     	;# 
   964  0EB9                     	;# 
   965  0EBA                     	;# 
   966  0EBB                     	;# 
   967  0EBC                     	;# 
   968  0EBD                     	;# 
   969  0EBE                     	;# 
   970  0EC3                     	;# 
   971  0EC5                     	;# 
   972  0EC6                     	;# 
   973  0EC7                     	;# 
   974  0EC8                     	;# 
   975  0EC9                     	;# 
   976  0ECA                     	;# 
   977  0ECB                     	;# 
   978  0ECC                     	;# 
   979  0F10                     	;# 
   980  0F11                     	;# 
   981  0F12                     	;# 
   982  0F13                     	;# 
   983  0F14                     	;# 
   984  0F15                     	;# 
   985  0F16                     	;# 
   986  0F17                     	;# 
   987  0F18                     	;# 
   988  0F19                     	;# 
   989  0F1A                     	;# 
   990  0F1B                     	;# 
   991  0F1C                     	;# 
   992  0F1D                     	;# 
   993  0F1E                     	;# 
   994  0F1F                     	;# 
   995  0F20                     	;# 
   996  0F21                     	;# 
   997  0F22                     	;# 
   998  0F23                     	;# 
   999  0F24                     	;# 
  1000  0F25                     	;# 
  1001  0F26                     	;# 
  1002  0F27                     	;# 
  1003  0F38                     	;# 
  1004  0F39                     	;# 
  1005  0F3A                     	;# 
  1006  0F3B                     	;# 
  1007  0F3C                     	;# 
  1008  0F3D                     	;# 
  1009  0F3E                     	;# 
  1010  0F3F                     	;# 
  1011  0F40                     	;# 
  1012  0F41                     	;# 
  1013  0F43                     	;# 
  1014  0F44                     	;# 
  1015  0F45                     	;# 
  1016  0F46                     	;# 
  1017  0F47                     	;# 
  1018  0F48                     	;# 
  1019  0F49                     	;# 
  1020  0F4A                     	;# 
  1021  0F4B                     	;# 
  1022  0F4C                     	;# 
  1023  0F4E                     	;# 
  1024  0F4F                     	;# 
  1025  0F50                     	;# 
  1026  0F51                     	;# 
  1027  0F52                     	;# 
  1028  0F53                     	;# 
  1029  0F54                     	;# 
  1030  0F55                     	;# 
  1031  0F56                     	;# 
  1032  0F57                     	;# 
  1033  0F65                     	;# 
  1034  0F68                     	;# 
  1035  0F69                     	;# 
  1036  0F6A                     	;# 
  1037  0F6B                     	;# 
  1038  0FE4                     	;# 
  1039  0FE5                     	;# 
  1040  0FE6                     	;# 
  1041  0FE7                     	;# 
  1042  0FE8                     	;# 
  1043  0FE9                     	;# 
  1044  0FEA                     	;# 
  1045  0FEB                     	;# 
  1046  0FED                     	;# 
  1047  0FEE                     	;# 
  1048  0FEF                     	;# 
  1049  0000                     	;# 
  1050  0001                     	;# 
  1051  0002                     	;# 
  1052  0003                     	;# 
  1053  0004                     	;# 
  1054  0005                     	;# 
  1055  0006                     	;# 
  1056  0007                     	;# 
  1057  0008                     	;# 
  1058  0009                     	;# 
  1059  000A                     	;# 
  1060  000B                     	;# 
  1061  000C                     	;# 
  1062  000D                     	;# 
  1063  000E                     	;# 
  1064  0010                     	;# 
  1065  0011                     	;# 
  1066  0012                     	;# 
  1067  0013                     	;# 
  1068  0016                     	;# 
  1069  0017                     	;# 
  1070  0018                     	;# 
  1071  001C                     	;# 
  1072  001C                     	;# 
  1073  001D                     	;# 
  1074  001D                     	;# 
  1075  001E                     	;# 
  1076  001F                     	;# 
  1077  008C                     	;# 
  1078  008C                     	;# 
  1079  008D                     	;# 
  1080  008E                     	;# 
  1081  008E                     	;# 
  1082  008F                     	;# 
  1083  0090                     	;# 
  1084  0090                     	;# 
  1085  0091                     	;# 
  1086  0093                     	;# 
  1087  0094                     	;# 
  1088  0095                     	;# 
  1089  0096                     	;# 
  1090  0097                     	;# 
  1091  0098                     	;# 
  1092  0099                     	;# 
  1093  009A                     	;# 
  1094  009B                     	;# 
  1095  009C                     	;# 
  1096  009D                     	;# 
  1097  009E                     	;# 
  1098  010C                     	;# 
  1099  010D                     	;# 
  1100  010E                     	;# 
  1101  010E                     	;# 
  1102  010F                     	;# 
  1103  0110                     	;# 
  1104  0110                     	;# 
  1105  0111                     	;# 
  1106  0112                     	;# 
  1107  0112                     	;# 
  1108  0113                     	;# 
  1109  0114                     	;# 
  1110  0114                     	;# 
  1111  0115                     	;# 
  1112  0116                     	;# 
  1113  0116                     	;# 
  1114  0117                     	;# 
  1115  0119                     	;# 
  1116  0119                     	;# 
  1117  0119                     	;# 
  1118  011A                     	;# 
  1119  011A                     	;# 
  1120  011A                     	;# 
  1121  011B                     	;# 
  1122  011B                     	;# 
  1123  011B                     	;# 
  1124  011B                     	;# 
  1125  011B                     	;# 
  1126  011C                     	;# 
  1127  011C                     	;# 
  1128  011C                     	;# 
  1129  011D                     	;# 
  1130  011D                     	;# 
  1131  011D                     	;# 
  1132  011E                     	;# 
  1133  011E                     	;# 
  1134  011E                     	;# 
  1135  011F                     	;# 
  1136  011F                     	;# 
  1137  011F                     	;# 
  1138  011F                     	;# 
  1139  011F                     	;# 
  1140  018C                     	;# 
  1141  018D                     	;# 
  1142  018E                     	;# 
  1143  018F                     	;# 
  1144  0190                     	;# 
  1145  0191                     	;# 
  1146  0192                     	;# 
  1147  0196                     	;# 
  1148  0197                     	;# 
  1149  0198                     	;# 
  1150  0199                     	;# 
  1151  019A                     	;# 
  1152  019B                     	;# 
  1153  019C                     	;# 
  1154  020C                     	;# 
  1155  020D                     	;# 
  1156  020E                     	;# 
  1157  020F                     	;# 
  1158  020F                     	;# 
  1159  0210                     	;# 
  1160  0210                     	;# 
  1161  0211                     	;# 
  1162  0211                     	;# 
  1163  0212                     	;# 
  1164  0213                     	;# 
  1165  0214                     	;# 
  1166  0215                     	;# 
  1167  0215                     	;# 
  1168  0216                     	;# 
  1169  0216                     	;# 
  1170  0217                     	;# 
  1171  0217                     	;# 
  1172  0218                     	;# 
  1173  0219                     	;# 
  1174  021A                     	;# 
  1175  021B                     	;# 
  1176  021B                     	;# 
  1177  021C                     	;# 
  1178  021C                     	;# 
  1179  021D                     	;# 
  1180  021D                     	;# 
  1181  021E                     	;# 
  1182  021F                     	;# 
  1183  028C                     	;# 
  1184  028C                     	;# 
  1185  028D                     	;# 
  1186  028D                     	;# 
  1187  028E                     	;# 
  1188  028F                     	;# 
  1189  0290                     	;# 
  1190  0290                     	;# 
  1191  0291                     	;# 
  1192  0292                     	;# 
  1193  0292                     	;# 
  1194  0293                     	;# 
  1195  0293                     	;# 
  1196  0294                     	;# 
  1197  0295                     	;# 
  1198  0296                     	;# 
  1199  0296                     	;# 
  1200  0297                     	;# 
  1201  0298                     	;# 
  1202  0298                     	;# 
  1203  0299                     	;# 
  1204  0299                     	;# 
  1205  029A                     	;# 
  1206  029B                     	;# 
  1207  029C                     	;# 
  1208  029C                     	;# 
  1209  029D                     	;# 
  1210  030C                     	;# 
  1211  030C                     	;# 
  1212  030D                     	;# 
  1213  030E                     	;# 
  1214  030F                     	;# 
  1215  0310                     	;# 
  1216  0310                     	;# 
  1217  0311                     	;# 
  1218  0312                     	;# 
  1219  0313                     	;# 
  1220  0314                     	;# 
  1221  0314                     	;# 
  1222  0315                     	;# 
  1223  0316                     	;# 
  1224  0317                     	;# 
  1225  0318                     	;# 
  1226  0318                     	;# 
  1227  0319                     	;# 
  1228  031A                     	;# 
  1229  031B                     	;# 
  1230  031C                     	;# 
  1231  031C                     	;# 
  1232  031D                     	;# 
  1233  031E                     	;# 
  1234  031F                     	;# 
  1235  038C                     	;# 
  1236  038D                     	;# 
  1237  038E                     	;# 
  1238  0390                     	;# 
  1239  0391                     	;# 
  1240  0392                     	;# 
  1241  040C                     	;# 
  1242  040D                     	;# 
  1243  040E                     	;# 
  1244  040F                     	;# 
  1245  0410                     	;# 
  1246  0411                     	;# 
  1247  0416                     	;# 
  1248  0416                     	;# 
  1249  0417                     	;# 
  1250  0418                     	;# 
  1251  0418                     	;# 
  1252  0419                     	;# 
  1253  041A                     	;# 
  1254  041A                     	;# 
  1255  041B                     	;# 
  1256  041C                     	;# 
  1257  041C                     	;# 
  1258  041D                     	;# 
  1259  041E                     	;# 
  1260  041F                     	;# 
  1261  048C                     	;# 
  1262  048C                     	;# 
  1263  048D                     	;# 
  1264  048E                     	;# 
  1265  048F                     	;# 
  1266  048F                     	;# 
  1267  0490                     	;# 
  1268  0491                     	;# 
  1269  0492                     	;# 
  1270  0492                     	;# 
  1271  0493                     	;# 
  1272  0494                     	;# 
  1273  0495                     	;# 
  1274  0495                     	;# 
  1275  0496                     	;# 
  1276  0497                     	;# 
  1277  0498                     	;# 
  1278  0499                     	;# 
  1279  049A                     	;# 
  1280  049B                     	;# 
  1281  049C                     	;# 
  1282  049D                     	;# 
  1283  050C                     	;# 
  1284  050C                     	;# 
  1285  050D                     	;# 
  1286  050E                     	;# 
  1287  050F                     	;# 
  1288  050F                     	;# 
  1289  0510                     	;# 
  1290  0511                     	;# 
  1291  0512                     	;# 
  1292  0512                     	;# 
  1293  0513                     	;# 
  1294  0514                     	;# 
  1295  0515                     	;# 
  1296  0515                     	;# 
  1297  0516                     	;# 
  1298  0517                     	;# 
  1299  0518                     	;# 
  1300  0519                     	;# 
  1301  051A                     	;# 
  1302  051B                     	;# 
  1303  051C                     	;# 
  1304  051D                     	;# 
  1305  058C                     	;# 
  1306  058C                     	;# 
  1307  058D                     	;# 
  1308  058E                     	;# 
  1309  058F                     	;# 
  1310  058F                     	;# 
  1311  0590                     	;# 
  1312  0591                     	;# 
  1313  0592                     	;# 
  1314  0593                     	;# 
  1315  060C                     	;# 
  1316  060D                     	;# 
  1317  060E                     	;# 
  1318  060F                     	;# 
  1319  0610                     	;# 
  1320  0611                     	;# 
  1321  0612                     	;# 
  1322  0613                     	;# 
  1323  0614                     	;# 
  1324  0616                     	;# 
  1325  0617                     	;# 
  1326  0618                     	;# 
  1327  0619                     	;# 
  1328  061A                     	;# 
  1329  061B                     	;# 
  1330  061C                     	;# 
  1331  061D                     	;# 
  1332  061E                     	;# 
  1333  068C                     	;# 
  1334  068D                     	;# 
  1335  068E                     	;# 
  1336  068F                     	;# 
  1337  0690                     	;# 
  1338  0691                     	;# 
  1339  0692                     	;# 
  1340  0693                     	;# 
  1341  0694                     	;# 
  1342  070C                     	;# 
  1343  070D                     	;# 
  1344  070E                     	;# 
  1345  070F                     	;# 
  1346  0710                     	;# 
  1347  0711                     	;# 
  1348  0712                     	;# 
  1349  0713                     	;# 
  1350  0714                     	;# 
  1351  0716                     	;# 
  1352  0717                     	;# 
  1353  0718                     	;# 
  1354  0719                     	;# 
  1355  071A                     	;# 
  1356  071B                     	;# 
  1357  071C                     	;# 
  1358  071D                     	;# 
  1359  071E                     	;# 
  1360  0796                     	;# 
  1361  0797                     	;# 
  1362  0798                     	;# 
  1363  0799                     	;# 
  1364  079A                     	;# 
  1365  079B                     	;# 
  1366  080C                     	;# 
  1367  080D                     	;# 
  1368  080E                     	;# 
  1369  080F                     	;# 
  1370  0810                     	;# 
  1371  0811                     	;# 
  1372  0812                     	;# 
  1373  0813                     	;# 
  1374  0814                     	;# 
  1375  081A                     	;# 
  1376  081B                     	;# 
  1377  081C                     	;# 
  1378  081D                     	;# 
  1379  081E                     	;# 
  1380  081F                     	;# 
  1381  088C                     	;# 
  1382  088D                     	;# 
  1383  088E                     	;# 
  1384  088F                     	;# 
  1385  0890                     	;# 
  1386  0891                     	;# 
  1387  0892                     	;# 
  1388  0893                     	;# 
  1389  0895                     	;# 
  1390  0896                     	;# 
  1391  0897                     	;# 
  1392  0898                     	;# 
  1393  0899                     	;# 
  1394  089A                     	;# 
  1395  089B                     	;# 
  1396  090C                     	;# 
  1397  090E                     	;# 
  1398  090F                     	;# 
  1399  091F                     	;# 
  1400  091F                     	;# 
  1401  098F                     	;# 
  1402  098F                     	;# 
  1403  0990                     	;# 
  1404  0991                     	;# 
  1405  0992                     	;# 
  1406  0993                     	;# 
  1407  0994                     	;# 
  1408  0995                     	;# 
  1409  0996                     	;# 
  1410  0997                     	;# 
  1411  0E0F                     	;# 
  1412  0E10                     	;# 
  1413  0E11                     	;# 
  1414  0E12                     	;# 
  1415  0E13                     	;# 
  1416  0E14                     	;# 
  1417  0E15                     	;# 
  1418  0E16                     	;# 
  1419  0E17                     	;# 
  1420  0E18                     	;# 
  1421  0E19                     	;# 
  1422  0E1A                     	;# 
  1423  0E1B                     	;# 
  1424  0E1C                     	;# 
  1425  0E1D                     	;# 
  1426  0E1E                     	;# 
  1427  0E1F                     	;# 
  1428  0E20                     	;# 
  1429  0E21                     	;# 
  1430  0E22                     	;# 
  1431  0E23                     	;# 
  1432  0E24                     	;# 
  1433  0E25                     	;# 
  1434  0E26                     	;# 
  1435  0E27                     	;# 
  1436  0E28                     	;# 
  1437  0E29                     	;# 
  1438  0E2A                     	;# 
  1439  0E2B                     	;# 
  1440  0E2C                     	;# 
  1441  0E2D                     	;# 
  1442  0E2E                     	;# 
  1443  0E2F                     	;# 
  1444  0E30                     	;# 
  1445  0E31                     	;# 
  1446  0E32                     	;# 
  1447  0E33                     	;# 
  1448  0E34                     	;# 
  1449  0E35                     	;# 
  1450  0E36                     	;# 
  1451  0E37                     	;# 
  1452  0E8F                     	;# 
  1453  0E90                     	;# 
  1454  0E91                     	;# 
  1455  0E92                     	;# 
  1456  0E93                     	;# 
  1457  0E94                     	;# 
  1458  0E95                     	;# 
  1459  0E96                     	;# 
  1460  0E97                     	;# 
  1461  0E9C                     	;# 
  1462  0E9D                     	;# 
  1463  0E9E                     	;# 
  1464  0EA1                     	;# 
  1465  0EA2                     	;# 
  1466  0EA3                     	;# 
  1467  0EA4                     	;# 
  1468  0EA5                     	;# 
  1469  0EA9                     	;# 
  1470  0EAA                     	;# 
  1471  0EAB                     	;# 
  1472  0EAC                     	;# 
  1473  0EB1                     	;# 
  1474  0EB2                     	;# 
  1475  0EB3                     	;# 
  1476  0EB8                     	;# 
  1477  0EB9                     	;# 
  1478  0EBA                     	;# 
  1479  0EBB                     	;# 
  1480  0EBC                     	;# 
  1481  0EBD                     	;# 
  1482  0EBE                     	;# 
  1483  0EC3                     	;# 
  1484  0EC5                     	;# 
  1485  0EC6                     	;# 
  1486  0EC7                     	;# 
  1487  0EC8                     	;# 
  1488  0EC9                     	;# 
  1489  0ECA                     	;# 
  1490  0ECB                     	;# 
  1491  0ECC                     	;# 
  1492  0F10                     	;# 
  1493  0F11                     	;# 
  1494  0F12                     	;# 
  1495  0F13                     	;# 
  1496  0F14                     	;# 
  1497  0F15                     	;# 
  1498  0F16                     	;# 
  1499  0F17                     	;# 
  1500  0F18                     	;# 
  1501  0F19                     	;# 
  1502  0F1A                     	;# 
  1503  0F1B                     	;# 
  1504  0F1C                     	;# 
  1505  0F1D                     	;# 
  1506  0F1E                     	;# 
  1507  0F1F                     	;# 
  1508  0F20                     	;# 
  1509  0F21                     	;# 
  1510  0F22                     	;# 
  1511  0F23                     	;# 
  1512  0F24                     	;# 
  1513  0F25                     	;# 
  1514  0F26                     	;# 
  1515  0F27                     	;# 
  1516  0F38                     	;# 
  1517  0F39                     	;# 
  1518  0F3A                     	;# 
  1519  0F3B                     	;# 
  1520  0F3C                     	;# 
  1521  0F3D                     	;# 
  1522  0F3E                     	;# 
  1523  0F3F                     	;# 
  1524  0F40                     	;# 
  1525  0F41                     	;# 
  1526  0F43                     	;# 
  1527  0F44                     	;# 
  1528  0F45                     	;# 
  1529  0F46                     	;# 
  1530  0F47                     	;# 
  1531  0F48                     	;# 
  1532  0F49                     	;# 
  1533  0F4A                     	;# 
  1534  0F4B                     	;# 
  1535  0F4C                     	;# 
  1536  0F4E                     	;# 
  1537  0F4F                     	;# 
  1538  0F50                     	;# 
  1539  0F51                     	;# 
  1540  0F52                     	;# 
  1541  0F53                     	;# 
  1542  0F54                     	;# 
  1543  0F55                     	;# 
  1544  0F56                     	;# 
  1545  0F57                     	;# 
  1546  0F65                     	;# 
  1547  0F68                     	;# 
  1548  0F69                     	;# 
  1549  0F6A                     	;# 
  1550  0F6B                     	;# 
  1551  0FE4                     	;# 
  1552  0FE5                     	;# 
  1553  0FE6                     	;# 
  1554  0FE7                     	;# 
  1555  0FE8                     	;# 
  1556  0FE9                     	;# 
  1557  0FEA                     	;# 
  1558  0FEB                     	;# 
  1559  0FED                     	;# 
  1560  0FEE                     	;# 
  1561  0FEF                     	;# 
  1562                           
  1563                           	psect	stringtext
  1564  0800                     __pstringtext:	
  1565  0800                     _fonts:	
  1566  0800  3400               	retlw	0
  1567  0801  3400               	retlw	0
  1568  0802  3400               	retlw	0
  1569  0803  3400               	retlw	0
  1570  0804  344E               	retlw	78
  1571  0805  3400               	retlw	0
  1572  0806  3406               	retlw	6
  1573  0807  3400               	retlw	0
  1574  0808  3406               	retlw	6
  1575  0809  34FF               	retlw	255
  1576  080A  34FF               	retlw	255
  1577  080B  34FF               	retlw	255
  1578  080C  3448               	retlw	72
  1579  080D  34D6               	retlw	214
  1580  080E  3424               	retlw	36
  1581  080F  3413               	retlw	19
  1582  0810  346B               	retlw	107
  1583  0811  3464               	retlw	100
  1584  0812  34FF               	retlw	255
  1585  0813  34FF               	retlw	255
  1586  0814  34FF               	retlw	255
  1587  0815  3400               	retlw	0
  1588  0816  3406               	retlw	6
  1589  0817  3400               	retlw	0
  1590  0818  3438               	retlw	56
  1591  0819  3444               	retlw	68
  1592  081A  3482               	retlw	130
  1593  081B  3482               	retlw	130
  1594  081C  3444               	retlw	68
  1595  081D  3438               	retlw	56
  1596  081E  3414               	retlw	20
  1597  081F  3408               	retlw	8
  1598  0820  343E               	retlw	62
  1599  0821  3410               	retlw	16
  1600  0822  3438               	retlw	56
  1601  0823  3410               	retlw	16
  1602  0824  34A0               	retlw	160
  1603  0825  3460               	retlw	96
  1604  0826  3400               	retlw	0
  1605  0827  3410               	retlw	16
  1606  0828  3410               	retlw	16
  1607  0829  3410               	retlw	16
  1608  082A  3460               	retlw	96
  1609  082B  3460               	retlw	96
  1610  082C  3400               	retlw	0
  1611  082D  3460               	retlw	96
  1612  082E  3418               	retlw	24
  1613  082F  3406               	retlw	6
  1614  0830  347C               	retlw	124
  1615  0831  3442               	retlw	66
  1616  0832  347C               	retlw	124
  1617  0833  3444               	retlw	68
  1618  0834  347E               	retlw	126
  1619  0835  3440               	retlw	64
  1620  0836  3464               	retlw	100
  1621  0837  3452               	retlw	82
  1622  0838  344C               	retlw	76
  1623  0839  344A               	retlw	74
  1624  083A  344A               	retlw	74
  1625  083B  3434               	retlw	52
  1626  083C  3438               	retlw	56
  1627  083D  3424               	retlw	36
  1628  083E  347E               	retlw	126
  1629  083F  344E               	retlw	78
  1630  0840  344A               	retlw	74
  1631  0841  3432               	retlw	50
  1632  0842  343C               	retlw	60
  1633  0843  344A               	retlw	74
  1634  0844  3432               	retlw	50
  1635  0845  3462               	retlw	98
  1636  0846  341A               	retlw	26
  1637  0847  3406               	retlw	6
  1638  0848  3476               	retlw	118
  1639  0849  344A               	retlw	74
  1640  084A  3476               	retlw	118
  1641  084B  344C               	retlw	76
  1642  084C  3452               	retlw	82
  1643  084D  343C               	retlw	60
  1644  084E  346C               	retlw	108
  1645  084F  346C               	retlw	108
  1646  0850  3400               	retlw	0
  1647  0851  34AC               	retlw	172
  1648  0852  346C               	retlw	108
  1649  0853  3400               	retlw	0
  1650  0854  3410               	retlw	16
  1651  0855  3428               	retlw	40
  1652  0856  3444               	retlw	68
  1653  0857  3428               	retlw	40
  1654  0858  3428               	retlw	40
  1655  0859  3428               	retlw	40
  1656  085A  3444               	retlw	68
  1657  085B  3428               	retlw	40
  1658  085C  3410               	retlw	16
  1659  085D  3402               	retlw	2
  1660  085E  3459               	retlw	89
  1661  085F  3406               	retlw	6
  1662  0860  34FF               	retlw	255
  1663  0861  34FF               	retlw	255
  1664  0862  34FF               	retlw	255
  1665  0863  347C               	retlw	124
  1666  0864  3412               	retlw	18
  1667  0865  347C               	retlw	124
  1668  0866  347E               	retlw	126
  1669  0867  345A               	retlw	90
  1670  0868  3434               	retlw	52
  1671  0869  343C               	retlw	60
  1672  086A  3442               	retlw	66
  1673  086B  3442               	retlw	66
  1674  086C  347E               	retlw	126
  1675  086D  3442               	retlw	66
  1676  086E  343C               	retlw	60
  1677  086F  347E               	retlw	126
  1678  0870  344A               	retlw	74
  1679  0871  3442               	retlw	66
  1680  0872  347E               	retlw	126
  1681  0873  340A               	retlw	10
  1682  0874  340A               	retlw	10
  1683  0875  343C               	retlw	60
  1684  0876  3452               	retlw	82
  1685  0877  3434               	retlw	52
  1686  0878  347E               	retlw	126
  1687  0879  3408               	retlw	8
  1688  087A  347E               	retlw	126
  1689  087B  3442               	retlw	66
  1690  087C  347E               	retlw	126
  1691  087D  3442               	retlw	66
  1692  087E  3430               	retlw	48
  1693  087F  3440               	retlw	64
  1694  0880  343E               	retlw	62
  1695  0881  347E               	retlw	126
  1696  0882  3418               	retlw	24
  1697  0883  3466               	retlw	102
  1698  0884  347E               	retlw	126
  1699  0885  3440               	retlw	64
  1700  0886  3440               	retlw	64
  1701  0887  347E               	retlw	126
  1702  0888  341C               	retlw	28
  1703  0889  347E               	retlw	126
  1704  088A  347E               	retlw	126
  1705  088B  3402               	retlw	2
  1706  088C  347E               	retlw	126
  1707  088D  343C               	retlw	60
  1708  088E  3442               	retlw	66
  1709  088F  343C               	retlw	60
  1710  0890  347E               	retlw	126
  1711  0891  3412               	retlw	18
  1712  0892  340C               	retlw	12
  1713  0893  347E               	retlw	126
  1714  0894  3462               	retlw	98
  1715  0895  34FE               	retlw	254
  1716  0896  347E               	retlw	126
  1717  0897  3432               	retlw	50
  1718  0898  344E               	retlw	78
  1719  0899  3444               	retlw	68
  1720  089A  344A               	retlw	74
  1721  089B  3432               	retlw	50
  1722  089C  3402               	retlw	2
  1723  089D  347E               	retlw	126
  1724  089E  3402               	retlw	2
  1725  089F  347E               	retlw	126
  1726  08A0  3440               	retlw	64
  1727  08A1  347E               	retlw	126
  1728  08A2  343E               	retlw	62
  1729  08A3  3440               	retlw	64
  1730  08A4  343E               	retlw	62
  1731  08A5  347E               	retlw	126
  1732  08A6  3438               	retlw	56
  1733  08A7  347E               	retlw	126
  1734  08A8  3466               	retlw	102
  1735  08A9  3418               	retlw	24
  1736  08AA  3466               	retlw	102
  1737  08AB  340E               	retlw	14
  1738  08AC  3470               	retlw	112
  1739  08AD  340E               	retlw	14
  1740  08AE  3462               	retlw	98
  1741  08AF  345A               	retlw	90
  1742  08B0  3446               	retlw	70
  1743  08B1  3400               	retlw	0
  1744  08B2  347E               	retlw	126
  1745  08B3  3442               	retlw	66
  1746  08B4  3406               	retlw	6
  1747  08B5  3418               	retlw	24
  1748  08B6  3460               	retlw	96
  1749  08B7  3442               	retlw	66
  1750  08B8  347E               	retlw	126
  1751  08B9  3400               	retlw	0
  1752  08BA  3404               	retlw	4
  1753  08BB  3402               	retlw	2
  1754  08BC  3404               	retlw	4
  1755  08BD  3440               	retlw	64
  1756  08BE  3440               	retlw	64
  1757  08BF  3440               	retlw	64
  1758  08C0  3400               	retlw	0
  1759  08C1  3402               	retlw	2
  1760  08C2  3404               	retlw	4
  1761  08C3  3474               	retlw	116
  1762  08C4  3454               	retlw	84
  1763  08C5  3478               	retlw	120
  1764  08C6  347E               	retlw	126
  1765  08C7  3448               	retlw	72
  1766  08C8  3430               	retlw	48
  1767  08C9  3430               	retlw	48
  1768  08CA  3448               	retlw	72
  1769  08CB  3448               	retlw	72
  1770  08CC  3430               	retlw	48
  1771  08CD  3448               	retlw	72
  1772  08CE  347E               	retlw	126
  1773  08CF  3438               	retlw	56
  1774  08D0  3454               	retlw	84
  1775  08D1  3458               	retlw	88
  1776  08D2  347C               	retlw	124
  1777  08D3  340A               	retlw	10
  1778  08D4  3402               	retlw	2
  1779  08D5  3498               	retlw	152
  1780  08D6  34A4               	retlw	164
  1781  08D7  347C               	retlw	124
  1782  08D8  347E               	retlw	126
  1783  08D9  3408               	retlw	8
  1784  08DA  3470               	retlw	112
  1785  08DB  3448               	retlw	72
  1786  08DC  347A               	retlw	122
  1787  08DD  3440               	retlw	64
  1788  08DE  3488               	retlw	136
  1789  08DF  34FA               	retlw	250
  1790  08E0  3400               	retlw	0
  1791  08E1  347E               	retlw	126
  1792  08E2  3418               	retlw	24
  1793  08E3  3464               	retlw	100
  1794  08E4  3442               	retlw	66
  1795  08E5  347E               	retlw	126
  1796  08E6  3440               	retlw	64
  1797  08E7  347C               	retlw	124
  1798  08E8  3438               	retlw	56
  1799  08E9  347C               	retlw	124
  1800  08EA  347C               	retlw	124
  1801  08EB  3404               	retlw	4
  1802  08EC  3478               	retlw	120
  1803  08ED  3438               	retlw	56
  1804  08EE  3444               	retlw	68
  1805  08EF  3438               	retlw	56
  1806  08F0  34FC               	retlw	252
  1807  08F1  3424               	retlw	36
  1808  08F2  3418               	retlw	24
  1809  08F3  3418               	retlw	24
  1810  08F4  3424               	retlw	36
  1811  08F5  34FC               	retlw	252
  1812  08F6  3478               	retlw	120
  1813  08F7  3404               	retlw	4
  1814  08F8  3404               	retlw	4
  1815  08F9  3448               	retlw	72
  1816  08FA  3454               	retlw	84
  1817  08FB  3424               	retlw	36
  1818  08FC  3404               	retlw	4
  1819  08FD  343E               	retlw	62
  1820  08FE  3444               	retlw	68
  1821  08FF  347C               	retlw	124
  1822  0900  3440               	retlw	64
  1823  0901  347C               	retlw	124
  1824  0902  343C               	retlw	60
  1825  0903  3440               	retlw	64
  1826  0904  343C               	retlw	60
  1827  0905  347C               	retlw	124
  1828  0906  3430               	retlw	48
  1829  0907  347C               	retlw	124
  1830  0908  346C               	retlw	108
  1831  0909  3410               	retlw	16
  1832  090A  346C               	retlw	108
  1833  090B  349C               	retlw	156
  1834  090C  34A0               	retlw	160
  1835  090D  347C               	retlw	124
  1836  090E  3464               	retlw	100
  1837  090F  3454               	retlw	84
  1838  0910  344C               	retlw	76
  1839  0911  34FF               	retlw	255
  1840  0912  34FF               	retlw	255
  1841  0913  34FF               	retlw	255
  1842  0914  34FF               	retlw	255
  1843  0915  34FF               	retlw	255
  1844  0916  34FF               	retlw	255
  1845  0917  34FF               	retlw	255
  1846  0918  34FF               	retlw	255
  1847  0919  34FF               	retlw	255
  1848  091A  34FF               	retlw	255
  1849  091B  34FF               	retlw	255
  1850  091C  34FF               	retlw	255
  1851  091D  34FF               	retlw	255
  1852  091E  34FF               	retlw	255
  1853  091F  34FF               	retlw	255
  1854  0920  34FF               	retlw	255
  1855  0921  34FF               	retlw	255
  1856  0922  34FF               	retlw	255
  1857  0923  340C               	retlw	12
  1858  0924  3412               	retlw	18
  1859  0925  340C               	retlw	12
  1860  0926  34FC               	retlw	252
  1861  0927  3440               	retlw	64
  1862  0928  347C               	retlw	124
  1863  0929  34FF               	retlw	255
  1864  092A  34FF               	retlw	255
  1865  092B  34FF               	retlw	255
  1866  092C  34FF               	retlw	255
  1867  092D  34FF               	retlw	255
  1868  092E  34FF               	retlw	255
  1869  092F                     __end_of_fonts:	
  1870  092F                     _coffee:	
  1871  092F  34FF               	retlw	255
  1872  0930  3401               	retlw	1
  1873  0931  3401               	retlw	1
  1874  0932  3401               	retlw	1
  1875  0933  3401               	retlw	1
  1876  0934  3401               	retlw	1
  1877  0935  3401               	retlw	1
  1878  0936  3401               	retlw	1
  1879  0937  3401               	retlw	1
  1880  0938  3401               	retlw	1
  1881  0939  3401               	retlw	1
  1882  093A  3401               	retlw	1
  1883  093B  3401               	retlw	1
  1884  093C  3401               	retlw	1
  1885  093D  3401               	retlw	1
  1886  093E  3401               	retlw	1
  1887  093F  3401               	retlw	1
  1888  0940  3401               	retlw	1
  1889  0941  3401               	retlw	1
  1890  0942  3401               	retlw	1
  1891  0943  3401               	retlw	1
  1892  0944  3401               	retlw	1
  1893  0945  3401               	retlw	1
  1894  0946  3401               	retlw	1
  1895  0947  3401               	retlw	1
  1896  0948  3401               	retlw	1
  1897  0949  3401               	retlw	1
  1898  094A  3481               	retlw	129
  1899  094B  34C1               	retlw	193
  1900  094C  34C1               	retlw	193
  1901  094D  34C1               	retlw	193
  1902  094E  3481               	retlw	129
  1903  094F  3401               	retlw	1
  1904  0950  3401               	retlw	1
  1905  0951  3401               	retlw	1
  1906  0952  3481               	retlw	129
  1907  0953  34C1               	retlw	193
  1908  0954  34C1               	retlw	193
  1909  0955  34C1               	retlw	193
  1910  0956  34C1               	retlw	193
  1911  0957  3401               	retlw	1
  1912  0958  34C1               	retlw	193
  1913  0959  34E1               	retlw	225
  1914  095A  3461               	retlw	97
  1915  095B  34E1               	retlw	225
  1916  095C  34C1               	retlw	193
  1917  095D  3481               	retlw	129
  1918  095E  3401               	retlw	1
  1919  095F  3481               	retlw	129
  1920  0960  34C1               	retlw	193
  1921  0961  34C1               	retlw	193
  1922  0962  3481               	retlw	129
  1923  0963  3481               	retlw	129
  1924  0964  3401               	retlw	1
  1925  0965  3401               	retlw	1
  1926  0966  3401               	retlw	1
  1927  0967  3401               	retlw	1
  1928  0968  3401               	retlw	1
  1929  0969  3401               	retlw	1
  1930  096A  3401               	retlw	1
  1931  096B  3401               	retlw	1
  1932  096C  3401               	retlw	1
  1933  096D  3401               	retlw	1
  1934  096E  3401               	retlw	1
  1935  096F  3401               	retlw	1
  1936  0970  3401               	retlw	1
  1937  0971  3401               	retlw	1
  1938  0972  3401               	retlw	1
  1939  0973  3401               	retlw	1
  1940  0974  3401               	retlw	1
  1941  0975  3401               	retlw	1
  1942  0976  3401               	retlw	1
  1943  0977  3401               	retlw	1
  1944  0978  3401               	retlw	1
  1945  0979  3401               	retlw	1
  1946  097A  3401               	retlw	1
  1947  097B  3401               	retlw	1
  1948  097C  3401               	retlw	1
  1949  097D  3401               	retlw	1
  1950  097E  3401               	retlw	1
  1951  097F  3401               	retlw	1
  1952  0980  3401               	retlw	1
  1953  0981  3401               	retlw	1
  1954  0982  34FF               	retlw	255
  1955  0983  34FF               	retlw	255
  1956  0984  3400               	retlw	0
  1957  0985  3400               	retlw	0
  1958  0986  3400               	retlw	0
  1959  0987  3400               	retlw	0
  1960  0988  3400               	retlw	0
  1961  0989  3400               	retlw	0
  1962  098A  3400               	retlw	0
  1963  098B  3400               	retlw	0
  1964  098C  3400               	retlw	0
  1965  098D  3400               	retlw	0
  1966  098E  3400               	retlw	0
  1967  098F  3400               	retlw	0
  1968  0990  3400               	retlw	0
  1969  0991  3400               	retlw	0
  1970  0992  3400               	retlw	0
  1971  0993  3400               	retlw	0
  1972  0994  3400               	retlw	0
  1973  0995  34C0               	retlw	192
  1974  0996  3440               	retlw	64
  1975  0997  34E0               	retlw	224
  1976  0998  34B0               	retlw	176
  1977  0999  3410               	retlw	16
  1978  099A  3400               	retlw	0
  1979  099B  341C               	retlw	28
  1980  099C  343E               	retlw	62
  1981  099D  347E               	retlw	126
  1982  099E  347F               	retlw	127
  1983  099F  347F               	retlw	127
  1984  09A0  347F               	retlw	127
  1985  09A1  347F               	retlw	127
  1986  09A2  347F               	retlw	127
  1987  09A3  347F               	retlw	127
  1988  09A4  3400               	retlw	0
  1989  09A5  3400               	retlw	0
  1990  09A6  3407               	retlw	7
  1991  09A7  340F               	retlw	15
  1992  09A8  340C               	retlw	12
  1993  09A9  340C               	retlw	12
  1994  09AA  3404               	retlw	4
  1995  09AB  3400               	retlw	0
  1996  09AC  3407               	retlw	7
  1997  09AD  340F               	retlw	15
  1998  09AE  340C               	retlw	12
  1999  09AF  340C               	retlw	12
  2000  09B0  340F               	retlw	15
  2001  09B1  3407               	retlw	7
  2002  09B2  341C               	retlw	28
  2003  09B3  341F               	retlw	31
  2004  09B4  3407               	retlw	7
  2005  09B5  3406               	retlw	6
  2006  09B6  3406               	retlw	6
  2007  09B7  3470               	retlw	112
  2008  09B8  343C               	retlw	60
  2009  09B9  341F               	retlw	31
  2010  09BA  340B               	retlw	11
  2011  09BB  341B               	retlw	27
  2012  09BC  34E6               	retlw	230
  2013  09BD  34F2               	retlw	242
  2014  09BE  34BC               	retlw	188
  2015  09BF  346C               	retlw	108
  2016  09C0  3438               	retlw	56
  2017  09C1  3498               	retlw	152
  2018  09C2  34D0               	retlw	208
  2019  09C3  34E0               	retlw	224
  2020  09C4  34B0               	retlw	176
  2021  09C5  3460               	retlw	96
  2022  09C6  3440               	retlw	64
  2023  09C7  3440               	retlw	64
  2024  09C8  3400               	retlw	0
  2025  09C9  3400               	retlw	0
  2026  09CA  3400               	retlw	0
  2027  09CB  3400               	retlw	0
  2028  09CC  3400               	retlw	0
  2029  09CD  3400               	retlw	0
  2030  09CE  3400               	retlw	0
  2031  09CF  3400               	retlw	0
  2032  09D0  3400               	retlw	0
  2033  09D1  3400               	retlw	0
  2034  09D2  3400               	retlw	0
  2035  09D3  3400               	retlw	0
  2036  09D4  3400               	retlw	0
  2037  09D5  3400               	retlw	0
  2038  09D6  34FF               	retlw	255
  2039  09D7  34FF               	retlw	255
  2040  09D8  3400               	retlw	0
  2041  09D9  3400               	retlw	0
  2042  09DA  3400               	retlw	0
  2043  09DB  3400               	retlw	0
  2044  09DC  3400               	retlw	0
  2045  09DD  3400               	retlw	0
  2046  09DE  3400               	retlw	0
  2047  09DF  3400               	retlw	0
  2048  09E0  3400               	retlw	0
  2049  09E1  3400               	retlw	0
  2050  09E2  3400               	retlw	0
  2051  09E3  3400               	retlw	0
  2052  09E4  3400               	retlw	0
  2053  09E5  3400               	retlw	0
  2054  09E6  3400               	retlw	0
  2055  09E7  3400               	retlw	0
  2056  09E8  3400               	retlw	0
  2057  09E9  3400               	retlw	0
  2058  09EA  3400               	retlw	0
  2059  09EB  3400               	retlw	0
  2060  09EC  340D               	retlw	13
  2061  09ED  340F               	retlw	15
  2062  09EE  3406               	retlw	6
  2063  09EF  3407               	retlw	7
  2064  09F0  3403               	retlw	3
  2065  09F1  3400               	retlw	0
  2066  09F2  3400               	retlw	0
  2067  09F3  3400               	retlw	0
  2068  09F4  3400               	retlw	0
  2069  09F5  3400               	retlw	0
  2070  09F6  3400               	retlw	0
  2071  09F7  3400               	retlw	0
  2072  09F8  3400               	retlw	0
  2073  09F9  3400               	retlw	0
  2074  09FA  3400               	retlw	0
  2075  09FB  3400               	retlw	0
  2076  09FC  3400               	retlw	0
  2077  09FD  3400               	retlw	0
  2078  09FE  34C0               	retlw	192
  2079  09FF  34F0               	retlw	240
  2080  0A00  3477               	retlw	119
  2081  0A01  341F               	retlw	31
  2082  0A02  34C8               	retlw	200
  2083  0A03  34C0               	retlw	192
  2084  0A04  3400               	retlw	0
  2085  0A05  3400               	retlw	0
  2086  0A06  3400               	retlw	0
  2087  0A07  3400               	retlw	0
  2088  0A08  3400               	retlw	0
  2089  0A09  3400               	retlw	0
  2090  0A0A  3400               	retlw	0
  2091  0A0B  3400               	retlw	0
  2092  0A0C  3400               	retlw	0
  2093  0A0D  3400               	retlw	0
  2094  0A0E  3400               	retlw	0
  2095  0A0F  3400               	retlw	0
  2096  0A10  3400               	retlw	0
  2097  0A11  3401               	retlw	1
  2098  0A12  3401               	retlw	1
  2099  0A13  3400               	retlw	0
  2100  0A14  3407               	retlw	7
  2101  0A15  3407               	retlw	7
  2102  0A16  340C               	retlw	12
  2103  0A17  340C               	retlw	12
  2104  0A18  3401               	retlw	1
  2105  0A19  3401               	retlw	1
  2106  0A1A  3400               	retlw	0
  2107  0A1B  3400               	retlw	0
  2108  0A1C  3400               	retlw	0
  2109  0A1D  3400               	retlw	0
  2110  0A1E  3400               	retlw	0
  2111  0A1F  3400               	retlw	0
  2112  0A20  3400               	retlw	0
  2113  0A21  3400               	retlw	0
  2114  0A22  3400               	retlw	0
  2115  0A23  3400               	retlw	0
  2116  0A24  3400               	retlw	0
  2117  0A25  3400               	retlw	0
  2118  0A26  3400               	retlw	0
  2119  0A27  3400               	retlw	0
  2120  0A28  3400               	retlw	0
  2121  0A29  3400               	retlw	0
  2122  0A2A  34FF               	retlw	255
  2123  0A2B  34FF               	retlw	255
  2124  0A2C  3400               	retlw	0
  2125  0A2D  3400               	retlw	0
  2126  0A2E  3400               	retlw	0
  2127  0A2F  3400               	retlw	0
  2128  0A30  3400               	retlw	0
  2129  0A31  3400               	retlw	0
  2130  0A32  3400               	retlw	0
  2131  0A33  3400               	retlw	0
  2132  0A34  3400               	retlw	0
  2133  0A35  3400               	retlw	0
  2134  0A36  3400               	retlw	0
  2135  0A37  3400               	retlw	0
  2136  0A38  3400               	retlw	0
  2137  0A39  3400               	retlw	0
  2138  0A3A  3400               	retlw	0
  2139  0A3B  3400               	retlw	0
  2140  0A3C  3400               	retlw	0
  2141  0A3D  3400               	retlw	0
  2142  0A3E  3400               	retlw	0
  2143  0A3F  3400               	retlw	0
  2144  0A40  3400               	retlw	0
  2145  0A41  3400               	retlw	0
  2146  0A42  3400               	retlw	0
  2147  0A43  3400               	retlw	0
  2148  0A44  3400               	retlw	0
  2149  0A45  3400               	retlw	0
  2150  0A46  3400               	retlw	0
  2151  0A47  3400               	retlw	0
  2152  0A48  3400               	retlw	0
  2153  0A49  3480               	retlw	128
  2154  0A4A  3480               	retlw	128
  2155  0A4B  3480               	retlw	128
  2156  0A4C  3480               	retlw	128
  2157  0A4D  34C0               	retlw	192
  2158  0A4E  34C0               	retlw	192
  2159  0A4F  34C0               	retlw	192
  2160  0A50  34C0               	retlw	192
  2161  0A51  34DE               	retlw	222
  2162  0A52  34FF               	retlw	255
  2163  0A53  34F1               	retlw	241
  2164  0A54  34E0               	retlw	224
  2165  0A55  34C0               	retlw	192
  2166  0A56  34E1               	retlw	225
  2167  0A57  34FF               	retlw	255
  2168  0A58  34DF               	retlw	223
  2169  0A59  34C4               	retlw	196
  2170  0A5A  34C0               	retlw	192
  2171  0A5B  34C0               	retlw	192
  2172  0A5C  34C0               	retlw	192
  2173  0A5D  34C0               	retlw	192
  2174  0A5E  34C0               	retlw	192
  2175  0A5F  34C0               	retlw	192
  2176  0A60  34C0               	retlw	192
  2177  0A61  3400               	retlw	0
  2178  0A62  3400               	retlw	0
  2179  0A63  3400               	retlw	0
  2180  0A64  3400               	retlw	0
  2181  0A65  3400               	retlw	0
  2182  0A66  3400               	retlw	0
  2183  0A67  3400               	retlw	0
  2184  0A68  3400               	retlw	0
  2185  0A69  3400               	retlw	0
  2186  0A6A  3400               	retlw	0
  2187  0A6B  3400               	retlw	0
  2188  0A6C  3400               	retlw	0
  2189  0A6D  3400               	retlw	0
  2190  0A6E  3400               	retlw	0
  2191  0A6F  3400               	retlw	0
  2192  0A70  3400               	retlw	0
  2193  0A71  3400               	retlw	0
  2194  0A72  3400               	retlw	0
  2195  0A73  3400               	retlw	0
  2196  0A74  3400               	retlw	0
  2197  0A75  3400               	retlw	0
  2198  0A76  3400               	retlw	0
  2199  0A77  3400               	retlw	0
  2200  0A78  3400               	retlw	0
  2201  0A79  3400               	retlw	0
  2202  0A7A  3400               	retlw	0
  2203  0A7B  3400               	retlw	0
  2204  0A7C  3400               	retlw	0
  2205  0A7D  3400               	retlw	0
  2206  0A7E  34FF               	retlw	255
  2207  0A7F  34FF               	retlw	255
  2208  0A80  3400               	retlw	0
  2209  0A81  3400               	retlw	0
  2210  0A82  3400               	retlw	0
  2211  0A83  3400               	retlw	0
  2212  0A84  3400               	retlw	0
  2213  0A85  3400               	retlw	0
  2214  0A86  3400               	retlw	0
  2215  0A87  3400               	retlw	0
  2216  0A88  3400               	retlw	0
  2217  0A89  3400               	retlw	0
  2218  0A8A  3400               	retlw	0
  2219  0A8B  3400               	retlw	0
  2220  0A8C  3400               	retlw	0
  2221  0A8D  3400               	retlw	0
  2222  0A8E  3400               	retlw	0
  2223  0A8F  3400               	retlw	0
  2224  0A90  3400               	retlw	0
  2225  0A91  3400               	retlw	0
  2226  0A92  3400               	retlw	0
  2227  0A93  3400               	retlw	0
  2228  0A94  3400               	retlw	0
  2229  0A95  3400               	retlw	0
  2230  0A96  3400               	retlw	0
  2231  0A97  3400               	retlw	0
  2232  0A98  3400               	retlw	0
  2233  0A99  3400               	retlw	0
  2234  0A9A  3400               	retlw	0
  2235  0A9B  3400               	retlw	0
  2236  0A9C  3400               	retlw	0
  2237  0A9D  34C7               	retlw	199
  2238  0A9E  34CF               	retlw	207
  2239  0A9F  349D               	retlw	157
  2240  0AA0  3491               	retlw	145
  2241  0AA1  34B7               	retlw	183
  2242  0AA2  34BF               	retlw	191
  2243  0AA3  34B8               	retlw	184
  2244  0AA4  34E0               	retlw	224
  2245  0AA5  34C0               	retlw	192
  2246  0AA6  3480               	retlw	128
  2247  0AA7  3480               	retlw	128
  2248  0AA8  3480               	retlw	128
  2249  0AA9  3480               	retlw	128
  2250  0AAA  3480               	retlw	128
  2251  0AAB  3480               	retlw	128
  2252  0AAC  3480               	retlw	128
  2253  0AAD  3480               	retlw	128
  2254  0AAE  34C0               	retlw	192
  2255  0AAF  34C0               	retlw	192
  2256  0AB0  34E0               	retlw	224
  2257  0AB1  34B8               	retlw	184
  2258  0AB2  349F               	retlw	159
  2259  0AB3  3487               	retlw	135
  2260  0AB4  34C1               	retlw	193
  2261  0AB5  34C0               	retlw	192
  2262  0AB6  3460               	retlw	96
  2263  0AB7  3400               	retlw	0
  2264  0AB8  3400               	retlw	0
  2265  0AB9  3400               	retlw	0
  2266  0ABA  3400               	retlw	0
  2267  0ABB  3400               	retlw	0
  2268  0ABC  3400               	retlw	0
  2269  0ABD  3400               	retlw	0
  2270  0ABE  3400               	retlw	0
  2271  0ABF  3400               	retlw	0
  2272  0AC0  3400               	retlw	0
  2273  0AC1  3400               	retlw	0
  2274  0AC2  3400               	retlw	0
  2275  0AC3  3400               	retlw	0
  2276  0AC4  3400               	retlw	0
  2277  0AC5  3400               	retlw	0
  2278  0AC6  3400               	retlw	0
  2279  0AC7  3400               	retlw	0
  2280  0AC8  3400               	retlw	0
  2281  0AC9  3400               	retlw	0
  2282  0ACA  3400               	retlw	0
  2283  0ACB  3400               	retlw	0
  2284  0ACC  3400               	retlw	0
  2285  0ACD  3400               	retlw	0
  2286  0ACE  3400               	retlw	0
  2287  0ACF  3400               	retlw	0
  2288  0AD0  3400               	retlw	0
  2289  0AD1  3400               	retlw	0
  2290  0AD2  34FF               	retlw	255
  2291  0AD3  34FF               	retlw	255
  2292  0AD4  3480               	retlw	128
  2293  0AD5  3480               	retlw	128
  2294  0AD6  3480               	retlw	128
  2295  0AD7  3480               	retlw	128
  2296  0AD8  3480               	retlw	128
  2297  0AD9  3480               	retlw	128
  2298  0ADA  3480               	retlw	128
  2299  0ADB  3480               	retlw	128
  2300  0ADC  3480               	retlw	128
  2301  0ADD  3480               	retlw	128
  2302  0ADE  3480               	retlw	128
  2303  0ADF  3480               	retlw	128
  2304  0AE0  3480               	retlw	128
  2305  0AE1  3480               	retlw	128
  2306  0AE2  3480               	retlw	128
  2307  0AE3  3480               	retlw	128
  2308  0AE4  3480               	retlw	128
  2309  0AE5  3480               	retlw	128
  2310  0AE6  3480               	retlw	128
  2311  0AE7  3480               	retlw	128
  2312  0AE8  3480               	retlw	128
  2313  0AE9  3480               	retlw	128
  2314  0AEA  3480               	retlw	128
  2315  0AEB  3480               	retlw	128
  2316  0AEC  3480               	retlw	128
  2317  0AED  3480               	retlw	128
  2318  0AEE  3480               	retlw	128
  2319  0AEF  3480               	retlw	128
  2320  0AF0  3480               	retlw	128
  2321  0AF1  3480               	retlw	128
  2322  0AF2  3481               	retlw	129
  2323  0AF3  3483               	retlw	131
  2324  0AF4  3483               	retlw	131
  2325  0AF5  3483               	retlw	131
  2326  0AF6  3483               	retlw	131
  2327  0AF7  3483               	retlw	131
  2328  0AF8  3483               	retlw	131
  2329  0AF9  3483               	retlw	131
  2330  0AFA  3483               	retlw	131
  2331  0AFB  3483               	retlw	131
  2332  0AFC  3483               	retlw	131
  2333  0AFD  3483               	retlw	131
  2334  0AFE  3483               	retlw	131
  2335  0AFF  3483               	retlw	131
  2336  0B00  3483               	retlw	131
  2337  0B01  3483               	retlw	131
  2338  0B02  3483               	retlw	131
  2339  0B03  3483               	retlw	131
  2340  0B04  3483               	retlw	131
  2341  0B05  3483               	retlw	131
  2342  0B06  3483               	retlw	131
  2343  0B07  3483               	retlw	131
  2344  0B08  3481               	retlw	129
  2345  0B09  3481               	retlw	129
  2346  0B0A  3480               	retlw	128
  2347  0B0B  3480               	retlw	128
  2348  0B0C  3480               	retlw	128
  2349  0B0D  3480               	retlw	128
  2350  0B0E  3480               	retlw	128
  2351  0B0F  3480               	retlw	128
  2352  0B10  3480               	retlw	128
  2353  0B11  3480               	retlw	128
  2354  0B12  3480               	retlw	128
  2355  0B13  3480               	retlw	128
  2356  0B14  3480               	retlw	128
  2357  0B15  3480               	retlw	128
  2358  0B16  3480               	retlw	128
  2359  0B17  3480               	retlw	128
  2360  0B18  3480               	retlw	128
  2361  0B19  3480               	retlw	128
  2362  0B1A  3480               	retlw	128
  2363  0B1B  3480               	retlw	128
  2364  0B1C  3480               	retlw	128
  2365  0B1D  3480               	retlw	128
  2366  0B1E  3480               	retlw	128
  2367  0B1F  3480               	retlw	128
  2368  0B20  3480               	retlw	128
  2369  0B21  3480               	retlw	128
  2370  0B22  3480               	retlw	128
  2371  0B23  3480               	retlw	128
  2372  0B24  3480               	retlw	128
  2373  0B25  3480               	retlw	128
  2374  0B26  34FF               	retlw	255
  2375  0B27                     __end_of_coffee:	
  2376  0016                     _LATA	set	22
  2377  0017                     _LATB	set	23
  2378  0018                     _LATC	set	24
  2379  0018                     _LATCbits	set	24
  2380  0011                     _TRISA	set	17
  2381  0012                     _TRISB	set	18
  2382  0013                     _TRISC	set	19
  2383  0013                     _TRISCbits	set	19
  2384  0F38                     _ANSELA	set	3896
  2385  0F43                     _ANSELB	set	3907
  2386  0F4E                     _ANSELC	set	3918
  2387  0B27                     STR_2:	
  2388  0B27  344C               	retlw	76	;'L'
  2389  0B28  3461               	retlw	97	;'a'
  2390  0B29  3479               	retlw	121	;'y'
  2391  0B2A  346E               	retlw	110	;'n'
  2392  0B2B  3465               	retlw	101	;'e'
  2393  0B2C  3420               	retlw	32	;' '
  2394  0B2D  3453               	retlw	83	;'S'
  2395  0B2E  3475               	retlw	117	;'u'
  2396  0B2F  3463               	retlw	99	;'c'
  2397  0B30  346B               	retlw	107	;'k'
  2398  0B31  3473               	retlw	115	;'s'
  2399  0B32  3420               	retlw	32	;' '
  2400  0B33  3443               	retlw	67	;'C'
  2401  0B34  344F               	retlw	79	;'O'
  2402  0B35  3443               	retlw	67	;'C'
  2403  0B36  344B               	retlw	75	;'K'
  2404  0B37  3421               	retlw	33	;'!'
  2405  0B38  3421               	retlw	33	;'!'
  2406  0B39  3400               	retlw	0
  2407  0B3A                     STR_3:	
  2408  0B3A  3461               	retlw	97	;'a'
  2409  0B3B  346E               	retlw	110	;'n'
  2410  0B3C  3464               	retlw	100	;'d'
  2411  0B3D  3420               	retlw	32	;' '
  2412  0B3E  344C               	retlw	76	;'L'
  2413  0B3F  3469               	retlw	105	;'i'
  2414  0B40  346B               	retlw	107	;'k'
  2415  0B41  3465               	retlw	101	;'e'
  2416  0B42  3473               	retlw	115	;'s'
  2417  0B43  3420               	retlw	32	;' '
  2418  0B44  3469               	retlw	105	;'i'
  2419  0B45  3474               	retlw	116	;'t'
  2420  0B46  3421               	retlw	33	;'!'
  2421  0B47  3421               	retlw	33	;'!'
  2422  0B48  3400               	retlw	0
  2423  0B49                     STR_1:	
  2424  0B49  3441               	retlw	65	;'A'
  2425  0B4A  3420               	retlw	32	;' '
  2426  0B4B  344E               	retlw	78	;'N'
  2427  0B4C  3420               	retlw	32	;' '
  2428  0B4D  3444               	retlw	68	;'D'
  2429  0B4E  3420               	retlw	32	;' '
  2430  0B4F  342C               	retlw	44	;','
  2431  0B50  3400               	retlw	0
  2432                           
  2433                           ; #config settings
  2434  0000                     
  2435                           	psect	cinit
  2436  07F6                     start_initialization:	
  2437  07F6                     __initialization:	
  2438                           
  2439                           ; Clear objects allocated to BANK0
  2440  07F6  01BD               	clrf	__pbssBANK0& (0+127)
  2441  07F7  01BE               	clrf	(__pbssBANK0+1)& (0+127)
  2442  07F8  01BF               	clrf	(__pbssBANK0+2)& (0+127)
  2443  07F9  01C0               	clrf	(__pbssBANK0+3)& (0+127)
  2444  07FA  01C1               	clrf	(__pbssBANK0+4)& (0+127)
  2445  07FB  01C2               	clrf	(__pbssBANK0+5)& (0+127)
  2446  07FC  01C3               	clrf	(__pbssBANK0+6)& (0+127)
  2447  07FD                     end_of_initialization:	
  2448                           ;End of C runtime variable initialization code
  2449                           
  2450  07FD                     __end_of__initialization:	
  2451  07FD  0020               	movlb	0
  2452  07FE  3185  2DF4         	ljmp	_main	;jump to C main() function
  2453                           
  2454                           	psect	bssBANK0
  2455  003D                     __pbssBANK0:	
  2456  003D                     LCD_Write_Int@F13601:	
  2457  003D                     	ds	5
  2458  0042                     _x:	
  2459  0042                     	ds	1
  2460  0043                     _y:	
  2461  0043                     	ds	1
  2462                           
  2463                           	psect	cstackCOMMON
  2464  0070                     __pcstackCOMMON:	
  2465  0070                     ?_LCDInit:	
  2466  0070                     ?_LCDClear:	
  2467                           ; 1 bytes @ 0x0
  2468                           
  2469  0070                     ?_drawBox:	
  2470                           ; 1 bytes @ 0x0
  2471                           
  2472  0070                     ?_LCDCharacter:	
  2473                           ; 1 bytes @ 0x0
  2474                           
  2475  0070                     ?_main:	
  2476                           ; 1 bytes @ 0x0
  2477                           
  2478  0070                     ?___wmul:	
  2479                           ; 2 bytes @ 0x0
  2480                           
  2481  0070                     ?___awdiv:	
  2482                           ; 2 bytes @ 0x0
  2483                           
  2484  0070                     ?___awmod:	
  2485                           ; 2 bytes @ 0x0
  2486                           
  2487  0070                     ___wmul@multiplier:	
  2488                           ; 2 bytes @ 0x0
  2489                           
  2490  0070                     ___awdiv@divisor:	
  2491                           ; 2 bytes @ 0x0
  2492                           
  2493  0070                     ___awmod@divisor:	
  2494                           ; 2 bytes @ 0x0
  2495                           
  2496                           
  2497                           ; 2 bytes @ 0x0
  2498  0070                     	ds	2
  2499  0072                     ___wmul@multiplicand:	
  2500  0072                     ___awdiv@dividend:	
  2501                           ; 2 bytes @ 0x2
  2502                           
  2503  0072                     ___awmod@dividend:	
  2504                           ; 2 bytes @ 0x2
  2505                           
  2506                           
  2507                           ; 2 bytes @ 0x2
  2508  0072                     	ds	2
  2509  0074                     ??___wmul:	
  2510  0074                     ??___awdiv:	
  2511                           ; 1 bytes @ 0x4
  2512                           
  2513  0074                     ??___awmod:	
  2514                           ; 1 bytes @ 0x4
  2515                           
  2516  0074                     ___wmul@product:	
  2517                           ; 1 bytes @ 0x4
  2518                           
  2519                           
  2520                           ; 2 bytes @ 0x4
  2521  0074                     	ds	1
  2522  0075                     ___awdiv@counter:	
  2523  0075                     ___awmod@counter:	
  2524                           ; 1 bytes @ 0x5
  2525                           
  2526                           
  2527                           ; 1 bytes @ 0x5
  2528  0075                     	ds	1
  2529  0076                     ?_LCDWrite:	
  2530  0076                     LCDWrite@data:	
  2531                           ; 1 bytes @ 0x6
  2532                           
  2533  0076                     ___awdiv@sign:	
  2534                           ; 1 bytes @ 0x6
  2535                           
  2536  0076                     ___awmod@sign:	
  2537                           ; 1 bytes @ 0x6
  2538                           
  2539                           
  2540                           ; 1 bytes @ 0x6
  2541  0076                     	ds	1
  2542  0077                     ??_LCDWrite:	
  2543  0077                     ___awdiv@quotient:	
  2544                           ; 1 bytes @ 0x7
  2545                           
  2546                           
  2547                           ; 2 bytes @ 0x7
  2548  0077                     	ds	1
  2549  0078                     LCDWrite@data_or_command:	
  2550                           
  2551                           ; 1 bytes @ 0x8
  2552  0078                     	ds	1
  2553  0079                     LCDWrite@d:	
  2554                           
  2555                           ; 1 bytes @ 0x9
  2556  0079                     	ds	1
  2557  007A                     LCDWrite@i:	
  2558                           
  2559                           ; 1 bytes @ 0xA
  2560  007A                     	ds	1
  2561  007B                     ??_LCDInit:	
  2562  007B                     ?_LCDBitmap:	
  2563                           ; 1 bytes @ 0xB
  2564                           
  2565  007B                     ?_gotoXY:	
  2566                           ; 1 bytes @ 0xB
  2567                           
  2568  007B                     gotoXY@y:	
  2569                           ; 1 bytes @ 0xB
  2570                           
  2571  007B                     LCDCharacter@character:	
  2572                           ; 1 bytes @ 0xB
  2573                           
  2574  007B                     LCDBitmap@my_array:	
  2575                           ; 1 bytes @ 0xB
  2576                           
  2577                           
  2578                           ; 2 bytes @ 0xB
  2579  007B                     	ds	1
  2580  007C                     ??_gotoXY:	
  2581  007C                     LCDCharacter@index:	
  2582                           ; 1 bytes @ 0xC
  2583                           
  2584                           
  2585                           ; 2 bytes @ 0xC
  2586  007C                     	ds	1
  2587  007D                     ??_LCDBitmap:	
  2588  007D                     gotoXY@x:	
  2589                           ; 1 bytes @ 0xD
  2590                           
  2591                           
  2592                           ; 1 bytes @ 0xD
  2593  007D                     	ds	1
  2594                           
  2595                           	psect	cstackBANK0
  2596  0020                     __pcstackBANK0:	
  2597  0020                     ??_LCDClear:	
  2598  0020                     ??_drawBox:	
  2599                           ; 1 bytes @ 0x0
  2600                           
  2601  0020                     ??_LCDCharacter:	
  2602                           ; 1 bytes @ 0x0
  2603                           
  2604  0020                     LCDBitmap@index:	
  2605                           ; 1 bytes @ 0x0
  2606                           
  2607                           
  2608                           ; 2 bytes @ 0x0
  2609  0020                     	ds	1
  2610  0021                     LCDClear@index:	
  2611  0021                     drawBox@j:	
  2612                           ; 2 bytes @ 0x1
  2613                           
  2614                           
  2615                           ; 2 bytes @ 0x1
  2616  0021                     	ds	4
  2617  0025                     ?_LCDWriteString:	
  2618  0025                     ?_LCD_Write_Int:	
  2619                           ; 1 bytes @ 0x5
  2620                           
  2621  0025                     LCDWriteString@characters:	
  2622                           ; 1 bytes @ 0x5
  2623                           
  2624  0025                     LCD_Write_Int@value:	
  2625                           ; 2 bytes @ 0x5
  2626                           
  2627                           
  2628                           ; 2 bytes @ 0x5
  2629  0025                     	ds	2
  2630  0027                     ??_LCDWriteString:	
  2631  0027                     LCD_Write_Int@fieldLength:	
  2632                           ; 1 bytes @ 0x7
  2633                           
  2634                           
  2635                           ; 1 bytes @ 0x7
  2636  0027                     	ds	1
  2637  0028                     LCD_Write_Int@numPlaces:	
  2638                           
  2639                           ; 1 bytes @ 0x8
  2640  0028                     	ds	1
  2641  0029                     LCD_Write_Int@sign:	
  2642                           
  2643                           ; 1 bytes @ 0x9
  2644  0029                     	ds	1
  2645  002A                     ??_LCD_Write_Int:	
  2646                           
  2647                           ; 1 bytes @ 0xA
  2648  002A                     	ds	5
  2649  002F                     LCD_Write_Int@str:	
  2650                           
  2651                           ; 5 bytes @ 0xF
  2652  002F                     	ds	5
  2653  0034                     LCD_Write_Int@j:	
  2654                           
  2655                           ; 2 bytes @ 0x14
  2656  0034                     	ds	2
  2657  0036                     LCD_Write_Int@i:	
  2658                           
  2659                           ; 2 bytes @ 0x16
  2660  0036                     	ds	2
  2661  0038                     ??_main:	
  2662                           
  2663                           ; 1 bytes @ 0x18
  2664  0038                     	ds	3
  2665  003B                     main@count:	
  2666                           
  2667                           ; 2 bytes @ 0x1B
  2668  003B                     	ds	2
  2669                           
  2670                           	psect	maintext
  2671  05F4                     __pmaintext:	
  2672 ;;
  2673 ;;Main: autosize = 0, tempsize = 3, incstack = 0, save=0
  2674 ;;
  2675 ;; *************** function _main *****************
  2676 ;; Defined at:
  2677 ;;		line 11 in file "main.c"
  2678 ;; Parameters:    Size  Location     Type
  2679 ;;		None
  2680 ;; Auto vars:     Size  Location     Type
  2681 ;;  count           2   27[BANK0 ] unsigned int 
  2682 ;; Return value:  Size  Location     Type
  2683 ;;                  2   38[None  ] int 
  2684 ;; Registers used:
  2685 ;;		wreg, fsr0l, fsr0h, fsr1l, fsr1h, status,2, status,0, pclath, cstack
  2686 ;; Tracked objects:
  2687 ;;		On entry : B1F/0
  2688 ;;		On exit  : 0/0
  2689 ;;		Unchanged: 0/0
  2690 ;; Data sizes:     COMMON   BANK0   BANK1   BANK2   BANK3   BANK4   BANK5   BANK6   BANK7   BANK8   BANK9  BANK10  BANK1
      +1  BANK12
  2691 ;;      Params:         0       0       0       0       0       0       0       0       0       0       0       0       
      +0       0
  2692 ;;      Locals:         0       2       0       0       0       0       0       0       0       0       0       0       
      +0       0
  2693 ;;      Temps:          0       3       0       0       0       0       0       0       0       0       0       0       
      +0       0
  2694 ;;      Totals:         0       5       0       0       0       0       0       0       0       0       0       0       
      +0       0
  2695 ;;Total ram usage:        5 bytes
  2696 ;; Hardware stack levels required when called:    3
  2697 ;; This function calls:
  2698 ;;		_LCDBitmap
  2699 ;;		_LCDClear
  2700 ;;		_LCDInit
  2701 ;;		_LCDWriteString
  2702 ;;		_LCD_Write_Int
  2703 ;;		_drawBox
  2704 ;;		_gotoXY
  2705 ;; This function is called by:
  2706 ;;		Startup code after reset
  2707 ;; This function uses a non-reentrant model
  2708 ;;
  2709                           
  2710                           
  2711                           ;psect for function _main
  2712  05F4                     _main:	
  2713                           
  2714                           ;main.c: 13: LATA = 0x00;
  2715                           
  2716                           ;incstack = 0
  2717                           ; Regs used in _main: [wreg-fsr1h+status,2+status,0+pclath+cstack]
  2718  05F4  0020               	movlb	0	; select bank0
  2719  05F5  0196               	clrf	22	;volatile
  2720                           
  2721                           ;main.c: 14: LATB = 0x00;
  2722  05F6  0197               	clrf	23	;volatile
  2723                           
  2724                           ;main.c: 15: LATC = 0x00;
  2725  05F7  0198               	clrf	24	;volatile
  2726                           
  2727                           ;main.c: 17: TRISA = 0x00;
  2728  05F8  0191               	clrf	17	;volatile
  2729                           
  2730                           ;main.c: 18: TRISB = 0x00;
  2731  05F9  0192               	clrf	18	;volatile
  2732                           
  2733                           ;main.c: 19: TRISC = 0x00;
  2734  05FA  0193               	clrf	19	;volatile
  2735                           
  2736                           ;main.c: 21: ANSELA = 0x00;
  2737  05FB  003E               	movlb	30	; select bank30
  2738  05FC  01B8               	clrf	56	;volatile
  2739                           
  2740                           ;main.c: 22: ANSELB = 0x00;
  2741  05FD  01C3               	clrf	67	;volatile
  2742                           
  2743                           ;main.c: 23: ANSELC = 0x00;
  2744  05FE  01CE               	clrf	78	;volatile
  2745                           
  2746                           ;main.c: 25: uint16_t count = 0;
  2747  05FF  0020               	movlb	0	; select bank0
  2748  0600  01BB               	clrf	main@count
  2749  0601  01BC               	clrf	main@count+1
  2750                           
  2751                           ;main.c: 27: LCDInit();
  2752  0602  3184  24D8  3185   	fcall	_LCDInit
  2753                           
  2754                           ;main.c: 29: LCDClear();
  2755  0605  3184  24B0  3185   	fcall	_LCDClear
  2756                           
  2757                           ;main.c: 30: LCDBitmap(coffee);
  2758  0608  302F               	movlw	low (_coffee| (0+32768))
  2759  0609  00FB               	movwf	LCDBitmap@my_array
  2760  060A  3089               	movlw	high (_coffee| (0+32768))
  2761  060B  00FC               	movwf	LCDBitmap@my_array+1
  2762  060C  3184  2468  3185   	fcall	_LCDBitmap
  2763                           
  2764                           ;main.c: 31: _delay((unsigned long)((3000)*(1000000L/4000.0)));
  2765  060F  3004               	movlw	4
  2766  0610  0020               	movlb	0	; select bank0
  2767  0611  00BA               	movwf	??_main+2
  2768  0612  30CF               	movlw	207
  2769  0613  00B9               	movwf	??_main+1
  2770  0614  3003               	movlw	3
  2771  0615  00B8               	movwf	??_main
  2772  0616                     u1037:	
  2773  0616  0BB8               	decfsz	??_main,f
  2774  0617  2E16               	goto	u1037
  2775  0618  0BB9               	decfsz	??_main+1,f
  2776  0619  2E16               	goto	u1037
  2777  061A  0BBA               	decfsz	??_main+2,f
  2778  061B  2E16               	goto	u1037
  2779  061C  3200               	nop2
  2780                           
  2781                           ;main.c: 32: LCDClear();
  2782  061D  3184  24B0  3185   	fcall	_LCDClear
  2783                           
  2784                           ;main.c: 33: drawBox();
  2785  0620  3186  267B  3185   	fcall	_drawBox
  2786                           
  2787                           ;main.c: 37: { gotoXY(30,1); LCDWriteString("A N D ,");};
  2788  0623  01FB               	clrf	gotoXY@y
  2789  0624  0AFB               	incf	gotoXY@y,f
  2790  0625  301E               	movlw	30
  2791  0626  3184  2423  3185   	fcall	_gotoXY
  2792  0629  3049               	movlw	low (STR_1| (0+32768))
  2793  062A  0020               	movlb	0	; select bank0
  2794  062B  00A5               	movwf	LCDWriteString@characters
  2795  062C  308B               	movlw	high (STR_1| (0+32768))
  2796  062D  00A6               	movwf	LCDWriteString@characters+1
  2797  062E  3184  2436  3185   	fcall	_LCDWriteString
  2798                           
  2799                           ;main.c: 38: _delay((unsigned long)((1000)*(1000000L/4000.0)));
  2800  0631  3002               	movlw	2
  2801  0632  0020               	movlb	0	; select bank0
  2802  0633  00BA               	movwf	??_main+2
  2803  0634  3045               	movlw	69
  2804  0635  00B9               	movwf	??_main+1
  2805  0636  30A9               	movlw	169
  2806  0637  00B8               	movwf	??_main
  2807  0638                     u1047:	
  2808  0638  0BB8               	decfsz	??_main,f
  2809  0639  2E38               	goto	u1047
  2810  063A  0BB9               	decfsz	??_main+1,f
  2811  063B  2E38               	goto	u1047
  2812  063C  0BBA               	decfsz	??_main+2,f
  2813  063D  2E38               	goto	u1047
  2814  063E  3200               	nop2
  2815                           
  2816                           ;main.c: 39: gotoXY(8,3);
  2817  063F  3003               	movlw	3
  2818  0640  0020               	movlb	0	; select bank0
  2819  0641  00B8               	movwf	??_main
  2820  0642  0838               	movf	??_main,w
  2821  0643  00FB               	movwf	gotoXY@y
  2822  0644  3008               	movlw	8
  2823  0645  3184  2423  3185   	fcall	_gotoXY
  2824                           
  2825                           ;main.c: 41: LCDWriteString("Layne Sucks COCK!!");
  2826  0648  3027               	movlw	low (STR_2| (0+32768))
  2827  0649  0020               	movlb	0	; select bank0
  2828  064A  00A5               	movwf	LCDWriteString@characters
  2829  064B  308B               	movlw	high (STR_2| (0+32768))
  2830  064C  00A6               	movwf	LCDWriteString@characters+1
  2831  064D  3184  2436  3185   	fcall	_LCDWriteString
  2832                           
  2833                           ;main.c: 42: gotoXY(8,4);
  2834  0650  3004               	movlw	4
  2835  0651  0020               	movlb	0	; select bank0
  2836  0652  00B8               	movwf	??_main
  2837  0653  0838               	movf	??_main,w
  2838  0654  00FB               	movwf	gotoXY@y
  2839  0655  3008               	movlw	8
  2840  0656  3184  2423  3185   	fcall	_gotoXY
  2841                           
  2842                           ;main.c: 43: LCDWriteString("and Likes it!!");
  2843  0659  303A               	movlw	low (STR_3| (0+32768))
  2844  065A  0020               	movlb	0	; select bank0
  2845  065B  00A5               	movwf	LCDWriteString@characters
  2846  065C  308B               	movlw	high (STR_3| (0+32768))
  2847  065D  00A6               	movwf	LCDWriteString@characters+1
  2848  065E  3184  2436  3185   	fcall	_LCDWriteString
  2849                           
  2850                           ;main.c: 45: LCDClear();
  2851  0661  3184  24B0  3185   	fcall	_LCDClear
  2852  0664                     l1185:	
  2853                           ;main.c: 46: while(1)
  2854                           
  2855                           
  2856                           ;main.c: 47: {
  2857                           ;main.c: 48: count +=1;
  2858  0664  3001               	movlw	1
  2859  0665  0020               	movlb	0	; select bank0
  2860  0666  07BB               	addwf	main@count,f
  2861  0667  3000               	movlw	0
  2862  0668  3DBC               	addwfc	main@count+1,f
  2863                           
  2864                           ;main.c: 51: { gotoXY(0,0); LCD_Write_Int(count,-1, 0, 0);};
  2865  0669  01FB               	clrf	gotoXY@y
  2866  066A  3000               	movlw	0
  2867  066B  3184  2423  3185   	fcall	_gotoXY
  2868  066E  0020               	movlb	0	; select bank0
  2869  066F  083C               	movf	main@count+1,w
  2870  0670  00A6               	movwf	LCD_Write_Int@value+1
  2871  0671  083B               	movf	main@count,w
  2872  0672  00A5               	movwf	LCD_Write_Int@value
  2873  0673  01A7               	clrf	LCD_Write_Int@fieldLength
  2874  0674  03A7               	decf	LCD_Write_Int@fieldLength,f
  2875  0675  01A8               	clrf	LCD_Write_Int@numPlaces
  2876  0676  01A9               	clrf	LCD_Write_Int@sign
  2877  0677  3187  272B  3185   	fcall	_LCD_Write_Int
  2878  067A  2E64               	goto	l1185
  2879  067B                     __end_of_main:	
  2880                           ;main.c: 54: }
  2881                           ;main.c: 55: return (1);
  2882                           ;	Return value of _main is never used
  2883                           
  2884                           
  2885                           	psect	text1
  2886  067B                     __ptext1:	
  2887 ;; *************** function _drawBox *****************
  2888 ;; Defined at:
  2889 ;;		line 392 in file "lcd.c"
  2890 ;; Parameters:    Size  Location     Type
  2891 ;;		None
  2892 ;; Auto vars:     Size  Location     Type
  2893 ;;  j               2    1[BANK0 ] int 
  2894 ;; Return value:  Size  Location     Type
  2895 ;;                  1    wreg      void 
  2896 ;; Registers used:
  2897 ;;		wreg, status,2, status,0, pclath, cstack
  2898 ;; Tracked objects:
  2899 ;;		On entry : 0/0
  2900 ;;		On exit  : 0/0
  2901 ;;		Unchanged: 0/0
  2902 ;; Data sizes:     COMMON   BANK0   BANK1   BANK2   BANK3   BANK4   BANK5   BANK6   BANK7   BANK8   BANK9  BANK10  BANK1
      +1  BANK12
  2903 ;;      Params:         0       0       0       0       0       0       0       0       0       0       0       0       
      +0       0
  2904 ;;      Locals:         0       2       0       0       0       0       0       0       0       0       0       0       
      +0       0
  2905 ;;      Temps:          0       1       0       0       0       0       0       0       0       0       0       0       
      +0       0
  2906 ;;      Totals:         0       3       0       0       0       0       0       0       0       0       0       0       
      +0       0
  2907 ;;Total ram usage:        3 bytes
  2908 ;; Hardware stack levels used:    1
  2909 ;; Hardware stack levels required when called:    2
  2910 ;; This function calls:
  2911 ;;		_LCDWrite
  2912 ;;		_gotoXY
  2913 ;; This function is called by:
  2914 ;;		_main
  2915 ;; This function uses a non-reentrant model
  2916 ;;
  2917                           
  2918                           
  2919                           ;psect for function _drawBox
  2920  067B                     _drawBox:	
  2921                           
  2922                           ;lcd.c: 394: int j;
  2923                           ;lcd.c: 396: for(j = 0; j < 84; j++)
  2924                           
  2925                           ;incstack = 0
  2926                           ; Regs used in _drawBox: [wreg+status,2+status,0+pclath+cstack]
  2927  067B  0020               	movlb	0	; select bank0
  2928  067C  01A1               	clrf	drawBox@j
  2929  067D  01A2               	clrf	drawBox@j+1
  2930  067E  0822               	movf	drawBox@j+1,w
  2931  067F  3A80               	xorlw	128
  2932  0680  00A0               	movwf	??_drawBox
  2933  0681  3080               	movlw	128
  2934  0682  0220               	subwf	??_drawBox,w
  2935  0683  1D03               	skipz
  2936  0684  2E87               	goto	u855
  2937  0685  3054               	movlw	84
  2938  0686  0221               	subwf	drawBox@j,w
  2939  0687                     u855:	
  2940  0687  1803               	btfsc	3,0
  2941  0688  2EA5               	goto	l1061
  2942  0689                     l1055:	
  2943                           
  2944                           ;lcd.c: 397: {
  2945                           ;lcd.c: 398: gotoXY(j, 0);
  2946  0689  01FB               	clrf	gotoXY@y
  2947  068A  0020               	movlb	0	; select bank0
  2948  068B  0821               	movf	drawBox@j,w
  2949  068C  3184  2423  3186   	fcall	_gotoXY
  2950                           
  2951                           ;lcd.c: 399: LCDWrite(1,0x01);
  2952  068F  01F6               	clrf	LCDWrite@data
  2953  0690  0AF6               	incf	LCDWrite@data,f
  2954  0691  3001               	movlw	1
  2955  0692  3184  248B  3186   	fcall	_LCDWrite
  2956  0695  3001               	movlw	1
  2957  0696  0020               	movlb	0	; select bank0
  2958  0697  07A1               	addwf	drawBox@j,f
  2959  0698  3000               	movlw	0
  2960  0699  3DA2               	addwfc	drawBox@j+1,f
  2961  069A  0822               	movf	drawBox@j+1,w
  2962  069B  3A80               	xorlw	128
  2963  069C  00A0               	movwf	??_drawBox
  2964  069D  3080               	movlw	128
  2965  069E  0220               	subwf	??_drawBox,w
  2966  069F  1D03               	skipz
  2967  06A0  2EA3               	goto	u865
  2968  06A1  3054               	movlw	84
  2969  06A2  0221               	subwf	drawBox@j,w
  2970  06A3                     u865:	
  2971  06A3  1C03               	skipc
  2972  06A4  2E89               	goto	l1055
  2973  06A5                     l1061:	
  2974                           
  2975                           ;lcd.c: 400: }
  2976                           ;lcd.c: 402: for(j = 0; j < 84; j++)
  2977  06A5  0020               	movlb	0	; select bank0
  2978  06A6  01A1               	clrf	drawBox@j
  2979  06A7  01A2               	clrf	drawBox@j+1
  2980  06A8  0822               	movf	drawBox@j+1,w
  2981  06A9  3A80               	xorlw	128
  2982  06AA  00A0               	movwf	??_drawBox
  2983  06AB  3080               	movlw	128
  2984  06AC  0220               	subwf	??_drawBox,w
  2985  06AD  1D03               	skipz
  2986  06AE  2EB1               	goto	u875
  2987  06AF  3054               	movlw	84
  2988  06B0  0221               	subwf	drawBox@j,w
  2989  06B1                     u875:	
  2990  06B1  1803               	btfsc	3,0
  2991  06B2  2ED5               	goto	l1073
  2992  06B3                     l1067:	
  2993                           
  2994                           ;lcd.c: 403: {
  2995                           ;lcd.c: 404: gotoXY(j, 5);
  2996  06B3  3005               	movlw	5
  2997  06B4  0020               	movlb	0	; select bank0
  2998  06B5  00A0               	movwf	??_drawBox
  2999  06B6  0820               	movf	??_drawBox,w
  3000  06B7  00FB               	movwf	gotoXY@y
  3001  06B8  0821               	movf	drawBox@j,w
  3002  06B9  3184  2423  3186   	fcall	_gotoXY
  3003                           
  3004                           ;lcd.c: 405: LCDWrite(1,0x80);
  3005  06BC  3080               	movlw	128
  3006  06BD  0020               	movlb	0	; select bank0
  3007  06BE  00A0               	movwf	??_drawBox
  3008  06BF  0820               	movf	??_drawBox,w
  3009  06C0  00F6               	movwf	LCDWrite@data
  3010  06C1  3001               	movlw	1
  3011  06C2  3184  248B  3186   	fcall	_LCDWrite
  3012  06C5  3001               	movlw	1
  3013  06C6  0020               	movlb	0	; select bank0
  3014  06C7  07A1               	addwf	drawBox@j,f
  3015  06C8  3000               	movlw	0
  3016  06C9  3DA2               	addwfc	drawBox@j+1,f
  3017  06CA  0822               	movf	drawBox@j+1,w
  3018  06CB  3A80               	xorlw	128
  3019  06CC  00A0               	movwf	??_drawBox
  3020  06CD  3080               	movlw	128
  3021  06CE  0220               	subwf	??_drawBox,w
  3022  06CF  1D03               	skipz
  3023  06D0  2ED3               	goto	u885
  3024  06D1  3054               	movlw	84
  3025  06D2  0221               	subwf	drawBox@j,w
  3026  06D3                     u885:	
  3027  06D3  1C03               	skipc
  3028  06D4  2EB3               	goto	l1067
  3029  06D5                     l1073:	
  3030                           
  3031                           ;lcd.c: 406: }
  3032                           ;lcd.c: 408: for(j = 0; j < 6; j++)
  3033  06D5  0020               	movlb	0	; select bank0
  3034  06D6  01A1               	clrf	drawBox@j
  3035  06D7  01A2               	clrf	drawBox@j+1
  3036  06D8  0822               	movf	drawBox@j+1,w
  3037  06D9  3A80               	xorlw	128
  3038  06DA  00A0               	movwf	??_drawBox
  3039  06DB  3080               	movlw	128
  3040  06DC  0220               	subwf	??_drawBox,w
  3041  06DD  1D03               	skipz
  3042  06DE  2EE1               	goto	u895
  3043  06DF  3006               	movlw	6
  3044  06E0  0221               	subwf	drawBox@j,w
  3045  06E1                     u895:	
  3046  06E1  1803               	btfsc	3,0
  3047  06E2  2F05               	goto	l1085
  3048  06E3                     l1079:	
  3049                           
  3050                           ;lcd.c: 409: {
  3051                           ;lcd.c: 410: gotoXY(83, j);
  3052  06E3  0020               	movlb	0	; select bank0
  3053  06E4  0821               	movf	drawBox@j,w
  3054  06E5  00A0               	movwf	??_drawBox
  3055  06E6  0820               	movf	??_drawBox,w
  3056  06E7  00FB               	movwf	gotoXY@y
  3057  06E8  3053               	movlw	83
  3058  06E9  3184  2423  3186   	fcall	_gotoXY
  3059                           
  3060                           ;lcd.c: 411: LCDWrite(1,0xff);
  3061  06EC  30FF               	movlw	255
  3062  06ED  0020               	movlb	0	; select bank0
  3063  06EE  00A0               	movwf	??_drawBox
  3064  06EF  0820               	movf	??_drawBox,w
  3065  06F0  00F6               	movwf	LCDWrite@data
  3066  06F1  3001               	movlw	1
  3067  06F2  3184  248B  3186   	fcall	_LCDWrite
  3068  06F5  3001               	movlw	1
  3069  06F6  0020               	movlb	0	; select bank0
  3070  06F7  07A1               	addwf	drawBox@j,f
  3071  06F8  3000               	movlw	0
  3072  06F9  3DA2               	addwfc	drawBox@j+1,f
  3073  06FA  0822               	movf	drawBox@j+1,w
  3074  06FB  3A80               	xorlw	128
  3075  06FC  00A0               	movwf	??_drawBox
  3076  06FD  3080               	movlw	128
  3077  06FE  0220               	subwf	??_drawBox,w
  3078  06FF  1D03               	skipz
  3079  0700  2F03               	goto	u905
  3080  0701  3006               	movlw	6
  3081  0702  0221               	subwf	drawBox@j,w
  3082  0703                     u905:	
  3083  0703  1C03               	skipc
  3084  0704  2EE3               	goto	l1079
  3085  0705                     l1085:	
  3086                           
  3087                           ;lcd.c: 412: }
  3088                           ;lcd.c: 414: for(j = 0; j < 6; j++)
  3089  0705  0020               	movlb	0	; select bank0
  3090  0706  01A1               	clrf	drawBox@j
  3091  0707  01A2               	clrf	drawBox@j+1
  3092  0708                     L1:	
  3093  0708  0822               	movf	drawBox@j+1,w
  3094  0709  3A80               	xorlw	128
  3095  070A  00A0               	movwf	??_drawBox
  3096  070B  3080               	movlw	128
  3097  070C  0220               	subwf	??_drawBox,w
  3098  070D  1D03               	skipz
  3099  070E  2F11               	goto	u915
  3100  070F  3006               	movlw	6
  3101  0710  0221               	subwf	drawBox@j,w
  3102  0711                     u915:	
  3103  0711  1803               	btfsc	3,0
  3104  0712  0008               	return
  3105                           
  3106                           ;lcd.c: 415: {
  3107                           ;lcd.c: 416: gotoXY(0, j);
  3108  0713  0020               	movlb	0	; select bank0
  3109  0714  0821               	movf	drawBox@j,w
  3110  0715  00A0               	movwf	??_drawBox
  3111  0716  0820               	movf	??_drawBox,w
  3112  0717  00FB               	movwf	gotoXY@y
  3113  0718  3000               	movlw	0
  3114  0719  3184  2423  3186   	fcall	_gotoXY
  3115                           
  3116                           ;lcd.c: 417: LCDWrite(1,0xff);
  3117  071C  30FF               	movlw	255
  3118  071D  0020               	movlb	0	; select bank0
  3119  071E  00A0               	movwf	??_drawBox
  3120  071F  0820               	movf	??_drawBox,w
  3121  0720  00F6               	movwf	LCDWrite@data
  3122  0721  3001               	movlw	1
  3123  0722  3184  248B  3186   	fcall	_LCDWrite
  3124  0725  3001               	movlw	1
  3125  0726  0020               	movlb	0	; select bank0
  3126  0727  07A1               	addwf	drawBox@j,f
  3127  0728  3000               	movlw	0
  3128  0729  3DA2               	addwfc	drawBox@j+1,f
  3129  072A  2F08               	goto	L1
  3130  072B                     __end_of_drawBox:	
  3131                           
  3132                           	psect	text2
  3133  072B                     __ptext2:	
  3134 ;; *************** function _LCD_Write_Int *****************
  3135 ;; Defined at:
  3136 ;;		line 271 in file "lcd.c"
  3137 ;; Parameters:    Size  Location     Type
  3138 ;;  value           2    5[BANK0 ] int 
  3139 ;;  fieldLength     1    7[BANK0 ] char 
  3140 ;;  numPlaces       1    8[BANK0 ] char 
  3141 ;;  sign            1    9[BANK0 ] char 
  3142 ;; Auto vars:     Size  Location     Type
  3143 ;;  str             5   15[BANK0 ] unsigned char [5]
  3144 ;;  i               2   22[BANK0 ] int 
  3145 ;;  j               2   20[BANK0 ] int 
  3146 ;; Return value:  Size  Location     Type
  3147 ;;                  1    wreg      void 
  3148 ;; Registers used:
  3149 ;;		wreg, fsr0l, fsr0h, fsr1l, fsr1h, status,2, status,0, pclath, cstack
  3150 ;; Tracked objects:
  3151 ;;		On entry : 0/0
  3152 ;;		On exit  : 0/0
  3153 ;;		Unchanged: 0/0
  3154 ;; Data sizes:     COMMON   BANK0   BANK1   BANK2   BANK3   BANK4   BANK5   BANK6   BANK7   BANK8   BANK9  BANK10  BANK1
      +1  BANK12
  3155 ;;      Params:         0       5       0       0       0       0       0       0       0       0       0       0       
      +0       0
  3156 ;;      Locals:         0       9       0       0       0       0       0       0       0       0       0       0       
      +0       0
  3157 ;;      Temps:          0       5       0       0       0       0       0       0       0       0       0       0       
      +0       0
  3158 ;;      Totals:         0      19       0       0       0       0       0       0       0       0       0       0       
      +0       0
  3159 ;;Total ram usage:       19 bytes
  3160 ;; Hardware stack levels used:    1
  3161 ;; Hardware stack levels required when called:    2
  3162 ;; This function calls:
  3163 ;;		_LCDCharacter
  3164 ;;		___awdiv
  3165 ;;		___awmod
  3166 ;; This function is called by:
  3167 ;;		_main
  3168 ;; This function uses a non-reentrant model
  3169 ;;
  3170                           
  3171                           
  3172                           ;psect for function _LCD_Write_Int
  3173  072B                     _LCD_Write_Int:	
  3174                           
  3175                           ;lcd.c: 273: char str[5]={0,0,0,0,0};
  3176                           
  3177                           ;incstack = 0
  3178                           ; Regs used in _LCD_Write_Int: [wreg-fsr1h+status,2+status,0+pclath+cstack]
  3179  072B  303D               	movlw	low LCD_Write_Int@F13601
  3180  072C  0086               	movwf	6
  3181  072D  3000               	movlw	high LCD_Write_Int@F13601
  3182  072E  0087               	movwf	7
  3183  072F  302F               	movlw	low LCD_Write_Int@str
  3184  0730  0084               	movwf	4
  3185  0731  3000               	movlw	high LCD_Write_Int@str
  3186  0732  0085               	movwf	5
  3187  0733  3005               	movlw	5
  3188  0734  0020               	movlb	0	; select bank0
  3189  0735  00AA               	movwf	??_LCD_Write_Int
  3190  0736                     u940:	
  3191  0736  0016               	moviw fsr1++
  3192  0737  001A               	movwi fsr0++
  3193  0738  0BAA               	decfsz	??_LCD_Write_Int,f
  3194  0739  2F36               	goto	u940
  3195                           
  3196                           ;lcd.c: 274: int i=4,j=0;
  3197  073A  3004               	movlw	4
  3198  073B  00B6               	movwf	LCD_Write_Int@i
  3199  073C  3000               	movlw	0
  3200  073D  00B7               	movwf	LCD_Write_Int@i+1
  3201  073E  01B4               	clrf	LCD_Write_Int@j
  3202  073F  01B5               	clrf	LCD_Write_Int@j+1
  3203                           
  3204                           ;lcd.c: 276: if(value<0)
  3205  0740  1FA6               	btfss	LCD_Write_Int@value+1,7
  3206  0741  2F4D               	goto	l1117
  3207                           
  3208                           ;lcd.c: 277: {
  3209                           ;lcd.c: 278: LCDCharacter('-');
  3210  0742  302D               	movlw	45
  3211  0743  3185  2558  3187   	fcall	_LCDCharacter
  3212                           
  3213                           ;lcd.c: 279: value=value*-1;
  3214  0746  0020               	movlb	0	; select bank0
  3215  0747  09A5               	comf	LCD_Write_Int@value,f
  3216  0748  09A6               	comf	LCD_Write_Int@value+1,f
  3217  0749  0AA5               	incf	LCD_Write_Int@value,f
  3218  074A  1903               	skipnz
  3219  074B  0AA6               	incf	LCD_Write_Int@value+1,f
  3220                           
  3221                           ;lcd.c: 280: }
  3222  074C  2F54               	goto	l1127
  3223  074D                     l1117:	
  3224                           
  3225                           ;lcd.c: 282: else
  3226                           ;lcd.c: 283: {
  3227                           ;lcd.c: 284: if(sign == 1)
  3228  074D  0329               	decf	LCD_Write_Int@sign,w
  3229  074E  1D03               	btfss	3,2
  3230  074F  2F54               	goto	l1127
  3231                           
  3232                           ;lcd.c: 285: {
  3233                           ;lcd.c: 286: LCDCharacter('+');
  3234  0750  302B               	movlw	43
  3235  0751  3185  2558  3187   	fcall	_LCDCharacter
  3236  0754                     l1127:	
  3237                           ;lcd.c: 287: }
  3238                           ;lcd.c: 288: }
  3239                           ;lcd.c: 290: while(value)
  3240                           
  3241  0754  0020               	movlb	0	; select bank0
  3242  0755  0825               	movf	LCD_Write_Int@value,w
  3243  0756  0426               	iorwf	LCD_Write_Int@value+1,w
  3244  0757  1903               	btfsc	3,2
  3245  0758  2F83               	goto	l1129
  3246                           
  3247                           ;lcd.c: 291: {
  3248                           ;lcd.c: 292: str[i]=value%10;
  3249  0759  300A               	movlw	10
  3250  075A  00F0               	movwf	___awmod@divisor
  3251  075B  3000               	movlw	0
  3252  075C  00F1               	movwf	___awmod@divisor+1
  3253  075D  0020               	movlb	0	; select bank0
  3254  075E  0826               	movf	LCD_Write_Int@value+1,w
  3255  075F  00F3               	movwf	___awmod@dividend+1
  3256  0760  0825               	movf	LCD_Write_Int@value,w
  3257  0761  00F2               	movwf	___awmod@dividend
  3258  0762  3185  2513  3187   	fcall	___awmod
  3259  0765  0870               	movf	?___awmod,w
  3260  0766  0020               	movlb	0	; select bank0
  3261  0767  00AA               	movwf	??_LCD_Write_Int
  3262  0768  0836               	movf	LCD_Write_Int@i,w
  3263  0769  3E2F               	addlw	(low (LCD_Write_Int@str| 0))& (0+255)
  3264  076A  0086               	movwf	6
  3265  076B  0187               	clrf	7
  3266  076C  082A               	movf	??_LCD_Write_Int,w
  3267  076D  0081               	movwf	1
  3268                           
  3269                           ;lcd.c: 293: value=value/10;
  3270  076E  300A               	movlw	10
  3271  076F  00F0               	movwf	___awdiv@divisor
  3272  0770  3000               	movlw	0
  3273  0771  00F1               	movwf	___awdiv@divisor+1
  3274  0772  0826               	movf	LCD_Write_Int@value+1,w
  3275  0773  00F3               	movwf	___awdiv@dividend+1
  3276  0774  0825               	movf	LCD_Write_Int@value,w
  3277  0775  00F2               	movwf	___awdiv@dividend
  3278  0776  3185  25A3  3187   	fcall	___awdiv
  3279  0779  0871               	movf	?___awdiv+1,w
  3280  077A  0020               	movlb	0	; select bank0
  3281  077B  00A6               	movwf	LCD_Write_Int@value+1
  3282  077C  0870               	movf	?___awdiv,w
  3283  077D  00A5               	movwf	LCD_Write_Int@value
  3284                           
  3285                           ;lcd.c: 294: i--;
  3286  077E  30FF               	movlw	255
  3287  077F  07B6               	addwf	LCD_Write_Int@i,f
  3288  0780  30FF               	movlw	255
  3289  0781  3DB7               	addwfc	LCD_Write_Int@i+1,f
  3290  0782  2F54               	goto	l1127
  3291  0783                     l1129:	
  3292                           
  3293                           ;lcd.c: 295: }
  3294                           ;lcd.c: 296: if(fieldLength==-1)
  3295  0783  0A27               	incf	LCD_Write_Int@fieldLength,w
  3296  0784  1903               	btfsc	3,2
  3297  0785  2F8B               	goto	l1135
  3298  0786  2F93               	goto	l1137
  3299  0787                     l1133:	
  3300                           ;lcd.c: 297: {
  3301                           ;lcd.c: 298: while(str[j]==0)
  3302                           
  3303                           
  3304                           ;lcd.c: 299: {
  3305                           ;lcd.c: 300: j++;
  3306  0787  3001               	movlw	1
  3307  0788  07B4               	addwf	LCD_Write_Int@j,f
  3308  0789  3000               	movlw	0
  3309  078A  3DB5               	addwfc	LCD_Write_Int@j+1,f
  3310  078B                     l1135:	
  3311  078B  0834               	movf	LCD_Write_Int@j,w
  3312  078C  3E2F               	addlw	(low (LCD_Write_Int@str| 0))& (0+255)
  3313  078D  0086               	movwf	6
  3314  078E  0187               	clrf	7
  3315  078F  0801               	movf	1,w
  3316  0790  1D03               	btfss	3,2
  3317  0791  2FA3               	goto	l1139
  3318  0792  2F87               	goto	l1133
  3319  0793                     l1137:	
  3320                           ;lcd.c: 301: }
  3321                           ;lcd.c: 302: }
  3322                           
  3323                           
  3324                           ;lcd.c: 303: else
  3325                           ;lcd.c: 304: {
  3326                           ;lcd.c: 305: j=5-fieldLength;
  3327  0793  0827               	movf	LCD_Write_Int@fieldLength,w
  3328  0794  00AA               	movwf	??_LCD_Write_Int
  3329  0795  01AB               	clrf	??_LCD_Write_Int+1
  3330  0796  1BAA               	btfsc	??_LCD_Write_Int,7
  3331  0797  03AB               	decf	??_LCD_Write_Int+1,f
  3332  0798  09AA               	comf	??_LCD_Write_Int,f
  3333  0799  09AB               	comf	??_LCD_Write_Int+1,f
  3334  079A  0AAA               	incf	??_LCD_Write_Int,f
  3335  079B  1903               	skipnz
  3336  079C  0AAB               	incf	??_LCD_Write_Int+1,f
  3337  079D  082A               	movf	??_LCD_Write_Int,w
  3338  079E  3E05               	addlw	5
  3339  079F  00B4               	movwf	LCD_Write_Int@j
  3340  07A0  3000               	movlw	0
  3341  07A1  3D2B               	addwfc	??_LCD_Write_Int+1,w
  3342  07A2  00B5               	movwf	LCD_Write_Int@j+1
  3343  07A3                     l1139:	
  3344                           
  3345                           ;lcd.c: 306: }
  3346                           ;lcd.c: 308: for(i=j;i<(5-numPlaces);i++)
  3347  07A3  0835               	movf	LCD_Write_Int@j+1,w
  3348  07A4  00B7               	movwf	LCD_Write_Int@i+1
  3349  07A5  0834               	movf	LCD_Write_Int@j,w
  3350  07A6  00B6               	movwf	LCD_Write_Int@i
  3351  07A7                     l1145:	
  3352  07A7  0828               	movf	LCD_Write_Int@numPlaces,w
  3353  07A8  00AA               	movwf	??_LCD_Write_Int
  3354  07A9  01AB               	clrf	??_LCD_Write_Int+1
  3355  07AA  1BAA               	btfsc	??_LCD_Write_Int,7
  3356  07AB  03AB               	decf	??_LCD_Write_Int+1,f
  3357  07AC  09AA               	comf	??_LCD_Write_Int,f
  3358  07AD  09AB               	comf	??_LCD_Write_Int+1,f
  3359  07AE  0AAA               	incf	??_LCD_Write_Int,f
  3360  07AF  1903               	skipnz
  3361  07B0  0AAB               	incf	??_LCD_Write_Int+1,f
  3362  07B1  082A               	movf	??_LCD_Write_Int,w
  3363  07B2  3E05               	addlw	5
  3364  07B3  00AC               	movwf	??_LCD_Write_Int+2
  3365  07B4  3000               	movlw	0
  3366  07B5  3D2B               	addwfc	??_LCD_Write_Int+1,w
  3367  07B6  00AD               	movwf	??_LCD_Write_Int+3
  3368  07B7  0837               	movf	LCD_Write_Int@i+1,w
  3369  07B8  3A80               	xorlw	128
  3370  07B9  00AE               	movwf	??_LCD_Write_Int+4
  3371  07BA  082D               	movf	??_LCD_Write_Int+3,w
  3372  07BB  3A80               	xorlw	128
  3373  07BC  022E               	subwf	??_LCD_Write_Int+4,w
  3374  07BD  1D03               	skipz
  3375  07BE  2FC1               	goto	u1005
  3376  07BF  082C               	movf	??_LCD_Write_Int+2,w
  3377  07C0  0236               	subwf	LCD_Write_Int@i,w
  3378  07C1                     u1005:	
  3379  07C1  1803               	btfsc	3,0
  3380  07C2  2FD3               	goto	l1147
  3381                           
  3382                           ;lcd.c: 309: {
  3383                           ;lcd.c: 310: LCDCharacter(48+str[i]);
  3384  07C3  0020               	movlb	0	; select bank0
  3385  07C4  0836               	movf	LCD_Write_Int@i,w
  3386  07C5  3E2F               	addlw	(low (LCD_Write_Int@str| 0))& (0+255)
  3387  07C6  0086               	movwf	6
  3388  07C7  0187               	clrf	7
  3389  07C8  0801               	movf	1,w
  3390  07C9  3E30               	addlw	48
  3391  07CA  3185  2558  3187   	fcall	_LCDCharacter
  3392  07CD  3001               	movlw	1
  3393  07CE  0020               	movlb	0	; select bank0
  3394  07CF  07B6               	addwf	LCD_Write_Int@i,f
  3395  07D0  3000               	movlw	0
  3396  07D1  3DB7               	addwfc	LCD_Write_Int@i+1,f
  3397  07D2  2FA7               	goto	l1145
  3398  07D3                     l1147:	
  3399                           
  3400                           ;lcd.c: 311: }
  3401                           ;lcd.c: 313: if(numPlaces == 1)
  3402  07D3  0020               	movlb	0	; select bank0
  3403  07D4  0328               	decf	LCD_Write_Int@numPlaces,w
  3404  07D5  1D03               	btfss	3,2
  3405  07D6  2FE1               	goto	l1151
  3406                           
  3407                           ;lcd.c: 314: {
  3408                           ;lcd.c: 315: LCDCharacter(46);
  3409  07D7  302E               	movlw	46
  3410  07D8  3185  2558  3187   	fcall	_LCDCharacter
  3411                           
  3412                           ;lcd.c: 316: LCDCharacter(48+str[4]);
  3413  07DB  0020               	movlb	0	; select bank0
  3414  07DC  0833               	movf	LCD_Write_Int@str+4,w
  3415  07DD  3E30               	addlw	48
  3416  07DE  3185  2558  3187   	fcall	_LCDCharacter
  3417  07E1                     l1151:	
  3418                           
  3419                           ;lcd.c: 317: }
  3420                           ;lcd.c: 319: if(numPlaces == 2)
  3421  07E1  3002               	movlw	2
  3422  07E2  0020               	movlb	0	; select bank0
  3423  07E3  0628               	xorwf	LCD_Write_Int@numPlaces,w
  3424  07E4  1D03               	btfss	3,2
  3425  07E5  0008               	return
  3426                           
  3427                           ;lcd.c: 320: {
  3428                           ;lcd.c: 321: LCDCharacter(46);
  3429  07E6  302E               	movlw	46
  3430  07E7  3185  2558  3187   	fcall	_LCDCharacter
  3431                           
  3432                           ;lcd.c: 322: LCDCharacter(48+str[3]);
  3433  07EA  0020               	movlb	0	; select bank0
  3434  07EB  0832               	movf	LCD_Write_Int@str+3,w
  3435  07EC  3E30               	addlw	48
  3436  07ED  3185  2558  3187   	fcall	_LCDCharacter
  3437                           
  3438                           ;lcd.c: 323: LCDCharacter(48+str[4]);
  3439  07F0  0020               	movlb	0	; select bank0
  3440  07F1  0833               	movf	LCD_Write_Int@str+4,w
  3441  07F2  3E30               	addlw	48
  3442  07F3  3185  2558         	fcall	_LCDCharacter
  3443  07F5  0008               	return
  3444  07F6                     __end_of_LCD_Write_Int:	
  3445                           
  3446                           	psect	text3
  3447  0513                     __ptext3:	
  3448 ;; *************** function ___awmod *****************
  3449 ;; Defined at:
  3450 ;;		line 6 in file "C:\Program Files (x86)\Microchip\xc8\v1.38\sources\common\awmod.c"
  3451 ;; Parameters:    Size  Location     Type
  3452 ;;  divisor         2    0[COMMON] int 
  3453 ;;  dividend        2    2[COMMON] int 
  3454 ;; Auto vars:     Size  Location     Type
  3455 ;;  sign            1    6[COMMON] unsigned char 
  3456 ;;  counter         1    5[COMMON] unsigned char 
  3457 ;; Return value:  Size  Location     Type
  3458 ;;                  2    0[COMMON] int 
  3459 ;; Registers used:
  3460 ;;		wreg, status,2, status,0
  3461 ;; Tracked objects:
  3462 ;;		On entry : 0/0
  3463 ;;		On exit  : 0/0
  3464 ;;		Unchanged: 0/0
  3465 ;; Data sizes:     COMMON   BANK0   BANK1   BANK2   BANK3   BANK4   BANK5   BANK6   BANK7   BANK8   BANK9  BANK10  BANK1
      +1  BANK12
  3466 ;;      Params:         4       0       0       0       0       0       0       0       0       0       0       0       
      +0       0
  3467 ;;      Locals:         2       0       0       0       0       0       0       0       0       0       0       0       
      +0       0
  3468 ;;      Temps:          1       0       0       0       0       0       0       0       0       0       0       0       
      +0       0
  3469 ;;      Totals:         7       0       0       0       0       0       0       0       0       0       0       0       
      +0       0
  3470 ;;Total ram usage:        7 bytes
  3471 ;; Hardware stack levels used:    1
  3472 ;; This function calls:
  3473 ;;		Nothing
  3474 ;; This function is called by:
  3475 ;;		_LCD_Write_Int
  3476 ;; This function uses a non-reentrant model
  3477 ;;
  3478                           
  3479                           
  3480                           ;psect for function ___awmod
  3481  0513                     ___awmod:	
  3482                           
  3483                           ;incstack = 0
  3484                           ; Regs used in ___awmod: [wreg+status,2+status,0]
  3485  0513  01F6               	clrf	___awmod@sign
  3486  0514  1FF3               	btfss	___awmod@dividend+1,7
  3487  0515  2D1D               	goto	l989
  3488  0516  09F2               	comf	___awmod@dividend,f
  3489  0517  09F3               	comf	___awmod@dividend+1,f
  3490  0518  0AF2               	incf	___awmod@dividend,f
  3491  0519  1903               	skipnz
  3492  051A  0AF3               	incf	___awmod@dividend+1,f
  3493  051B  01F6               	clrf	___awmod@sign
  3494  051C  0AF6               	incf	___awmod@sign,f
  3495  051D                     l989:	
  3496  051D  1FF1               	btfss	___awmod@divisor+1,7
  3497  051E  2D24               	goto	l993
  3498  051F  09F0               	comf	___awmod@divisor,f
  3499  0520  09F1               	comf	___awmod@divisor+1,f
  3500  0521  0AF0               	incf	___awmod@divisor,f
  3501  0522  1903               	skipnz
  3502  0523  0AF1               	incf	___awmod@divisor+1,f
  3503  0524                     l993:	
  3504  0524  0870               	movf	___awmod@divisor,w
  3505  0525  0471               	iorwf	___awmod@divisor+1,w
  3506  0526  1903               	btfsc	3,2
  3507  0527  2D4B               	goto	l1011
  3508  0528  01F5               	clrf	___awmod@counter
  3509  0529  0AF5               	incf	___awmod@counter,f
  3510  052A                     l1001:	
  3511  052A  1BF1               	btfsc	___awmod@divisor+1,7
  3512  052B  2D36               	goto	l1003
  3513  052C  3001               	movlw	1
  3514  052D                     u755:	
  3515  052D  35F0               	lslf	___awmod@divisor,f
  3516  052E  0DF1               	rlf	___awmod@divisor+1,f
  3517  052F  0B89               	decfsz	9,f
  3518  0530  2D2D               	goto	u755
  3519  0531  3001               	movlw	1
  3520  0532  00F4               	movwf	??___awmod
  3521  0533  0874               	movf	??___awmod,w
  3522  0534  07F5               	addwf	___awmod@counter,f
  3523  0535  2D2A               	goto	l1001
  3524  0536                     l1003:	
  3525  0536  0871               	movf	___awmod@divisor+1,w
  3526  0537  0273               	subwf	___awmod@dividend+1,w
  3527  0538  1D03               	skipz
  3528  0539  2D3C               	goto	u775
  3529  053A  0870               	movf	___awmod@divisor,w
  3530  053B  0272               	subwf	___awmod@dividend,w
  3531  053C                     u775:	
  3532  053C  1C03               	skipc
  3533  053D  2D42               	goto	l1007
  3534  053E  0870               	movf	___awmod@divisor,w
  3535  053F  02F2               	subwf	___awmod@dividend,f
  3536  0540  0871               	movf	___awmod@divisor+1,w
  3537  0541  3BF3               	subwfb	___awmod@dividend+1,f
  3538  0542                     l1007:	
  3539  0542  3001               	movlw	1
  3540  0543                     u785:	
  3541  0543  36F1               	lsrf	___awmod@divisor+1,f
  3542  0544  0CF0               	rrf	___awmod@divisor,f
  3543  0545  0B89               	decfsz	9,f
  3544  0546  2D43               	goto	u785
  3545  0547  3001               	movlw	1
  3546  0548  02F5               	subwf	___awmod@counter,f
  3547  0549  1D03               	btfss	3,2
  3548  054A  2D36               	goto	l1003
  3549  054B                     l1011:	
  3550  054B  0876               	movf	___awmod@sign,w
  3551  054C  1903               	btfsc	3,2
  3552  054D  2D53               	goto	l1015
  3553  054E  09F2               	comf	___awmod@dividend,f
  3554  054F  09F3               	comf	___awmod@dividend+1,f
  3555  0550  0AF2               	incf	___awmod@dividend,f
  3556  0551  1903               	skipnz
  3557  0552  0AF3               	incf	___awmod@dividend+1,f
  3558  0553                     l1015:	
  3559  0553  0873               	movf	___awmod@dividend+1,w
  3560  0554  00F1               	movwf	?___awmod+1
  3561  0555  0872               	movf	___awmod@dividend,w
  3562  0556  00F0               	movwf	?___awmod
  3563  0557  0008               	return
  3564  0558                     __end_of___awmod:	
  3565                           
  3566                           	psect	text4
  3567  05A3                     __ptext4:	
  3568 ;; *************** function ___awdiv *****************
  3569 ;; Defined at:
  3570 ;;		line 6 in file "C:\Program Files (x86)\Microchip\xc8\v1.38\sources\common\awdiv.c"
  3571 ;; Parameters:    Size  Location     Type
  3572 ;;  divisor         2    0[COMMON] int 
  3573 ;;  dividend        2    2[COMMON] int 
  3574 ;; Auto vars:     Size  Location     Type
  3575 ;;  quotient        2    7[COMMON] int 
  3576 ;;  sign            1    6[COMMON] unsigned char 
  3577 ;;  counter         1    5[COMMON] unsigned char 
  3578 ;; Return value:  Size  Location     Type
  3579 ;;                  2    0[COMMON] int 
  3580 ;; Registers used:
  3581 ;;		wreg, status,2, status,0
  3582 ;; Tracked objects:
  3583 ;;		On entry : 0/0
  3584 ;;		On exit  : 0/0
  3585 ;;		Unchanged: 0/0
  3586 ;; Data sizes:     COMMON   BANK0   BANK1   BANK2   BANK3   BANK4   BANK5   BANK6   BANK7   BANK8   BANK9  BANK10  BANK1
      +1  BANK12
  3587 ;;      Params:         4       0       0       0       0       0       0       0       0       0       0       0       
      +0       0
  3588 ;;      Locals:         4       0       0       0       0       0       0       0       0       0       0       0       
      +0       0
  3589 ;;      Temps:          1       0       0       0       0       0       0       0       0       0       0       0       
      +0       0
  3590 ;;      Totals:         9       0       0       0       0       0       0       0       0       0       0       0       
      +0       0
  3591 ;;Total ram usage:        9 bytes
  3592 ;; Hardware stack levels used:    1
  3593 ;; This function calls:
  3594 ;;		Nothing
  3595 ;; This function is called by:
  3596 ;;		_LCD_Write_Int
  3597 ;; This function uses a non-reentrant model
  3598 ;;
  3599                           
  3600                           
  3601                           ;psect for function ___awdiv
  3602  05A3                     ___awdiv:	
  3603                           
  3604                           ;incstack = 0
  3605                           ; Regs used in ___awdiv: [wreg+status,2+status,0]
  3606  05A3  01F6               	clrf	___awdiv@sign
  3607  05A4  1FF1               	btfss	___awdiv@divisor+1,7
  3608  05A5  2DAD               	goto	l945
  3609  05A6  09F0               	comf	___awdiv@divisor,f
  3610  05A7  09F1               	comf	___awdiv@divisor+1,f
  3611  05A8  0AF0               	incf	___awdiv@divisor,f
  3612  05A9  1903               	skipnz
  3613  05AA  0AF1               	incf	___awdiv@divisor+1,f
  3614  05AB  01F6               	clrf	___awdiv@sign
  3615  05AC  0AF6               	incf	___awdiv@sign,f
  3616  05AD                     l945:	
  3617  05AD  1FF3               	btfss	___awdiv@dividend+1,7
  3618  05AE  2DB8               	goto	l951
  3619  05AF  09F2               	comf	___awdiv@dividend,f
  3620  05B0  09F3               	comf	___awdiv@dividend+1,f
  3621  05B1  0AF2               	incf	___awdiv@dividend,f
  3622  05B2  1903               	skipnz
  3623  05B3  0AF3               	incf	___awdiv@dividend+1,f
  3624  05B4  3001               	movlw	1
  3625  05B5  00F4               	movwf	??___awdiv
  3626  05B6  0874               	movf	??___awdiv,w
  3627  05B7  06F6               	xorwf	___awdiv@sign,f
  3628  05B8                     l951:	
  3629  05B8  01F7               	clrf	___awdiv@quotient
  3630  05B9  01F8               	clrf	___awdiv@quotient+1
  3631  05BA  0870               	movf	___awdiv@divisor,w
  3632  05BB  0471               	iorwf	___awdiv@divisor+1,w
  3633  05BC  1903               	btfsc	3,2
  3634  05BD  2DE7               	goto	l973
  3635  05BE  01F5               	clrf	___awdiv@counter
  3636  05BF  0AF5               	incf	___awdiv@counter,f
  3637  05C0                     l961:	
  3638  05C0  1BF1               	btfsc	___awdiv@divisor+1,7
  3639  05C1  2DCC               	goto	l963
  3640  05C2  3001               	movlw	1
  3641  05C3                     u655:	
  3642  05C3  35F0               	lslf	___awdiv@divisor,f
  3643  05C4  0DF1               	rlf	___awdiv@divisor+1,f
  3644  05C5  0B89               	decfsz	9,f
  3645  05C6  2DC3               	goto	u655
  3646  05C7  3001               	movlw	1
  3647  05C8  00F4               	movwf	??___awdiv
  3648  05C9  0874               	movf	??___awdiv,w
  3649  05CA  07F5               	addwf	___awdiv@counter,f
  3650  05CB  2DC0               	goto	l961
  3651  05CC                     l963:	
  3652  05CC  3001               	movlw	1
  3653  05CD                     u675:	
  3654  05CD  35F7               	lslf	___awdiv@quotient,f
  3655  05CE  0DF8               	rlf	___awdiv@quotient+1,f
  3656  05CF  0B89               	decfsz	9,f
  3657  05D0  2DCD               	goto	u675
  3658  05D1  0871               	movf	___awdiv@divisor+1,w
  3659  05D2  0273               	subwf	___awdiv@dividend+1,w
  3660  05D3  1D03               	skipz
  3661  05D4  2DD7               	goto	u685
  3662  05D5  0870               	movf	___awdiv@divisor,w
  3663  05D6  0272               	subwf	___awdiv@dividend,w
  3664  05D7                     u685:	
  3665  05D7  1C03               	skipc
  3666  05D8  2DDE               	goto	l969
  3667  05D9  0870               	movf	___awdiv@divisor,w
  3668  05DA  02F2               	subwf	___awdiv@dividend,f
  3669  05DB  0871               	movf	___awdiv@divisor+1,w
  3670  05DC  3BF3               	subwfb	___awdiv@dividend+1,f
  3671  05DD  1477               	bsf	___awdiv@quotient,0
  3672  05DE                     l969:	
  3673  05DE  3001               	movlw	1
  3674  05DF                     u695:	
  3675  05DF  36F1               	lsrf	___awdiv@divisor+1,f
  3676  05E0  0CF0               	rrf	___awdiv@divisor,f
  3677  05E1  0B89               	decfsz	9,f
  3678  05E2  2DDF               	goto	u695
  3679  05E3  3001               	movlw	1
  3680  05E4  02F5               	subwf	___awdiv@counter,f
  3681  05E5  1D03               	btfss	3,2
  3682  05E6  2DCC               	goto	l963
  3683  05E7                     l973:	
  3684  05E7  0876               	movf	___awdiv@sign,w
  3685  05E8  1903               	btfsc	3,2
  3686  05E9  2DEF               	goto	l977
  3687  05EA  09F7               	comf	___awdiv@quotient,f
  3688  05EB  09F8               	comf	___awdiv@quotient+1,f
  3689  05EC  0AF7               	incf	___awdiv@quotient,f
  3690  05ED  1903               	skipnz
  3691  05EE  0AF8               	incf	___awdiv@quotient+1,f
  3692  05EF                     l977:	
  3693  05EF  0878               	movf	___awdiv@quotient+1,w
  3694  05F0  00F1               	movwf	?___awdiv+1
  3695  05F1  0877               	movf	___awdiv@quotient,w
  3696  05F2  00F0               	movwf	?___awdiv
  3697  05F3  0008               	return
  3698  05F4                     __end_of___awdiv:	
  3699                           
  3700                           	psect	text5
  3701  0436                     __ptext5:	
  3702 ;; *************** function _LCDWriteString *****************
  3703 ;; Defined at:
  3704 ;;		line 257 in file "lcd.c"
  3705 ;; Parameters:    Size  Location     Type
  3706 ;;  characters      2    5[BANK0 ] PTR const unsigned char 
  3707 ;;		 -> STR_3(15), STR_2(19), STR_1(8), 
  3708 ;; Auto vars:     Size  Location     Type
  3709 ;;		None
  3710 ;; Return value:  Size  Location     Type
  3711 ;;                  1    wreg      void 
  3712 ;; Registers used:
  3713 ;;		wreg, fsr0l, fsr0h, status,2, status,0, pclath, cstack
  3714 ;; Tracked objects:
  3715 ;;		On entry : 0/0
  3716 ;;		On exit  : 0/0
  3717 ;;		Unchanged: 0/0
  3718 ;; Data sizes:     COMMON   BANK0   BANK1   BANK2   BANK3   BANK4   BANK5   BANK6   BANK7   BANK8   BANK9  BANK10  BANK1
      +1  BANK12
  3719 ;;      Params:         0       2       0       0       0       0       0       0       0       0       0       0       
      +0       0
  3720 ;;      Locals:         0       0       0       0       0       0       0       0       0       0       0       0       
      +0       0
  3721 ;;      Temps:          0       1       0       0       0       0       0       0       0       0       0       0       
      +0       0
  3722 ;;      Totals:         0       3       0       0       0       0       0       0       0       0       0       0       
      +0       0
  3723 ;;Total ram usage:        3 bytes
  3724 ;; Hardware stack levels used:    1
  3725 ;; Hardware stack levels required when called:    2
  3726 ;; This function calls:
  3727 ;;		_LCDCharacter
  3728 ;; This function is called by:
  3729 ;;		_main
  3730 ;; This function uses a non-reentrant model
  3731 ;;
  3732                           
  3733                           
  3734                           ;psect for function _LCDWriteString
  3735  0436                     _LCDWriteString:	
  3736  0436                     l1103:	
  3737                           ;lcd.c: 259: while (*characters)
  3738                           
  3739                           ;incstack = 0
  3740                           ; Regs used in _LCDWriteString: [wreg-fsr0h+status,2+status,0+pclath+cstack]
  3741                           
  3742  0436  0020               	movlb	0	; select bank0
  3743  0437  0825               	movf	LCDWriteString@characters,w
  3744  0438  0084               	movwf	4
  3745  0439  0826               	movf	LCDWriteString@characters+1,w
  3746  043A  0085               	movwf	5
  3747  043B  0012               	moviw fsr0++
  3748  043C  1903               	btfsc	3,2
  3749  043D  0008               	return
  3750                           
  3751                           ;lcd.c: 260: LCDCharacter(*characters++);
  3752  043E  0020               	movlb	0	; select bank0
  3753  043F  0825               	movf	LCDWriteString@characters,w
  3754  0440  0084               	movwf	4
  3755  0441  0826               	movf	LCDWriteString@characters+1,w
  3756  0442  0085               	movwf	5
  3757  0443  0800               	movf	0,w	;code access
  3758  0444  3185  2558  3184   	fcall	_LCDCharacter
  3759  0447  3001               	movlw	1
  3760  0448  0020               	movlb	0	; select bank0
  3761  0449  07A5               	addwf	LCDWriteString@characters,f
  3762  044A  3000               	movlw	0
  3763  044B  3DA6               	addwfc	LCDWriteString@characters+1,f
  3764  044C  2C36               	goto	l1103
  3765  044D                     __end_of_LCDWriteString:	
  3766                           
  3767                           	psect	text6
  3768  0558                     __ptext6:	
  3769 ;; *************** function _LCDCharacter *****************
  3770 ;; Defined at:
  3771 ;;		line 243 in file "lcd.c"
  3772 ;; Parameters:    Size  Location     Type
  3773 ;;  character       1    wreg     const unsigned char 
  3774 ;; Auto vars:     Size  Location     Type
  3775 ;;  character       1   11[COMMON] const unsigned char 
  3776 ;;  index           2   12[COMMON] int 
  3777 ;; Return value:  Size  Location     Type
  3778 ;;                  1    wreg      void 
  3779 ;; Registers used:
  3780 ;;		wreg, fsr0l, fsr0h, status,2, status,0, pclath, cstack
  3781 ;; Tracked objects:
  3782 ;;		On entry : 0/0
  3783 ;;		On exit  : 0/0
  3784 ;;		Unchanged: 0/0
  3785 ;; Data sizes:     COMMON   BANK0   BANK1   BANK2   BANK3   BANK4   BANK5   BANK6   BANK7   BANK8   BANK9  BANK10  BANK1
      +1  BANK12
  3786 ;;      Params:         0       0       0       0       0       0       0       0       0       0       0       0       
      +0       0
  3787 ;;      Locals:         3       0       0       0       0       0       0       0       0       0       0       0       
      +0       0
  3788 ;;      Temps:          0       5       0       0       0       0       0       0       0       0       0       0       
      +0       0
  3789 ;;      Totals:         3       5       0       0       0       0       0       0       0       0       0       0       
      +0       0
  3790 ;;Total ram usage:        8 bytes
  3791 ;; Hardware stack levels used:    1
  3792 ;; Hardware stack levels required when called:    1
  3793 ;; This function calls:
  3794 ;;		_LCDWrite
  3795 ;;		___wmul
  3796 ;; This function is called by:
  3797 ;;		_LCDWriteString
  3798 ;;		_LCD_Write_Int
  3799 ;; This function uses a non-reentrant model
  3800 ;;
  3801                           
  3802                           
  3803                           ;psect for function _LCDCharacter
  3804  0558                     _LCDCharacter:	
  3805                           
  3806                           ;incstack = 0
  3807                           ; Regs used in _LCDCharacter: [wreg-fsr0h+status,2+status,0+pclath+cstack]
  3808                           ;LCDCharacter@character stored from wreg
  3809  0558  00FB               	movwf	LCDCharacter@character
  3810                           
  3811                           ;lcd.c: 247: for (int index = 0 ; index < 3 ; index++)
  3812  0559  01FC               	clrf	LCDCharacter@index
  3813  055A  01FD               	clrf	LCDCharacter@index+1
  3814  055B  087D               	movf	LCDCharacter@index+1,w
  3815  055C  3A80               	xorlw	128
  3816  055D  0020               	movlb	0	; select bank0
  3817  055E  00A0               	movwf	??_LCDCharacter
  3818  055F  3080               	movlw	128
  3819  0560  0220               	subwf	??_LCDCharacter,w
  3820  0561  1D03               	skipz
  3821  0562  2D65               	goto	u605
  3822  0563  3003               	movlw	3
  3823  0564  027C               	subwf	LCDCharacter@index,w
  3824  0565                     u605:	
  3825  0565  1803               	btfsc	3,0
  3826  0566  2D9E               	goto	l935
  3827  0567                     l929:	
  3828                           
  3829                           ;lcd.c: 248: {
  3830                           ;lcd.c: 249: LCDWrite(1, fonts[character - 0x20][index]);
  3831  0567  087B               	movf	LCDCharacter@character,w
  3832  0568  3EE0               	addlw	224
  3833  0569  00F0               	movwf	___wmul@multiplier
  3834  056A  30FF               	movlw	255
  3835  056B  1803               	skipnc
  3836  056C  3000               	movlw	0
  3837  056D  00F1               	movwf	___wmul@multiplier+1
  3838  056E  3003               	movlw	3
  3839  056F  00F2               	movwf	___wmul@multiplicand
  3840  0570  3000               	movlw	0
  3841  0571  00F3               	movwf	___wmul@multiplicand+1
  3842  0572  3184  244D  3185   	fcall	___wmul
  3843  0575  3000               	movlw	low (_fonts| (0+32768))
  3844  0576  0020               	movlb	0	; select bank0
  3845  0577  00A0               	movwf	??_LCDCharacter
  3846  0578  3088               	movlw	high (_fonts| (0+32768))
  3847  0579  00A1               	movwf	??_LCDCharacter+1
  3848  057A  0870               	movf	?___wmul,w
  3849  057B  0720               	addwf	??_LCDCharacter,w
  3850  057C  00A2               	movwf	??_LCDCharacter+2
  3851  057D  0871               	movf	?___wmul+1,w
  3852  057E  3D21               	addwfc	??_LCDCharacter+1,w
  3853  057F  00A3               	movwf	??_LCDCharacter+3
  3854  0580  0822               	movf	??_LCDCharacter+2,w
  3855  0581  077C               	addwf	LCDCharacter@index,w
  3856  0582  0084               	movwf	4
  3857  0583  0823               	movf	??_LCDCharacter+3,w
  3858  0584  3D7D               	addwfc	LCDCharacter@index+1,w
  3859  0585  0085               	movwf	5
  3860  0586  0800               	movf	0,w	;code access
  3861  0587  00A4               	movwf	??_LCDCharacter+4
  3862  0588  0824               	movf	??_LCDCharacter+4,w
  3863  0589  00F6               	movwf	LCDWrite@data
  3864  058A  3001               	movlw	1
  3865  058B  3184  248B  3185   	fcall	_LCDWrite
  3866  058E  3001               	movlw	1
  3867  058F  07FC               	addwf	LCDCharacter@index,f
  3868  0590  3000               	movlw	0
  3869  0591  3DFD               	addwfc	LCDCharacter@index+1,f
  3870  0592  087D               	movf	LCDCharacter@index+1,w
  3871  0593  3A80               	xorlw	128
  3872  0594  0020               	movlb	0	; select bank0
  3873  0595  00A0               	movwf	??_LCDCharacter
  3874  0596  3080               	movlw	128
  3875  0597  0220               	subwf	??_LCDCharacter,w
  3876  0598  1D03               	skipz
  3877  0599  2D9C               	goto	u615
  3878  059A  3003               	movlw	3
  3879  059B  027C               	subwf	LCDCharacter@index,w
  3880  059C                     u615:	
  3881  059C  1C03               	skipc
  3882  059D  2D67               	goto	l929
  3883  059E                     l935:	
  3884                           
  3885                           ;lcd.c: 250: }
  3886                           ;lcd.c: 252: LCDWrite(1, 0x00);
  3887  059E  01F6               	clrf	LCDWrite@data
  3888  059F  3001               	movlw	1
  3889  05A0  3184  248B         	fcall	_LCDWrite
  3890  05A2  0008               	return
  3891  05A3                     __end_of_LCDCharacter:	
  3892                           
  3893                           	psect	text7
  3894  044D                     __ptext7:	
  3895 ;; *************** function ___wmul *****************
  3896 ;; Defined at:
  3897 ;;		line 15 in file "C:\Program Files (x86)\Microchip\xc8\v1.38\sources\common\Umul16.c"
  3898 ;; Parameters:    Size  Location     Type
  3899 ;;  multiplier      2    0[COMMON] unsigned int 
  3900 ;;  multiplicand    2    2[COMMON] unsigned int 
  3901 ;; Auto vars:     Size  Location     Type
  3902 ;;  product         2    4[COMMON] unsigned int 
  3903 ;; Return value:  Size  Location     Type
  3904 ;;                  2    0[COMMON] unsigned int 
  3905 ;; Registers used:
  3906 ;;		wreg, status,2, status,0
  3907 ;; Tracked objects:
  3908 ;;		On entry : 0/0
  3909 ;;		On exit  : 0/0
  3910 ;;		Unchanged: 0/0
  3911 ;; Data sizes:     COMMON   BANK0   BANK1   BANK2   BANK3   BANK4   BANK5   BANK6   BANK7   BANK8   BANK9  BANK10  BANK1
      +1  BANK12
  3912 ;;      Params:         4       0       0       0       0       0       0       0       0       0       0       0       
      +0       0
  3913 ;;      Locals:         2       0       0       0       0       0       0       0       0       0       0       0       
      +0       0
  3914 ;;      Temps:          0       0       0       0       0       0       0       0       0       0       0       0       
      +0       0
  3915 ;;      Totals:         6       0       0       0       0       0       0       0       0       0       0       0       
      +0       0
  3916 ;;Total ram usage:        6 bytes
  3917 ;; Hardware stack levels used:    1
  3918 ;; This function calls:
  3919 ;;		Nothing
  3920 ;; This function is called by:
  3921 ;;		_LCDCharacter
  3922 ;; This function uses a non-reentrant model
  3923 ;;
  3924                           
  3925                           
  3926                           ;psect for function ___wmul
  3927  044D                     ___wmul:	
  3928                           
  3929                           ;incstack = 0
  3930                           ; Regs used in ___wmul: [wreg+status,2+status,0]
  3931  044D  01F4               	clrf	___wmul@product
  3932  044E  01F5               	clrf	___wmul@product+1
  3933  044F                     l909:	
  3934  044F  1C70               	btfss	___wmul@multiplier,0
  3935  0450  2C55               	goto	l203
  3936  0451  0872               	movf	___wmul@multiplicand,w
  3937  0452  07F4               	addwf	___wmul@product,f
  3938  0453  0873               	movf	___wmul@multiplicand+1,w
  3939  0454  3DF5               	addwfc	___wmul@product+1,f
  3940  0455                     l203:	
  3941  0455  3001               	movlw	1
  3942  0456                     u575:	
  3943  0456  35F2               	lslf	___wmul@multiplicand,f
  3944  0457  0DF3               	rlf	___wmul@multiplicand+1,f
  3945  0458  0B89               	decfsz	9,f
  3946  0459  2C56               	goto	u575
  3947  045A  3001               	movlw	1
  3948  045B                     u585:	
  3949  045B  36F1               	lsrf	___wmul@multiplier+1,f
  3950  045C  0CF0               	rrf	___wmul@multiplier,f
  3951  045D  0B89               	decfsz	9,f
  3952  045E  2C5B               	goto	u585
  3953  045F  0870               	movf	___wmul@multiplier,w
  3954  0460  0471               	iorwf	___wmul@multiplier+1,w
  3955  0461  1D03               	btfss	3,2
  3956  0462  2C4F               	goto	l909
  3957  0463  0875               	movf	___wmul@product+1,w
  3958  0464  00F1               	movwf	?___wmul+1
  3959  0465  0874               	movf	___wmul@product,w
  3960  0466  00F0               	movwf	?___wmul
  3961  0467  0008               	return
  3962  0468                     __end_of___wmul:	
  3963                           
  3964                           	psect	text8
  3965  04D8                     __ptext8:	
  3966 ;; *************** function _LCDInit *****************
  3967 ;; Defined at:
  3968 ;;		line 328 in file "lcd.c"
  3969 ;; Parameters:    Size  Location     Type
  3970 ;;		None
  3971 ;; Auto vars:     Size  Location     Type
  3972 ;;		None
  3973 ;; Return value:  Size  Location     Type
  3974 ;;                  1    wreg      void 
  3975 ;; Registers used:
  3976 ;;		wreg, status,2, status,0, pclath, cstack
  3977 ;; Tracked objects:
  3978 ;;		On entry : 0/0
  3979 ;;		On exit  : 0/0
  3980 ;;		Unchanged: 0/0
  3981 ;; Data sizes:     COMMON   BANK0   BANK1   BANK2   BANK3   BANK4   BANK5   BANK6   BANK7   BANK8   BANK9  BANK10  BANK1
      +1  BANK12
  3982 ;;      Params:         0       0       0       0       0       0       0       0       0       0       0       0       
      +0       0
  3983 ;;      Locals:         0       0       0       0       0       0       0       0       0       0       0       0       
      +0       0
  3984 ;;      Temps:          1       0       0       0       0       0       0       0       0       0       0       0       
      +0       0
  3985 ;;      Totals:         1       0       0       0       0       0       0       0       0       0       0       0       
      +0       0
  3986 ;;Total ram usage:        1 bytes
  3987 ;; Hardware stack levels used:    1
  3988 ;; Hardware stack levels required when called:    1
  3989 ;; This function calls:
  3990 ;;		_LCDWrite
  3991 ;; This function is called by:
  3992 ;;		_main
  3993 ;; This function uses a non-reentrant model
  3994 ;;
  3995                           
  3996                           
  3997                           ;psect for function _LCDInit
  3998  04D8                     _LCDInit:	
  3999                           
  4000                           ;lcd.c: 331: TRISCbits.TRISC3 = 0;
  4001                           
  4002                           ;incstack = 0
  4003                           ; Regs used in _LCDInit: [wreg+status,2+status,0+pclath+cstack]
  4004  04D8  0020               	movlb	0	; select bank0
  4005  04D9  1193               	bcf	19,3	;volatile
  4006                           
  4007                           ;lcd.c: 332: TRISCbits.TRISC4 = 0;
  4008  04DA  1213               	bcf	19,4	;volatile
  4009                           
  4010                           ;lcd.c: 333: TRISCbits.TRISC5 = 0;
  4011  04DB  1293               	bcf	19,5	;volatile
  4012                           
  4013                           ;lcd.c: 334: TRISCbits.TRISC6 = 0;
  4014  04DC  1313               	bcf	19,6	;volatile
  4015                           
  4016                           ;lcd.c: 335: TRISCbits.TRISC7 = 0;
  4017  04DD  1393               	bcf	19,7	;volatile
  4018                           
  4019                           ;lcd.c: 336: LATCbits.LATC4 = 0;
  4020  04DE  1218               	bcf	24,4	;volatile
  4021                           
  4022                           ;lcd.c: 337: LATCbits.LATC5 = 0;
  4023  04DF  1298               	bcf	24,5	;volatile
  4024                           
  4025                           ;lcd.c: 338: LATCbits.LATC3 = 0;
  4026  04E0  1198               	bcf	24,3	;volatile
  4027                           
  4028                           ;lcd.c: 339: LATCbits.LATC7 = 0;
  4029  04E1  1398               	bcf	24,7	;volatile
  4030                           
  4031                           ;lcd.c: 340: LATCbits.LATC7 = 1;
  4032  04E2  1798               	bsf	24,7	;volatile
  4033                           
  4034                           ;lcd.c: 341: LCDWrite(0, 0x21);
  4035  04E3  3021               	movlw	33
  4036  04E4  00FB               	movwf	??_LCDInit
  4037  04E5  087B               	movf	??_LCDInit,w
  4038  04E6  00F6               	movwf	LCDWrite@data
  4039  04E7  3000               	movlw	0
  4040  04E8  3184  248B  3184   	fcall	_LCDWrite
  4041                           
  4042                           ;lcd.c: 347: LCDWrite(0, 0xBB);
  4043  04EB  30BB               	movlw	187
  4044  04EC  00FB               	movwf	??_LCDInit
  4045  04ED  087B               	movf	??_LCDInit,w
  4046  04EE  00F6               	movwf	LCDWrite@data
  4047  04EF  3000               	movlw	0
  4048  04F0  3184  248B  3184   	fcall	_LCDWrite
  4049                           
  4050                           ;lcd.c: 349: LCDWrite(0, 0x04);
  4051  04F3  3004               	movlw	4
  4052  04F4  00FB               	movwf	??_LCDInit
  4053  04F5  087B               	movf	??_LCDInit,w
  4054  04F6  00F6               	movwf	LCDWrite@data
  4055  04F7  3000               	movlw	0
  4056  04F8  3184  248B  3184   	fcall	_LCDWrite
  4057                           
  4058                           ;lcd.c: 351: LCDWrite(0, 0x14);
  4059  04FB  3014               	movlw	20
  4060  04FC  00FB               	movwf	??_LCDInit
  4061  04FD  087B               	movf	??_LCDInit,w
  4062  04FE  00F6               	movwf	LCDWrite@data
  4063  04FF  3000               	movlw	0
  4064  0500  3184  248B  3184   	fcall	_LCDWrite
  4065                           
  4066                           ;lcd.c: 353: LCDWrite(0, 0x20);
  4067  0503  3020               	movlw	32
  4068  0504  00FB               	movwf	??_LCDInit
  4069  0505  087B               	movf	??_LCDInit,w
  4070  0506  00F6               	movwf	LCDWrite@data
  4071  0507  3000               	movlw	0
  4072  0508  3184  248B  3184   	fcall	_LCDWrite
  4073                           
  4074                           ;lcd.c: 355: LCDWrite(0, 0x0C);
  4075  050B  300C               	movlw	12
  4076  050C  00FB               	movwf	??_LCDInit
  4077  050D  087B               	movf	??_LCDInit,w
  4078  050E  00F6               	movwf	LCDWrite@data
  4079  050F  3000               	movlw	0
  4080  0510  3184  248B         	fcall	_LCDWrite
  4081  0512  0008               	return
  4082  0513                     __end_of_LCDInit:	
  4083                           
  4084                           	psect	text9
  4085  04B0                     __ptext9:	
  4086 ;; *************** function _LCDClear *****************
  4087 ;; Defined at:
  4088 ;;		line 264 in file "lcd.c"
  4089 ;; Parameters:    Size  Location     Type
  4090 ;;		None
  4091 ;; Auto vars:     Size  Location     Type
  4092 ;;  index           2    1[BANK0 ] int 
  4093 ;; Return value:  Size  Location     Type
  4094 ;;                  1    wreg      void 
  4095 ;; Registers used:
  4096 ;;		wreg, status,2, status,0, pclath, cstack
  4097 ;; Tracked objects:
  4098 ;;		On entry : 0/0
  4099 ;;		On exit  : 0/0
  4100 ;;		Unchanged: 0/0
  4101 ;; Data sizes:     COMMON   BANK0   BANK1   BANK2   BANK3   BANK4   BANK5   BANK6   BANK7   BANK8   BANK9  BANK10  BANK1
      +1  BANK12
  4102 ;;      Params:         0       0       0       0       0       0       0       0       0       0       0       0       
      +0       0
  4103 ;;      Locals:         0       2       0       0       0       0       0       0       0       0       0       0       
      +0       0
  4104 ;;      Temps:          0       1       0       0       0       0       0       0       0       0       0       0       
      +0       0
  4105 ;;      Totals:         0       3       0       0       0       0       0       0       0       0       0       0       
      +0       0
  4106 ;;Total ram usage:        3 bytes
  4107 ;; Hardware stack levels used:    1
  4108 ;; Hardware stack levels required when called:    2
  4109 ;; This function calls:
  4110 ;;		_LCDWrite
  4111 ;;		_gotoXY
  4112 ;; This function is called by:
  4113 ;;		_main
  4114 ;; This function uses a non-reentrant model
  4115 ;;
  4116                           
  4117                           
  4118                           ;psect for function _LCDClear
  4119  04B0                     _LCDClear:	
  4120                           
  4121                           ;lcd.c: 266: for (int index = 0 ; index < (84 * 48 / 8) ; index++)
  4122                           
  4123                           ;incstack = 0
  4124                           ; Regs used in _LCDClear: [wreg+status,2+status,0+pclath+cstack]
  4125  04B0  0020               	movlb	0	; select bank0
  4126  04B1  01A1               	clrf	LCDClear@index
  4127  04B2  01A2               	clrf	LCDClear@index+1
  4128  04B3  0822               	movf	LCDClear@index+1,w
  4129  04B4  3A80               	xorlw	128
  4130  04B5  00A0               	movwf	??_LCDClear
  4131  04B6  3081               	movlw	129
  4132  04B7  0220               	subwf	??_LCDClear,w
  4133  04B8  1D03               	skipz
  4134  04B9  2CBC               	goto	u815
  4135  04BA  30F8               	movlw	248
  4136  04BB  0221               	subwf	LCDClear@index,w
  4137  04BC                     u815:	
  4138  04BC  1803               	btfsc	3,0
  4139  04BD  2CD3               	goto	l1035
  4140  04BE                     l1029:	
  4141                           
  4142                           ;lcd.c: 267: LCDWrite(1, 0x00);
  4143  04BE  01F6               	clrf	LCDWrite@data
  4144  04BF  3001               	movlw	1
  4145  04C0  3184  248B  3184   	fcall	_LCDWrite
  4146  04C3  3001               	movlw	1
  4147  04C4  0020               	movlb	0	; select bank0
  4148  04C5  07A1               	addwf	LCDClear@index,f
  4149  04C6  3000               	movlw	0
  4150  04C7  3DA2               	addwfc	LCDClear@index+1,f
  4151  04C8  0822               	movf	LCDClear@index+1,w
  4152  04C9  3A80               	xorlw	128
  4153  04CA  00A0               	movwf	??_LCDClear
  4154  04CB  3081               	movlw	129
  4155  04CC  0220               	subwf	??_LCDClear,w
  4156  04CD  1D03               	skipz
  4157  04CE  2CD1               	goto	u825
  4158  04CF  30F8               	movlw	248
  4159  04D0  0221               	subwf	LCDClear@index,w
  4160  04D1                     u825:	
  4161  04D1  1C03               	skipc
  4162  04D2  2CBE               	goto	l1029
  4163  04D3                     l1035:	
  4164                           
  4165                           ;lcd.c: 268: gotoXY(0, 0);
  4166  04D3  01FB               	clrf	gotoXY@y
  4167  04D4  3000               	movlw	0
  4168  04D5  3184  2423         	fcall	_gotoXY
  4169  04D7  0008               	return
  4170  04D8                     __end_of_LCDClear:	
  4171                           
  4172                           	psect	text10
  4173  0423                     __ptext10:	
  4174 ;; *************** function _gotoXY *****************
  4175 ;; Defined at:
  4176 ;;		line 224 in file "lcd.c"
  4177 ;; Parameters:    Size  Location     Type
  4178 ;;  x               1    wreg     char 
  4179 ;;  y               1   11[COMMON] char 
  4180 ;; Auto vars:     Size  Location     Type
  4181 ;;  x               1   13[COMMON] char 
  4182 ;; Return value:  Size  Location     Type
  4183 ;;                  1    wreg      void 
  4184 ;; Registers used:
  4185 ;;		wreg, status,2, status,0, pclath, cstack
  4186 ;; Tracked objects:
  4187 ;;		On entry : 0/0
  4188 ;;		On exit  : 0/0
  4189 ;;		Unchanged: 0/0
  4190 ;; Data sizes:     COMMON   BANK0   BANK1   BANK2   BANK3   BANK4   BANK5   BANK6   BANK7   BANK8   BANK9  BANK10  BANK1
      +1  BANK12
  4191 ;;      Params:         1       0       0       0       0       0       0       0       0       0       0       0       
      +0       0
  4192 ;;      Locals:         1       0       0       0       0       0       0       0       0       0       0       0       
      +0       0
  4193 ;;      Temps:          1       0       0       0       0       0       0       0       0       0       0       0       
      +0       0
  4194 ;;      Totals:         3       0       0       0       0       0       0       0       0       0       0       0       
      +0       0
  4195 ;;Total ram usage:        3 bytes
  4196 ;; Hardware stack levels used:    1
  4197 ;; Hardware stack levels required when called:    1
  4198 ;; This function calls:
  4199 ;;		_LCDWrite
  4200 ;; This function is called by:
  4201 ;;		_main
  4202 ;;		_LCDClear
  4203 ;;		_drawBox
  4204 ;; This function uses a non-reentrant model
  4205 ;;
  4206                           
  4207                           
  4208                           ;psect for function _gotoXY
  4209  0423                     _gotoXY:	
  4210                           
  4211                           ;incstack = 0
  4212                           ; Regs used in _gotoXY: [wreg+status,2+status,0+pclath+cstack]
  4213                           ;gotoXY@x stored from wreg
  4214  0423  00FD               	movwf	gotoXY@x
  4215                           
  4216                           ;lcd.c: 226: LCDWrite(0, 0x80 | x);
  4217  0424  087D               	movf	gotoXY@x,w
  4218  0425  3880               	iorlw	128
  4219  0426  00FC               	movwf	??_gotoXY
  4220  0427  087C               	movf	??_gotoXY,w
  4221  0428  00F6               	movwf	LCDWrite@data
  4222  0429  3000               	movlw	0
  4223  042A  3184  248B  3184   	fcall	_LCDWrite
  4224                           
  4225                           ;lcd.c: 227: LCDWrite(0, 0x40 | y);
  4226  042D  087B               	movf	gotoXY@y,w
  4227  042E  3840               	iorlw	64
  4228  042F  00FC               	movwf	??_gotoXY
  4229  0430  087C               	movf	??_gotoXY,w
  4230  0431  00F6               	movwf	LCDWrite@data
  4231  0432  3000               	movlw	0
  4232  0433  3184  248B         	fcall	_LCDWrite
  4233  0435  0008               	return
  4234  0436                     __end_of_gotoXY:	
  4235                           
  4236                           	psect	text11
  4237  0468                     __ptext11:	
  4238 ;; *************** function _LCDBitmap *****************
  4239 ;; Defined at:
  4240 ;;		line 231 in file "lcd.c"
  4241 ;; Parameters:    Size  Location     Type
  4242 ;;  my_array        2   11[COMMON] PTR const unsigned char 
  4243 ;;		 -> coffee(504), 
  4244 ;; Auto vars:     Size  Location     Type
  4245 ;;  index           2    0[BANK0 ] int 
  4246 ;; Return value:  Size  Location     Type
  4247 ;;                  1    wreg      void 
  4248 ;; Registers used:
  4249 ;;		wreg, fsr0l, fsr0h, status,2, status,0, pclath, cstack
  4250 ;; Tracked objects:
  4251 ;;		On entry : 0/0
  4252 ;;		On exit  : 0/0
  4253 ;;		Unchanged: 0/0
  4254 ;; Data sizes:     COMMON   BANK0   BANK1   BANK2   BANK3   BANK4   BANK5   BANK6   BANK7   BANK8   BANK9  BANK10  BANK1
      +1  BANK12
  4255 ;;      Params:         2       0       0       0       0       0       0       0       0       0       0       0       
      +0       0
  4256 ;;      Locals:         0       2       0       0       0       0       0       0       0       0       0       0       
      +0       0
  4257 ;;      Temps:          1       0       0       0       0       0       0       0       0       0       0       0       
      +0       0
  4258 ;;      Totals:         3       2       0       0       0       0       0       0       0       0       0       0       
      +0       0
  4259 ;;Total ram usage:        5 bytes
  4260 ;; Hardware stack levels used:    1
  4261 ;; Hardware stack levels required when called:    1
  4262 ;; This function calls:
  4263 ;;		_LCDWrite
  4264 ;; This function is called by:
  4265 ;;		_main
  4266 ;; This function uses a non-reentrant model
  4267 ;;
  4268                           
  4269                           
  4270                           ;psect for function _LCDBitmap
  4271  0468                     _LCDBitmap:	
  4272                           
  4273                           ;lcd.c: 233: for (int index = 0 ; index < (84 * 48 / 8) ; index++)
  4274                           
  4275                           ;incstack = 0
  4276                           ; Regs used in _LCDBitmap: [wreg-fsr0h+status,2+status,0+pclath+cstack]
  4277  0468  0020               	movlb	0	; select bank0
  4278  0469  01A0               	clrf	LCDBitmap@index
  4279  046A  01A1               	clrf	LCDBitmap@index+1
  4280  046B                     L2:	
  4281  046B  0821               	movf	LCDBitmap@index+1,w
  4282  046C  3A80               	xorlw	128
  4283  046D  00FD               	movwf	??_LCDBitmap
  4284  046E  3081               	movlw	129
  4285  046F  027D               	subwf	??_LCDBitmap,w
  4286  0470  1D03               	skipz
  4287  0471  2C74               	goto	u835
  4288  0472  30F8               	movlw	248
  4289  0473  0220               	subwf	LCDBitmap@index,w
  4290  0474                     u835:	
  4291  0474  1803               	btfsc	3,0
  4292  0475  0008               	return
  4293                           
  4294                           ;lcd.c: 234: LCDWrite(1, my_array[index]);
  4295  0476  087B               	movf	LCDBitmap@my_array,w
  4296  0477  0020               	movlb	0	; select bank0
  4297  0478  0720               	addwf	LCDBitmap@index,w
  4298  0479  0084               	movwf	4
  4299  047A  087C               	movf	LCDBitmap@my_array+1,w
  4300  047B  3D21               	addwfc	LCDBitmap@index+1,w
  4301  047C  0085               	movwf	5
  4302  047D  0800               	movf	0,w	;code access
  4303  047E  00FD               	movwf	??_LCDBitmap
  4304  047F  087D               	movf	??_LCDBitmap,w
  4305  0480  00F6               	movwf	LCDWrite@data
  4306  0481  3001               	movlw	1
  4307  0482  3184  248B  3184   	fcall	_LCDWrite
  4308  0485  3001               	movlw	1
  4309  0486  0020               	movlb	0	; select bank0
  4310  0487  07A0               	addwf	LCDBitmap@index,f
  4311  0488  3000               	movlw	0
  4312  0489  3DA1               	addwfc	LCDBitmap@index+1,f
  4313  048A  2C6B               	goto	L2
  4314  048B                     __end_of_LCDBitmap:	
  4315                           
  4316                           	psect	text12
  4317  048B                     __ptext12:	
  4318 ;; *************** function _LCDWrite *****************
  4319 ;; Defined at:
  4320 ;;		line 362 in file "lcd.c"
  4321 ;; Parameters:    Size  Location     Type
  4322 ;;  data_or_comm    1    wreg     unsigned char 
  4323 ;;  data            1    6[COMMON] unsigned char 
  4324 ;; Auto vars:     Size  Location     Type
  4325 ;;  data_or_comm    1    8[COMMON] unsigned char 
  4326 ;;  i               1   10[COMMON] unsigned char 
  4327 ;;  d               1    9[COMMON] unsigned char 
  4328 ;; Return value:  Size  Location     Type
  4329 ;;                  1    wreg      void 
  4330 ;; Registers used:
  4331 ;;		wreg, status,2, status,0
  4332 ;; Tracked objects:
  4333 ;;		On entry : 0/0
  4334 ;;		On exit  : 0/0
  4335 ;;		Unchanged: 0/0
  4336 ;; Data sizes:     COMMON   BANK0   BANK1   BANK2   BANK3   BANK4   BANK5   BANK6   BANK7   BANK8   BANK9  BANK10  BANK1
      +1  BANK12
  4337 ;;      Params:         1       0       0       0       0       0       0       0       0       0       0       0       
      +0       0
  4338 ;;      Locals:         3       0       0       0       0       0       0       0       0       0       0       0       
      +0       0
  4339 ;;      Temps:          1       0       0       0       0       0       0       0       0       0       0       0       
      +0       0
  4340 ;;      Totals:         5       0       0       0       0       0       0       0       0       0       0       0       
      +0       0
  4341 ;;Total ram usage:        5 bytes
  4342 ;; Hardware stack levels used:    1
  4343 ;; This function calls:
  4344 ;;		Nothing
  4345 ;; This function is called by:
  4346 ;;		_gotoXY
  4347 ;;		_LCDBitmap
  4348 ;;		_LCDCharacter
  4349 ;;		_LCDClear
  4350 ;;		_LCDInit
  4351 ;;		_drawBox
  4352 ;; This function uses a non-reentrant model
  4353 ;;
  4354                           
  4355                           
  4356                           ;psect for function _LCDWrite
  4357  048B                     _LCDWrite:	
  4358                           
  4359                           ;incstack = 0
  4360                           ; Regs used in _LCDWrite: [wreg+status,2+status,0]
  4361                           ;LCDWrite@data_or_command stored from wreg
  4362  048B  00F8               	movwf	LCDWrite@data_or_command
  4363                           
  4364                           ;lcd.c: 363: uint8_t i,d;
  4365                           ;lcd.c: 364: d=data;
  4366  048C  0876               	movf	LCDWrite@data,w
  4367  048D  00F7               	movwf	??_LCDWrite
  4368  048E  0877               	movf	??_LCDWrite,w
  4369  048F  00F9               	movwf	LCDWrite@d
  4370                           
  4371                           ;lcd.c: 365: if(data_or_command == 0)
  4372  0490  0878               	movf	LCDWrite@data_or_command,w
  4373  0491  1D03               	btfss	3,2
  4374  0492  2C96               	goto	l105
  4375                           
  4376                           ;lcd.c: 366: {
  4377                           ;lcd.c: 367: LATCbits.LATC3=0;
  4378  0493  0020               	movlb	0	; select bank0
  4379  0494  1198               	bcf	24,3	;volatile
  4380                           
  4381                           ;lcd.c: 368: }
  4382  0495  2C98               	goto	l106
  4383  0496                     l105:	
  4384                           
  4385                           ;lcd.c: 369: else
  4386                           ;lcd.c: 370: {
  4387                           ;lcd.c: 371: LATCbits.LATC3=1;
  4388  0496  0020               	movlb	0	; select bank0
  4389  0497  1598               	bsf	24,3	;volatile
  4390  0498                     l106:	
  4391                           
  4392                           ;lcd.c: 372: }
  4393                           ;lcd.c: 376: LATCbits.LATC6 = 0;
  4394  0498  1318               	bcf	24,6	;volatile
  4395                           
  4396                           ;lcd.c: 378: for(i=0;i<8;i++)
  4397  0499  01FA               	clrf	LCDWrite@i
  4398  049A  3008               	movlw	8
  4399  049B  027A               	subwf	LCDWrite@i,w
  4400  049C  1803               	btfsc	3,0
  4401  049D  2CAE               	goto	l108
  4402  049E                     l107:	
  4403                           
  4404                           ;lcd.c: 379: {
  4405                           ;lcd.c: 380: LATCbits.LATC4 = 0;
  4406  049E  1218               	bcf	24,4	;volatile
  4407                           
  4408                           ;lcd.c: 381: if(d&0x80)LATCbits.LATC4=1;
  4409  049F  1FF9               	btfss	LCDWrite@d,7
  4410  04A0  2CA2               	goto	l109
  4411  04A1  1618               	bsf	24,4	;volatile
  4412  04A2                     l109:	
  4413                           
  4414                           ;lcd.c: 382: LATCbits.LATC5=1;
  4415  04A2  1698               	bsf	24,5	;volatile
  4416                           
  4417                           ;lcd.c: 383: d<<=1;
  4418  04A3  1003               	clrc
  4419  04A4  0DF9               	rlf	LCDWrite@d,f
  4420                           
  4421                           ;lcd.c: 384: LATCbits.LATC5=0;
  4422  04A5  1298               	bcf	24,5	;volatile
  4423  04A6  3001               	movlw	1
  4424  04A7  00F7               	movwf	??_LCDWrite
  4425  04A8  0877               	movf	??_LCDWrite,w
  4426  04A9  07FA               	addwf	LCDWrite@i,f
  4427  04AA  3008               	movlw	8
  4428  04AB  027A               	subwf	LCDWrite@i,w
  4429  04AC  1C03               	skipc
  4430  04AD  2C9E               	goto	l107
  4431  04AE                     l108:	
  4432                           
  4433                           ;lcd.c: 385: }
  4434                           ;lcd.c: 387: LATCbits.LATC6=1;
  4435  04AE  1718               	bsf	24,6	;volatile
  4436  04AF  0008               	return
  4437  04B0                     __end_of_LCDWrite:	
  4438  007E                     btemp	set	126	;btemp
  4439  007E                     wtemp	set	126
  4440  007E                     wtemp0	set	126
  4441  0080                     wtemp1	set	128
  4442  0082                     wtemp2	set	130
  4443  0084                     wtemp3	set	132
  4444  0086                     wtemp4	set	134
  4445  0088                     wtemp5	set	136
  4446  007F                     wtemp6	set	127
  4447  007E                     ttemp	set	126
  4448  007E                     ttemp0	set	126
  4449  0081                     ttemp1	set	129
  4450  0084                     ttemp2	set	132
  4451  0087                     ttemp3	set	135
  4452  007F                     ttemp4	set	127
  4453  007E                     ltemp	set	126
  4454  007E                     ltemp0	set	126
  4455  0082                     ltemp1	set	130
  4456  0086                     ltemp2	set	134
  4457  0080                     ltemp3	set	128


Data Sizes:
    Strings     42
    Constant    807
    Data        0
    BSS         7
    Persistent  0
    Stack       0

Auto Spaces:
    Space          Size  Autos    Used
    COMMON           14     14      14
    BANK0            80     29      36
    BANK1            80      0       0
    BANK2            80      0       0
    BANK3            80      0       0
    BANK4            80      0       0
    BANK5            80      0       0
    BANK6            80      0       0
    BANK7            80      0       0
    BANK8            80      0       0
    BANK9            80      0       0
    BANK10           80      0       0
    BANK11           80      0       0
    BANK12           48      0       0

Pointer List with Targets:

    LCDWriteString@characters	PTR const unsigned char  size(2) Largest target is 19
		 -> STR_3(CODE[15]), STR_2(CODE[19]), STR_1(CODE[8]), 

    LCDBitmap@my_array	PTR const unsigned char  size(2) Largest target is 504
		 -> coffee(CODE[504]), 


Critical Paths under _main in COMMON

    _main->_LCDBitmap
    _main->_gotoXY
    _drawBox->_gotoXY
    _LCD_Write_Int->_LCDCharacter
    _LCDWriteString->_LCDCharacter
    _LCDCharacter->_LCDWrite
    _LCDInit->_LCDWrite
    _LCDClear->_gotoXY
    _gotoXY->_LCDWrite
    _LCDBitmap->_LCDWrite
    _LCDWrite->___wmul

Critical Paths under _main in BANK0

    _main->_LCD_Write_Int
    _LCD_Write_Int->_LCDCharacter
    _LCDWriteString->_LCDCharacter

Critical Paths under _main in BANK1

    None.

Critical Paths under _main in BANK2

    None.

Critical Paths under _main in BANK3

    None.

Critical Paths under _main in BANK4

    None.

Critical Paths under _main in BANK5

    None.

Critical Paths under _main in BANK6

    None.

Critical Paths under _main in BANK7

    None.

Critical Paths under _main in BANK8

    None.

Critical Paths under _main in BANK9

    None.

Critical Paths under _main in BANK10

    None.

Critical Paths under _main in BANK11

    None.

Critical Paths under _main in BANK12

    None.

Call Graph Tables:

 ---------------------------------------------------------------------------------
 (Depth) Function   	        Calls       Base Space   Used Autos Params    Refs
 ---------------------------------------------------------------------------------
 (0) _main                                                 5     5      0   13007
                                             24 BANK0      5     5      0
                          _LCDBitmap
                           _LCDClear
                            _LCDInit
                     _LCDWriteString
                      _LCD_Write_Int
                            _drawBox
                             _gotoXY
 ---------------------------------------------------------------------------------
 (1) _drawBox                                              3     3      0    2717
                                              0 BANK0      3     3      0
                           _LCDWrite
                             _gotoXY
 ---------------------------------------------------------------------------------
 (1) _LCD_Write_Int                                       19    14      5    2771
                                              5 BANK0     19    14      5
                       _LCDCharacter
                            ___awdiv
                            ___awmod
 ---------------------------------------------------------------------------------
 (2) ___awmod                                              7     3      4     402
                                              0 COMMON     7     3      4
 ---------------------------------------------------------------------------------
 (2) ___awdiv                                              9     5      4     406
                                              0 COMMON     9     5      4
 ---------------------------------------------------------------------------------
 (1) _LCDWriteString                                       3     1      2    1454
                                              5 BANK0      3     1      2
                       _LCDCharacter
 ---------------------------------------------------------------------------------
 (2) _LCDCharacter                                         8     8      0    1250
                                             11 COMMON     3     3      0
                                              0 BANK0      5     5      0
                           _LCDWrite
                             ___wmul
 ---------------------------------------------------------------------------------
 (3) ___wmul                                               6     2      4     198
                                              0 COMMON     6     2      4
 ---------------------------------------------------------------------------------
 (1) _LCDInit                                              1     1      0     962
                                             11 COMMON     1     1      0
                           _LCDWrite
 ---------------------------------------------------------------------------------
 (1) _LCDClear                                             3     3      0    2491
                                              0 BANK0      3     3      0
                           _LCDWrite
                             _gotoXY
 ---------------------------------------------------------------------------------
 (1) _gotoXY                                               3     2      1    1483
                                             11 COMMON     3     2      1
                           _LCDWrite
 ---------------------------------------------------------------------------------
 (1) _LCDBitmap                                            5     3      2    1105
                                             11 COMMON     3     1      2
                                              0 BANK0      2     2      0
                           _LCDWrite
 ---------------------------------------------------------------------------------
 (2) _LCDWrite                                             5     4      1     962
                                              6 COMMON     5     4      1
                             ___wmul (ARG)
 ---------------------------------------------------------------------------------
 Estimated maximum stack depth 3
 ---------------------------------------------------------------------------------

 Call Graph Graphs:

 _main (ROOT)
   _LCDBitmap
     _LCDWrite
       ___wmul (ARG)
   _LCDClear
     _LCDWrite
       ___wmul (ARG)
     _gotoXY
       _LCDWrite
         ___wmul (ARG)
   _LCDInit
     _LCDWrite
       ___wmul (ARG)
   _LCDWriteString
     _LCDCharacter
       _LCDWrite
         ___wmul (ARG)
       ___wmul
   _LCD_Write_Int
     _LCDCharacter
       _LCDWrite
         ___wmul (ARG)
       ___wmul
     ___awdiv
     ___awmod
   _drawBox
     _LCDWrite
       ___wmul (ARG)
     _gotoXY
       _LCDWrite
         ___wmul (ARG)
   _gotoXY
     _LCDWrite
       ___wmul (ARG)

 Address spaces:
Name               Size   Autos  Total    Cost      Usage
BIGRAM             3F0      0       0       0        0.0%
EEDATA             100      0       0       0        0.0%
NULL                 0      0       0       0        0.0%
CODE                 0      0       0       0        0.0%
BITCOMMON            E      0       0       1        0.0%
BITSFR0              0      0       0       1        0.0%
SFR0                 0      0       0       1        0.0%
COMMON               E      E       E       2      100.0%
BITSFR1              0      0       0       2        0.0%
SFR1                 0      0       0       2        0.0%
BITSFR2              0      0       0       3        0.0%
SFR2                 0      0       0       3        0.0%
STACK                0      0       0       3        0.0%
BITBANK0            50      0       0       4        0.0%
BITSFR3              0      0       0       4        0.0%
SFR3                 0      0       0       4        0.0%
BANK0               50     1D      24       5       45.0%
BITSFR4              0      0       0       5        0.0%
SFR4                 0      0       0       5        0.0%
BITBANK1            50      0       0       6        0.0%
BITSFR5              0      0       0       6        0.0%
SFR5                 0      0       0       6        0.0%
BANK1               50      0       0       7        0.0%
BITSFR6              0      0       0       7        0.0%
SFR6                 0      0       0       7        0.0%
BITBANK2            50      0       0       8        0.0%
BITSFR7              0      0       0       8        0.0%
SFR7                 0      0       0       8        0.0%
BANK2               50      0       0       9        0.0%
BITSFR8              0      0       0       9        0.0%
SFR8                 0      0       0       9        0.0%
BITBANK3            50      0       0      10        0.0%
BITSFR9              0      0       0      10        0.0%
SFR9                 0      0       0      10        0.0%
BANK3               50      0       0      11        0.0%
BITSFR10             0      0       0      11        0.0%
SFR10                0      0       0      11        0.0%
BITBANK4            50      0       0      12        0.0%
BITSFR11             0      0       0      12        0.0%
SFR11                0      0       0      12        0.0%
BANK4               50      0       0      13        0.0%
BITSFR12             0      0       0      13        0.0%
SFR12                0      0       0      13        0.0%
BITBANK5            50      0       0      14        0.0%
BITSFR13             0      0       0      14        0.0%
SFR13                0      0       0      14        0.0%
BANK5               50      0       0      15        0.0%
BITSFR14             0      0       0      15        0.0%
SFR14                0      0       0      15        0.0%
BITBANK6            50      0       0      16        0.0%
BITSFR15             0      0       0      16        0.0%
SFR15                0      0       0      16        0.0%
BANK6               50      0       0      17        0.0%
BITSFR16             0      0       0      17        0.0%
SFR16                0      0       0      17        0.0%
BITBANK7            50      0       0      18        0.0%
BITSFR17             0      0       0      18        0.0%
SFR17                0      0       0      18        0.0%
BANK7               50      0       0      19        0.0%
BITSFR18             0      0       0      19        0.0%
SFR18                0      0       0      19        0.0%
BITSFR19             0      0       0      20        0.0%
SFR19                0      0       0      20        0.0%
ABS                  0      0      32      20        0.0%
BITBANK8            50      0       0      21        0.0%
BITSFR20             0      0       0      21        0.0%
SFR20                0      0       0      21        0.0%
BANK8               50      0       0      22        0.0%
BITSFR21             0      0       0      22        0.0%
SFR21                0      0       0      22        0.0%
BITBANK9            50      0       0      23        0.0%
BITSFR22             0      0       0      23        0.0%
SFR22                0      0       0      23        0.0%
BANK9               50      0       0      24        0.0%
BITSFR23             0      0       0      24        0.0%
SFR23                0      0       0      24        0.0%
BITBANK10           50      0       0      25        0.0%
BITSFR24             0      0       0      25        0.0%
SFR24                0      0       0      25        0.0%
BANK10              50      0       0      26        0.0%
BITSFR25             0      0       0      26        0.0%
SFR25                0      0       0      26        0.0%
BITBANK11           50      0       0      27        0.0%
BITSFR26             0      0       0      27        0.0%
SFR26                0      0       0      27        0.0%
BANK11              50      0       0      28        0.0%
BITSFR27             0      0       0      28        0.0%
SFR27                0      0       0      28        0.0%
BITBANK12           30      0       0      29        0.0%
BITSFR28             0      0       0      29        0.0%
SFR28                0      0       0      29        0.0%
BANK12              30      0       0      30        0.0%
BITSFR29             0      0       0      30        0.0%
SFR29                0      0       0      30        0.0%
BITSFR30             0      0       0      31        0.0%
SFR30                0      0       0      31        0.0%
DATA                 0      0      32      31        0.0%
BITSFR31             0      0       0      32        0.0%
SFR31                0      0       0      32        0.0%


Microchip Technology PIC Macro Assembler V1.38 build -256452561 
Symbol Table                                                                                   Wed Sep 27 17:10:29 2017

                       _x 0042                         _y 0043               __CFG_CP$OFF 0000  
            ___awdiv@sign 0076       ___wmul@multiplicand 0072               __CFG_LVP$ON 0000  
                     l105 0496                       l106 0498                       l107 049E  
                     l203 0455                       l108 04AE                       l109 04A2  
           LCDClear@index 0021                       l909 044F                       l935 059E  
                     l951 05B8                       l929 0567                       l961 05C0  
                     l945 05AD                       l963 05CC                       l973 05E7  
                     l977 05EF                       l969 05DE                       l993 0524  
                     l989 051D              __CFG_CPD$OFF 0000                       u605 0565  
                     u615 059C                       u815 04BC                       u575 0456  
                     u655 05C3                       u825 04D1                       u585 045B  
                     u905 0703                       u835 0474                       u675 05CD  
                     u755 052D                       u915 0711                       u940 0736  
                     u685 05D7                       u695 05DF                       u775 053C  
                     u855 0687                       u785 0543                       u865 06A3  
                     u875 06B1                       u885 06D3                       u895 06E1  
            ___awmod@sign 0076              __CFG_BORV$LO 0000            ??_LCDCharacter 0020  
                     wreg 0009           __end_of_LCDInit 0513              __CFG_ZCD$OFF 0000  
                    l1001 052A                      l1003 0536                      l1011 054B  
                    l1103 0436                      l1015 0553                      l1007 0542  
                    l1035 04D3                      l1029 04BE                      l1133 0787  
                    l1117 074D                      l1061 06A5                      l1151 07E1  
                    l1135 078B                      l1127 0754                      l1055 0689  
                    l1145 07A7                      l1137 0793                      l1129 0783  
                    l1073 06D5                      l1147 07D3                      l1139 07A3  
                    l1067 06B3                      l1085 0705                      l1079 06E3  
                    l1185 0664                      STR_1 0B49                      STR_2 0B27  
                    STR_3 0B3A                      u1005 07C1                      u1037 0616  
                    u1047 0638                      _LATA 0016                      _LATB 0017  
                    _LATC 0018              __CFG_WRT$OFF 0000             __CFG_FCMEN$ON 0000  
      __size_of_LCDBitmap 0023                      _main 05F4                      fsr0h 0005  
                    fsr1h 0007                      fsr0l 0004                      indf0 0000  
                    indf1 0001                      fsr1l 0006                      btemp 007E  
       LCDBitmap@my_array 007B             __CFG_BOREN$ON 0000                      ltemp 007E  
                    start 0002                      ttemp 007E                      wtemp 007E  
           __CFG_MCLRE$ON 0000             _LCD_Write_Int 072B          __end_of_LCDClear 04D8  
        __end_of_LCDWrite 04B0                     ?_main 0070           __end_of___awdiv 05F4  
           __CFG_WDTE$OFF 0000           __end_of___awmod 0558           ___awdiv@divisor 0070  
         ___awdiv@counter 0075                     _TRISA 0011                     _TRISB 0012  
                   _TRISC 0013           __end_of_drawBox 072B                     _fonts 0800  
                   ltemp0 007E                     ltemp1 0082                     ltemp2 0086  
                   ltemp3 0080                     ttemp0 007E                     ttemp1 0081  
                   ttemp2 0084                     ttemp3 0087                     ttemp4 007F  
                   status 0003                     wtemp0 007E                     wtemp1 0080  
                   wtemp2 0082                     wtemp3 0084                     wtemp4 0086  
                   wtemp5 0088                     wtemp6 007F            LCDBitmap@index 0020  
          ?_LCD_Write_Int 0025            __CFG_CSWEN$OFF 0000           __initialization 07F6  
            __end_of_main 067B         LCDCharacter@index 007C         __end_of_LCDBitmap 048B  
                  ??_main 0038                 ??_LCDInit 007B   LCDWrite@data_or_command 0078  
        ___awdiv@dividend 0072                    _ANSELA 0F38                    _ANSELB 0F43  
                  _ANSELC 0F4E        __CFG_RSTOSC$HFINT1 0000            __CFG_WDTCCS$SC 0000  
          __CFG_PWRTE$OFF 0000            _LCDWriteString 0436      __end_of_LCDCharacter 05A3  
  LCD_Write_Int@numPlaces 0028                    ___wmul 044D                 ??___awdiv 0074  
          __CFG_STVREN$ON 0000                 ??___awmod 0074                    _coffee 092F  
                  _gotoXY 0423          ___awdiv@quotient 0077           ___awmod@divisor 0070  
         ___awmod@counter 0075                 ??_drawBox 0020              LCDWrite@data 0076  
        LCD_Write_Int@str 002F                 ?_LCDClear 0070   __end_of__initialization 07FD  
               ?_LCDWrite 0076           ??_LCD_Write_Int 002A    __end_of_LCDWriteString 044D  
   LCDCharacter@character 007B            __pcstackCOMMON 0070             __end_of_fonts 092F  
               LCDWrite@d 0079                 LCDWrite@i 007A                __pbssBANK0 003D  
              ??_LCDClear 0020                ??_LCDWrite 0077           ?_LCDWriteString 0025  
              __pmaintext 05F4                   ?___wmul 0070           __CFG_PPS1WAY$ON 0000  
                 ?_gotoXY 007B                   _LCDInit 04D8     __size_of_LCDCharacter 004B  
    __CFG_SCANE$available 0000                   ___awdiv 05A3                   ___awmod 0513  
         __size_of___wmul 001B           __size_of_gotoXY 0013                   __ptext1 067B  
                 __ptext2 072B                   __ptext3 0513                   __ptext4 05A3  
                 __ptext5 0436                   __ptext6 0558                   __ptext7 044D  
                 __ptext8 04D8                   __ptext9 04B0                   _drawBox 067B  
        ___awmod@dividend 0072                 _LCDBitmap 0468              _LCDCharacter 0558  
    end_of_initialization 07FD                   gotoXY@x 007D                   gotoXY@y 007B  
       LCD_Write_Int@sign 0029              __pstringtext 0800     __CFG_WDTCPS$WDTCPS_31 0000  
              ?_LCDBitmap 007B                 _TRISCbits 0013          __CFG_FEXTOSC$OFF 0000  
       __size_of_LCDClear 0028         __size_of_LCDWrite 0025            __end_of___wmul 0468  
          __end_of_coffee 0B27            __end_of_gotoXY 0436       start_initialization 07F6  
        ??_LCDWriteString 0027  LCD_Write_Int@fieldLength 0027     __end_of_LCD_Write_Int 07F6  
        __CFG_LPBOREN$OFF 0000                  ??___wmul 0074                  ??_gotoXY 007C  
                ?_LCDInit 0070                 ___latbits 0002               ??_LCDBitmap 007D  
           __pcstackBANK0 0020                  ?___awdiv 0070                  ?___awmod 0070  
                ?_drawBox 0070                  _LCDClear 04B0            ___wmul@product 0074  
                _LATCbits 0018                  _LCDWrite 048B         ___wmul@multiplier 0070  
               main@count 003B          __size_of_LCDInit 003B            LCD_Write_Int@i 0036  
          LCD_Write_Int@j 0034          __size_of___awdiv 0051          __size_of___awmod 0045  
        __size_of_drawBox 00B0                  __ptext10 0423                  __ptext11 0468  
                __ptext12 048B       LCD_Write_Int@F13601 003D             __size_of_main 0087  
    __CFG_WDTCWS$WDTCWS_7 0000                  drawBox@j 0021         __CFG_CLKOUTEN$OFF 0000  
      LCD_Write_Int@value 0025  LCDWriteString@characters 0025             ?_LCDCharacter 0070  
  __size_of_LCD_Write_Int 00CB   __size_of_LCDWriteString 0017  
