

Microchip Technology PIC LITE Macro Assembler V1.41 build -162212810 
                                                                                               Tue Sep 26 23:10:50 2017

Microchip Technology Omniscient Code Generator v1.41 (Free mode) build 201701250102
     1                           	processor	16F18855
     2                           	opt	pw 120
     3                           	opt	lm
     4                           	psect	stringtext,global,class=STRCODE,delta=2
     5                           	psect	cinit,global,class=CODE,merge=1,delta=2
     6                           	psect	bssBANK0,global,class=BANK0,space=1,delta=1
     7                           	psect	cstackCOMMON,global,class=COMMON,space=1,delta=1
     8                           	psect	cstackBANK0,global,class=BANK0,space=1,delta=1
     9                           	psect	maintext,global,class=CODE,merge=1,split=1,delta=2
    10                           	psect	text1,local,class=CODE,merge=1,delta=2
    11                           	psect	text2,local,class=CODE,merge=1,delta=2
    12                           	psect	text3,local,class=CODE,merge=1,delta=2
    13                           	psect	text4,local,class=CODE,merge=1,delta=2,group=2
    14                           	psect	text5,local,class=CODE,merge=1,delta=2
    15                           	psect	text6,local,class=CODE,merge=1,delta=2
    16                           	psect	text7,local,class=CODE,merge=1,delta=2
    17                           	psect	text8,local,class=CODE,merge=1,delta=2
    18                           	psect	text9,local,class=CODE,merge=1,delta=2
    19                           	dabs	1,0x7E,2
    20  0000                     
    21                           ; Version 1.41
    22                           ; Generated 25/01/2017 GMT
    23                           ; 
    24                           ; Copyright © 2017, Microchip Technology Inc. and its subsidiaries ("Microchip")
    25                           ; All rights reserved.
    26                           ; 
    27                           ; This software is developed by Microchip Technology Inc. and its subsidiaries ("Microch
      +                          ip").
    28                           ; 
    29                           ; Redistribution and use in source and binary forms, with or without modification, are
    30                           ; permitted provided that the following conditions are met:
    31                           ; 
    32                           ;     1. Redistributions of source code must retain the above copyright notice, this lis
      +                          t of
    33                           ;        conditions and the following disclaimer.
    34                           ; 
    35                           ;     2. Redistributions in binary form must reproduce the above copyright notice, this 
      +                          list
    36                           ;        of conditions and the following disclaimer in the documentation and/or other
    37                           ;        materials provided with the distribution.
    38                           ; 
    39                           ;     3. Microchip's name may not be used to endorse or promote products derived from th
      +                          is
    40                           ;        software without specific prior written permission.
    41                           ; 
    42                           ; THIS SOFTWARE IS PROVIDED BY MICROCHIP "AS IS" AND ANY EXPRESS OR IMPLIED WARRANTIES,
    43                           ; INCLUDING, BUT NOT LIMITED TO, THE IMPLIED WARRANTIES OF MERCHANTABILITY AND FITNESS F
      +                          OR
    44                           ; PURPOSE ARE DISCLAIMED.  IN NO EVENT SHALL MICROCHIP BE LIABLE FOR ANY DIRECT, INDIREC
      +                          T,
    45                           ; INCIDENTAL, SPECIAL, EXEMPLARY, OR CONSEQUENTIAL DAMAGES (INCLUDING BUT NOT LIMITED TO
    46                           ; PROCUREMENT OF SUBSTITUTE GOODS OR SERVICES; LOSS OF USE, DATA OR PROFITS; OR BUSINESS
    47                           ; INTERRUPTION) HOWSOEVER CAUSED AND ON ANY THEORY OF LIABILITY, WHETHER IN CONTRACT, ST
      +                          RICT
    48                           ; LIABILITY, OR TORT (INCLUDING NEGLIGENCE OR OTHERWISE) ARISING IN ANY WAY OUT OF THE U
      +                          SE OF
    49                           ; THIS SOFTWARE, EVEN IF ADVISED OF THE POSSIBILITY OF SUCH DAMAGE.
    50                           ; 
    51                           ; 
    52                           ; Code-generator required, PIC16F18855 Definitions
    53                           ; 
    54                           ; SFR Addresses
    55  0000                     	;# 
    56  0001                     	;# 
    57  0002                     	;# 
    58  0003                     	;# 
    59  0004                     	;# 
    60  0005                     	;# 
    61  0006                     	;# 
    62  0007                     	;# 
    63  0008                     	;# 
    64  0009                     	;# 
    65  000A                     	;# 
    66  000B                     	;# 
    67  000C                     	;# 
    68  000D                     	;# 
    69  000E                     	;# 
    70  0010                     	;# 
    71  0011                     	;# 
    72  0012                     	;# 
    73  0013                     	;# 
    74  0016                     	;# 
    75  0017                     	;# 
    76  0018                     	;# 
    77  001C                     	;# 
    78  001C                     	;# 
    79  001D                     	;# 
    80  001D                     	;# 
    81  001E                     	;# 
    82  001F                     	;# 
    83  008C                     	;# 
    84  008C                     	;# 
    85  008D                     	;# 
    86  008E                     	;# 
    87  008E                     	;# 
    88  008F                     	;# 
    89  0090                     	;# 
    90  0090                     	;# 
    91  0091                     	;# 
    92  0093                     	;# 
    93  0094                     	;# 
    94  0095                     	;# 
    95  0096                     	;# 
    96  0097                     	;# 
    97  0098                     	;# 
    98  0099                     	;# 
    99  009A                     	;# 
   100  009B                     	;# 
   101  009C                     	;# 
   102  009D                     	;# 
   103  009E                     	;# 
   104  010C                     	;# 
   105  010D                     	;# 
   106  010E                     	;# 
   107  010E                     	;# 
   108  010F                     	;# 
   109  0110                     	;# 
   110  0110                     	;# 
   111  0111                     	;# 
   112  0112                     	;# 
   113  0112                     	;# 
   114  0113                     	;# 
   115  0114                     	;# 
   116  0114                     	;# 
   117  0115                     	;# 
   118  0116                     	;# 
   119  0116                     	;# 
   120  0117                     	;# 
   121  0119                     	;# 
   122  0119                     	;# 
   123  0119                     	;# 
   124  011A                     	;# 
   125  011A                     	;# 
   126  011A                     	;# 
   127  011B                     	;# 
   128  011B                     	;# 
   129  011B                     	;# 
   130  011B                     	;# 
   131  011B                     	;# 
   132  011C                     	;# 
   133  011C                     	;# 
   134  011C                     	;# 
   135  011D                     	;# 
   136  011D                     	;# 
   137  011D                     	;# 
   138  011E                     	;# 
   139  011E                     	;# 
   140  011E                     	;# 
   141  011F                     	;# 
   142  011F                     	;# 
   143  011F                     	;# 
   144  011F                     	;# 
   145  011F                     	;# 
   146  018C                     	;# 
   147  018D                     	;# 
   148  018E                     	;# 
   149  018F                     	;# 
   150  0190                     	;# 
   151  0191                     	;# 
   152  0192                     	;# 
   153  0196                     	;# 
   154  0197                     	;# 
   155  0198                     	;# 
   156  0199                     	;# 
   157  019A                     	;# 
   158  019B                     	;# 
   159  019C                     	;# 
   160  020C                     	;# 
   161  020C                     	;# 
   162  020D                     	;# 
   163  020E                     	;# 
   164  020F                     	;# 
   165  020F                     	;# 
   166  0210                     	;# 
   167  0210                     	;# 
   168  0211                     	;# 
   169  0211                     	;# 
   170  0212                     	;# 
   171  0212                     	;# 
   172  0213                     	;# 
   173  0214                     	;# 
   174  0215                     	;# 
   175  0215                     	;# 
   176  0216                     	;# 
   177  0216                     	;# 
   178  0217                     	;# 
   179  0217                     	;# 
   180  0218                     	;# 
   181  0218                     	;# 
   182  0219                     	;# 
   183  021A                     	;# 
   184  021B                     	;# 
   185  021B                     	;# 
   186  021C                     	;# 
   187  021C                     	;# 
   188  021D                     	;# 
   189  021D                     	;# 
   190  021E                     	;# 
   191  021F                     	;# 
   192  028C                     	;# 
   193  028C                     	;# 
   194  028D                     	;# 
   195  028D                     	;# 
   196  028E                     	;# 
   197  028F                     	;# 
   198  0290                     	;# 
   199  0290                     	;# 
   200  0291                     	;# 
   201  0292                     	;# 
   202  0292                     	;# 
   203  0293                     	;# 
   204  0293                     	;# 
   205  0294                     	;# 
   206  0295                     	;# 
   207  0296                     	;# 
   208  0296                     	;# 
   209  0297                     	;# 
   210  0298                     	;# 
   211  0298                     	;# 
   212  0299                     	;# 
   213  0299                     	;# 
   214  029A                     	;# 
   215  029B                     	;# 
   216  029C                     	;# 
   217  029C                     	;# 
   218  029D                     	;# 
   219  030C                     	;# 
   220  030C                     	;# 
   221  030D                     	;# 
   222  030E                     	;# 
   223  030F                     	;# 
   224  0310                     	;# 
   225  0310                     	;# 
   226  0311                     	;# 
   227  0312                     	;# 
   228  0313                     	;# 
   229  0314                     	;# 
   230  0314                     	;# 
   231  0315                     	;# 
   232  0316                     	;# 
   233  0317                     	;# 
   234  0318                     	;# 
   235  0318                     	;# 
   236  0319                     	;# 
   237  031A                     	;# 
   238  031B                     	;# 
   239  031C                     	;# 
   240  031C                     	;# 
   241  031D                     	;# 
   242  031E                     	;# 
   243  031F                     	;# 
   244  038C                     	;# 
   245  038D                     	;# 
   246  038E                     	;# 
   247  0390                     	;# 
   248  0391                     	;# 
   249  0392                     	;# 
   250  040C                     	;# 
   251  040D                     	;# 
   252  040E                     	;# 
   253  040F                     	;# 
   254  0410                     	;# 
   255  0411                     	;# 
   256  0416                     	;# 
   257  0416                     	;# 
   258  0417                     	;# 
   259  0418                     	;# 
   260  0418                     	;# 
   261  0419                     	;# 
   262  041A                     	;# 
   263  041A                     	;# 
   264  041B                     	;# 
   265  041C                     	;# 
   266  041C                     	;# 
   267  041D                     	;# 
   268  041E                     	;# 
   269  041F                     	;# 
   270  048C                     	;# 
   271  048C                     	;# 
   272  048D                     	;# 
   273  048E                     	;# 
   274  048F                     	;# 
   275  048F                     	;# 
   276  0490                     	;# 
   277  0491                     	;# 
   278  0492                     	;# 
   279  0492                     	;# 
   280  0493                     	;# 
   281  0494                     	;# 
   282  0495                     	;# 
   283  0495                     	;# 
   284  0496                     	;# 
   285  0497                     	;# 
   286  0498                     	;# 
   287  0499                     	;# 
   288  049A                     	;# 
   289  049B                     	;# 
   290  049C                     	;# 
   291  049D                     	;# 
   292  050C                     	;# 
   293  050C                     	;# 
   294  050D                     	;# 
   295  050E                     	;# 
   296  050F                     	;# 
   297  050F                     	;# 
   298  0510                     	;# 
   299  0511                     	;# 
   300  0512                     	;# 
   301  0512                     	;# 
   302  0513                     	;# 
   303  0514                     	;# 
   304  0515                     	;# 
   305  0515                     	;# 
   306  0516                     	;# 
   307  0517                     	;# 
   308  0518                     	;# 
   309  0519                     	;# 
   310  051A                     	;# 
   311  051B                     	;# 
   312  051C                     	;# 
   313  051D                     	;# 
   314  058C                     	;# 
   315  058C                     	;# 
   316  058D                     	;# 
   317  058E                     	;# 
   318  058F                     	;# 
   319  058F                     	;# 
   320  0590                     	;# 
   321  0591                     	;# 
   322  0592                     	;# 
   323  0593                     	;# 
   324  060C                     	;# 
   325  060D                     	;# 
   326  060E                     	;# 
   327  060F                     	;# 
   328  0610                     	;# 
   329  0611                     	;# 
   330  0612                     	;# 
   331  0613                     	;# 
   332  0614                     	;# 
   333  0616                     	;# 
   334  0617                     	;# 
   335  0618                     	;# 
   336  0619                     	;# 
   337  061A                     	;# 
   338  061B                     	;# 
   339  061C                     	;# 
   340  061D                     	;# 
   341  061E                     	;# 
   342  068C                     	;# 
   343  068D                     	;# 
   344  068E                     	;# 
   345  068F                     	;# 
   346  0690                     	;# 
   347  0691                     	;# 
   348  0692                     	;# 
   349  0693                     	;# 
   350  0694                     	;# 
   351  070C                     	;# 
   352  070D                     	;# 
   353  070E                     	;# 
   354  070F                     	;# 
   355  0710                     	;# 
   356  0711                     	;# 
   357  0712                     	;# 
   358  0713                     	;# 
   359  0714                     	;# 
   360  0716                     	;# 
   361  0717                     	;# 
   362  0718                     	;# 
   363  0719                     	;# 
   364  071A                     	;# 
   365  071B                     	;# 
   366  071C                     	;# 
   367  071D                     	;# 
   368  071E                     	;# 
   369  0796                     	;# 
   370  0797                     	;# 
   371  0798                     	;# 
   372  0799                     	;# 
   373  079A                     	;# 
   374  079B                     	;# 
   375  080C                     	;# 
   376  080D                     	;# 
   377  080E                     	;# 
   378  080F                     	;# 
   379  0810                     	;# 
   380  0811                     	;# 
   381  0812                     	;# 
   382  0813                     	;# 
   383  0814                     	;# 
   384  081A                     	;# 
   385  081B                     	;# 
   386  081C                     	;# 
   387  081D                     	;# 
   388  081E                     	;# 
   389  081F                     	;# 
   390  088C                     	;# 
   391  088D                     	;# 
   392  088E                     	;# 
   393  088F                     	;# 
   394  0890                     	;# 
   395  0891                     	;# 
   396  0892                     	;# 
   397  0893                     	;# 
   398  0895                     	;# 
   399  0896                     	;# 
   400  0897                     	;# 
   401  0898                     	;# 
   402  0899                     	;# 
   403  089A                     	;# 
   404  089B                     	;# 
   405  090C                     	;# 
   406  090E                     	;# 
   407  090F                     	;# 
   408  091F                     	;# 
   409  091F                     	;# 
   410  098F                     	;# 
   411  098F                     	;# 
   412  0990                     	;# 
   413  0991                     	;# 
   414  0992                     	;# 
   415  0993                     	;# 
   416  0994                     	;# 
   417  0995                     	;# 
   418  0996                     	;# 
   419  0997                     	;# 
   420  0E0F                     	;# 
   421  0E10                     	;# 
   422  0E11                     	;# 
   423  0E12                     	;# 
   424  0E13                     	;# 
   425  0E14                     	;# 
   426  0E15                     	;# 
   427  0E16                     	;# 
   428  0E17                     	;# 
   429  0E18                     	;# 
   430  0E19                     	;# 
   431  0E1A                     	;# 
   432  0E1B                     	;# 
   433  0E1C                     	;# 
   434  0E1D                     	;# 
   435  0E1E                     	;# 
   436  0E1F                     	;# 
   437  0E20                     	;# 
   438  0E21                     	;# 
   439  0E22                     	;# 
   440  0E23                     	;# 
   441  0E24                     	;# 
   442  0E25                     	;# 
   443  0E26                     	;# 
   444  0E27                     	;# 
   445  0E28                     	;# 
   446  0E29                     	;# 
   447  0E2A                     	;# 
   448  0E2B                     	;# 
   449  0E2C                     	;# 
   450  0E2D                     	;# 
   451  0E2E                     	;# 
   452  0E2F                     	;# 
   453  0E30                     	;# 
   454  0E31                     	;# 
   455  0E32                     	;# 
   456  0E33                     	;# 
   457  0E34                     	;# 
   458  0E35                     	;# 
   459  0E36                     	;# 
   460  0E37                     	;# 
   461  0E8F                     	;# 
   462  0E90                     	;# 
   463  0E91                     	;# 
   464  0E92                     	;# 
   465  0E93                     	;# 
   466  0E94                     	;# 
   467  0E95                     	;# 
   468  0E96                     	;# 
   469  0E97                     	;# 
   470  0E9C                     	;# 
   471  0E9D                     	;# 
   472  0E9E                     	;# 
   473  0EA1                     	;# 
   474  0EA2                     	;# 
   475  0EA3                     	;# 
   476  0EA4                     	;# 
   477  0EA5                     	;# 
   478  0EA9                     	;# 
   479  0EAA                     	;# 
   480  0EAB                     	;# 
   481  0EAC                     	;# 
   482  0EB1                     	;# 
   483  0EB2                     	;# 
   484  0EB3                     	;# 
   485  0EB8                     	;# 
   486  0EB9                     	;# 
   487  0EBA                     	;# 
   488  0EBB                     	;# 
   489  0EBC                     	;# 
   490  0EBD                     	;# 
   491  0EBE                     	;# 
   492  0EC3                     	;# 
   493  0EC5                     	;# 
   494  0EC6                     	;# 
   495  0EC7                     	;# 
   496  0EC8                     	;# 
   497  0EC9                     	;# 
   498  0ECA                     	;# 
   499  0ECB                     	;# 
   500  0ECC                     	;# 
   501  0F10                     	;# 
   502  0F11                     	;# 
   503  0F12                     	;# 
   504  0F13                     	;# 
   505  0F14                     	;# 
   506  0F15                     	;# 
   507  0F16                     	;# 
   508  0F17                     	;# 
   509  0F18                     	;# 
   510  0F19                     	;# 
   511  0F1A                     	;# 
   512  0F1B                     	;# 
   513  0F1C                     	;# 
   514  0F1D                     	;# 
   515  0F1E                     	;# 
   516  0F1F                     	;# 
   517  0F20                     	;# 
   518  0F21                     	;# 
   519  0F22                     	;# 
   520  0F23                     	;# 
   521  0F24                     	;# 
   522  0F25                     	;# 
   523  0F26                     	;# 
   524  0F27                     	;# 
   525  0F38                     	;# 
   526  0F39                     	;# 
   527  0F3A                     	;# 
   528  0F3B                     	;# 
   529  0F3C                     	;# 
   530  0F3D                     	;# 
   531  0F3E                     	;# 
   532  0F3F                     	;# 
   533  0F40                     	;# 
   534  0F41                     	;# 
   535  0F43                     	;# 
   536  0F44                     	;# 
   537  0F45                     	;# 
   538  0F46                     	;# 
   539  0F47                     	;# 
   540  0F48                     	;# 
   541  0F49                     	;# 
   542  0F4A                     	;# 
   543  0F4B                     	;# 
   544  0F4C                     	;# 
   545  0F4E                     	;# 
   546  0F4F                     	;# 
   547  0F50                     	;# 
   548  0F51                     	;# 
   549  0F52                     	;# 
   550  0F53                     	;# 
   551  0F54                     	;# 
   552  0F55                     	;# 
   553  0F56                     	;# 
   554  0F57                     	;# 
   555  0F65                     	;# 
   556  0F68                     	;# 
   557  0F69                     	;# 
   558  0F6A                     	;# 
   559  0F6B                     	;# 
   560  0FE4                     	;# 
   561  0FE5                     	;# 
   562  0FE6                     	;# 
   563  0FE7                     	;# 
   564  0FE8                     	;# 
   565  0FE9                     	;# 
   566  0FEA                     	;# 
   567  0FEB                     	;# 
   568  0FED                     	;# 
   569  0FEE                     	;# 
   570  0FEF                     	;# 
   571  0000                     	;# 
   572  0001                     	;# 
   573  0002                     	;# 
   574  0003                     	;# 
   575  0004                     	;# 
   576  0005                     	;# 
   577  0006                     	;# 
   578  0007                     	;# 
   579  0008                     	;# 
   580  0009                     	;# 
   581  000A                     	;# 
   582  000B                     	;# 
   583  000C                     	;# 
   584  000D                     	;# 
   585  000E                     	;# 
   586  0010                     	;# 
   587  0011                     	;# 
   588  0012                     	;# 
   589  0013                     	;# 
   590  0016                     	;# 
   591  0017                     	;# 
   592  0018                     	;# 
   593  001C                     	;# 
   594  001C                     	;# 
   595  001D                     	;# 
   596  001D                     	;# 
   597  001E                     	;# 
   598  001F                     	;# 
   599  008C                     	;# 
   600  008C                     	;# 
   601  008D                     	;# 
   602  008E                     	;# 
   603  008E                     	;# 
   604  008F                     	;# 
   605  0090                     	;# 
   606  0090                     	;# 
   607  0091                     	;# 
   608  0093                     	;# 
   609  0094                     	;# 
   610  0095                     	;# 
   611  0096                     	;# 
   612  0097                     	;# 
   613  0098                     	;# 
   614  0099                     	;# 
   615  009A                     	;# 
   616  009B                     	;# 
   617  009C                     	;# 
   618  009D                     	;# 
   619  009E                     	;# 
   620  010C                     	;# 
   621  010D                     	;# 
   622  010E                     	;# 
   623  010E                     	;# 
   624  010F                     	;# 
   625  0110                     	;# 
   626  0110                     	;# 
   627  0111                     	;# 
   628  0112                     	;# 
   629  0112                     	;# 
   630  0113                     	;# 
   631  0114                     	;# 
   632  0114                     	;# 
   633  0115                     	;# 
   634  0116                     	;# 
   635  0116                     	;# 
   636  0117                     	;# 
   637  0119                     	;# 
   638  0119                     	;# 
   639  0119                     	;# 
   640  011A                     	;# 
   641  011A                     	;# 
   642  011A                     	;# 
   643  011B                     	;# 
   644  011B                     	;# 
   645  011B                     	;# 
   646  011B                     	;# 
   647  011B                     	;# 
   648  011C                     	;# 
   649  011C                     	;# 
   650  011C                     	;# 
   651  011D                     	;# 
   652  011D                     	;# 
   653  011D                     	;# 
   654  011E                     	;# 
   655  011E                     	;# 
   656  011E                     	;# 
   657  011F                     	;# 
   658  011F                     	;# 
   659  011F                     	;# 
   660  011F                     	;# 
   661  011F                     	;# 
   662  018C                     	;# 
   663  018D                     	;# 
   664  018E                     	;# 
   665  018F                     	;# 
   666  0190                     	;# 
   667  0191                     	;# 
   668  0192                     	;# 
   669  0196                     	;# 
   670  0197                     	;# 
   671  0198                     	;# 
   672  0199                     	;# 
   673  019A                     	;# 
   674  019B                     	;# 
   675  019C                     	;# 
   676  020C                     	;# 
   677  020C                     	;# 
   678  020D                     	;# 
   679  020E                     	;# 
   680  020F                     	;# 
   681  020F                     	;# 
   682  0210                     	;# 
   683  0210                     	;# 
   684  0211                     	;# 
   685  0211                     	;# 
   686  0212                     	;# 
   687  0212                     	;# 
   688  0213                     	;# 
   689  0214                     	;# 
   690  0215                     	;# 
   691  0215                     	;# 
   692  0216                     	;# 
   693  0216                     	;# 
   694  0217                     	;# 
   695  0217                     	;# 
   696  0218                     	;# 
   697  0218                     	;# 
   698  0219                     	;# 
   699  021A                     	;# 
   700  021B                     	;# 
   701  021B                     	;# 
   702  021C                     	;# 
   703  021C                     	;# 
   704  021D                     	;# 
   705  021D                     	;# 
   706  021E                     	;# 
   707  021F                     	;# 
   708  028C                     	;# 
   709  028C                     	;# 
   710  028D                     	;# 
   711  028D                     	;# 
   712  028E                     	;# 
   713  028F                     	;# 
   714  0290                     	;# 
   715  0290                     	;# 
   716  0291                     	;# 
   717  0292                     	;# 
   718  0292                     	;# 
   719  0293                     	;# 
   720  0293                     	;# 
   721  0294                     	;# 
   722  0295                     	;# 
   723  0296                     	;# 
   724  0296                     	;# 
   725  0297                     	;# 
   726  0298                     	;# 
   727  0298                     	;# 
   728  0299                     	;# 
   729  0299                     	;# 
   730  029A                     	;# 
   731  029B                     	;# 
   732  029C                     	;# 
   733  029C                     	;# 
   734  029D                     	;# 
   735  030C                     	;# 
   736  030C                     	;# 
   737  030D                     	;# 
   738  030E                     	;# 
   739  030F                     	;# 
   740  0310                     	;# 
   741  0310                     	;# 
   742  0311                     	;# 
   743  0312                     	;# 
   744  0313                     	;# 
   745  0314                     	;# 
   746  0314                     	;# 
   747  0315                     	;# 
   748  0316                     	;# 
   749  0317                     	;# 
   750  0318                     	;# 
   751  0318                     	;# 
   752  0319                     	;# 
   753  031A                     	;# 
   754  031B                     	;# 
   755  031C                     	;# 
   756  031C                     	;# 
   757  031D                     	;# 
   758  031E                     	;# 
   759  031F                     	;# 
   760  038C                     	;# 
   761  038D                     	;# 
   762  038E                     	;# 
   763  0390                     	;# 
   764  0391                     	;# 
   765  0392                     	;# 
   766  040C                     	;# 
   767  040D                     	;# 
   768  040E                     	;# 
   769  040F                     	;# 
   770  0410                     	;# 
   771  0411                     	;# 
   772  0416                     	;# 
   773  0416                     	;# 
   774  0417                     	;# 
   775  0418                     	;# 
   776  0418                     	;# 
   777  0419                     	;# 
   778  041A                     	;# 
   779  041A                     	;# 
   780  041B                     	;# 
   781  041C                     	;# 
   782  041C                     	;# 
   783  041D                     	;# 
   784  041E                     	;# 
   785  041F                     	;# 
   786  048C                     	;# 
   787  048C                     	;# 
   788  048D                     	;# 
   789  048E                     	;# 
   790  048F                     	;# 
   791  048F                     	;# 
   792  0490                     	;# 
   793  0491                     	;# 
   794  0492                     	;# 
   795  0492                     	;# 
   796  0493                     	;# 
   797  0494                     	;# 
   798  0495                     	;# 
   799  0495                     	;# 
   800  0496                     	;# 
   801  0497                     	;# 
   802  0498                     	;# 
   803  0499                     	;# 
   804  049A                     	;# 
   805  049B                     	;# 
   806  049C                     	;# 
   807  049D                     	;# 
   808  050C                     	;# 
   809  050C                     	;# 
   810  050D                     	;# 
   811  050E                     	;# 
   812  050F                     	;# 
   813  050F                     	;# 
   814  0510                     	;# 
   815  0511                     	;# 
   816  0512                     	;# 
   817  0512                     	;# 
   818  0513                     	;# 
   819  0514                     	;# 
   820  0515                     	;# 
   821  0515                     	;# 
   822  0516                     	;# 
   823  0517                     	;# 
   824  0518                     	;# 
   825  0519                     	;# 
   826  051A                     	;# 
   827  051B                     	;# 
   828  051C                     	;# 
   829  051D                     	;# 
   830  058C                     	;# 
   831  058C                     	;# 
   832  058D                     	;# 
   833  058E                     	;# 
   834  058F                     	;# 
   835  058F                     	;# 
   836  0590                     	;# 
   837  0591                     	;# 
   838  0592                     	;# 
   839  0593                     	;# 
   840  060C                     	;# 
   841  060D                     	;# 
   842  060E                     	;# 
   843  060F                     	;# 
   844  0610                     	;# 
   845  0611                     	;# 
   846  0612                     	;# 
   847  0613                     	;# 
   848  0614                     	;# 
   849  0616                     	;# 
   850  0617                     	;# 
   851  0618                     	;# 
   852  0619                     	;# 
   853  061A                     	;# 
   854  061B                     	;# 
   855  061C                     	;# 
   856  061D                     	;# 
   857  061E                     	;# 
   858  068C                     	;# 
   859  068D                     	;# 
   860  068E                     	;# 
   861  068F                     	;# 
   862  0690                     	;# 
   863  0691                     	;# 
   864  0692                     	;# 
   865  0693                     	;# 
   866  0694                     	;# 
   867  070C                     	;# 
   868  070D                     	;# 
   869  070E                     	;# 
   870  070F                     	;# 
   871  0710                     	;# 
   872  0711                     	;# 
   873  0712                     	;# 
   874  0713                     	;# 
   875  0714                     	;# 
   876  0716                     	;# 
   877  0717                     	;# 
   878  0718                     	;# 
   879  0719                     	;# 
   880  071A                     	;# 
   881  071B                     	;# 
   882  071C                     	;# 
   883  071D                     	;# 
   884  071E                     	;# 
   885  0796                     	;# 
   886  0797                     	;# 
   887  0798                     	;# 
   888  0799                     	;# 
   889  079A                     	;# 
   890  079B                     	;# 
   891  080C                     	;# 
   892  080D                     	;# 
   893  080E                     	;# 
   894  080F                     	;# 
   895  0810                     	;# 
   896  0811                     	;# 
   897  0812                     	;# 
   898  0813                     	;# 
   899  0814                     	;# 
   900  081A                     	;# 
   901  081B                     	;# 
   902  081C                     	;# 
   903  081D                     	;# 
   904  081E                     	;# 
   905  081F                     	;# 
   906  088C                     	;# 
   907  088D                     	;# 
   908  088E                     	;# 
   909  088F                     	;# 
   910  0890                     	;# 
   911  0891                     	;# 
   912  0892                     	;# 
   913  0893                     	;# 
   914  0895                     	;# 
   915  0896                     	;# 
   916  0897                     	;# 
   917  0898                     	;# 
   918  0899                     	;# 
   919  089A                     	;# 
   920  089B                     	;# 
   921  090C                     	;# 
   922  090E                     	;# 
   923  090F                     	;# 
   924  091F                     	;# 
   925  091F                     	;# 
   926  098F                     	;# 
   927  098F                     	;# 
   928  0990                     	;# 
   929  0991                     	;# 
   930  0992                     	;# 
   931  0993                     	;# 
   932  0994                     	;# 
   933  0995                     	;# 
   934  0996                     	;# 
   935  0997                     	;# 
   936  0E0F                     	;# 
   937  0E10                     	;# 
   938  0E11                     	;# 
   939  0E12                     	;# 
   940  0E13                     	;# 
   941  0E14                     	;# 
   942  0E15                     	;# 
   943  0E16                     	;# 
   944  0E17                     	;# 
   945  0E18                     	;# 
   946  0E19                     	;# 
   947  0E1A                     	;# 
   948  0E1B                     	;# 
   949  0E1C                     	;# 
   950  0E1D                     	;# 
   951  0E1E                     	;# 
   952  0E1F                     	;# 
   953  0E20                     	;# 
   954  0E21                     	;# 
   955  0E22                     	;# 
   956  0E23                     	;# 
   957  0E24                     	;# 
   958  0E25                     	;# 
   959  0E26                     	;# 
   960  0E27                     	;# 
   961  0E28                     	;# 
   962  0E29                     	;# 
   963  0E2A                     	;# 
   964  0E2B                     	;# 
   965  0E2C                     	;# 
   966  0E2D                     	;# 
   967  0E2E                     	;# 
   968  0E2F                     	;# 
   969  0E30                     	;# 
   970  0E31                     	;# 
   971  0E32                     	;# 
   972  0E33                     	;# 
   973  0E34                     	;# 
   974  0E35                     	;# 
   975  0E36                     	;# 
   976  0E37                     	;# 
   977  0E8F                     	;# 
   978  0E90                     	;# 
   979  0E91                     	;# 
   980  0E92                     	;# 
   981  0E93                     	;# 
   982  0E94                     	;# 
   983  0E95                     	;# 
   984  0E96                     	;# 
   985  0E97                     	;# 
   986  0E9C                     	;# 
   987  0E9D                     	;# 
   988  0E9E                     	;# 
   989  0EA1                     	;# 
   990  0EA2                     	;# 
   991  0EA3                     	;# 
   992  0EA4                     	;# 
   993  0EA5                     	;# 
   994  0EA9                     	;# 
   995  0EAA                     	;# 
   996  0EAB                     	;# 
   997  0EAC                     	;# 
   998  0EB1                     	;# 
   999  0EB2                     	;# 
  1000  0EB3                     	;# 
  1001  0EB8                     	;# 
  1002  0EB9                     	;# 
  1003  0EBA                     	;# 
  1004  0EBB                     	;# 
  1005  0EBC                     	;# 
  1006  0EBD                     	;# 
  1007  0EBE                     	;# 
  1008  0EC3                     	;# 
  1009  0EC5                     	;# 
  1010  0EC6                     	;# 
  1011  0EC7                     	;# 
  1012  0EC8                     	;# 
  1013  0EC9                     	;# 
  1014  0ECA                     	;# 
  1015  0ECB                     	;# 
  1016  0ECC                     	;# 
  1017  0F10                     	;# 
  1018  0F11                     	;# 
  1019  0F12                     	;# 
  1020  0F13                     	;# 
  1021  0F14                     	;# 
  1022  0F15                     	;# 
  1023  0F16                     	;# 
  1024  0F17                     	;# 
  1025  0F18                     	;# 
  1026  0F19                     	;# 
  1027  0F1A                     	;# 
  1028  0F1B                     	;# 
  1029  0F1C                     	;# 
  1030  0F1D                     	;# 
  1031  0F1E                     	;# 
  1032  0F1F                     	;# 
  1033  0F20                     	;# 
  1034  0F21                     	;# 
  1035  0F22                     	;# 
  1036  0F23                     	;# 
  1037  0F24                     	;# 
  1038  0F25                     	;# 
  1039  0F26                     	;# 
  1040  0F27                     	;# 
  1041  0F38                     	;# 
  1042  0F39                     	;# 
  1043  0F3A                     	;# 
  1044  0F3B                     	;# 
  1045  0F3C                     	;# 
  1046  0F3D                     	;# 
  1047  0F3E                     	;# 
  1048  0F3F                     	;# 
  1049  0F40                     	;# 
  1050  0F41                     	;# 
  1051  0F43                     	;# 
  1052  0F44                     	;# 
  1053  0F45                     	;# 
  1054  0F46                     	;# 
  1055  0F47                     	;# 
  1056  0F48                     	;# 
  1057  0F49                     	;# 
  1058  0F4A                     	;# 
  1059  0F4B                     	;# 
  1060  0F4C                     	;# 
  1061  0F4E                     	;# 
  1062  0F4F                     	;# 
  1063  0F50                     	;# 
  1064  0F51                     	;# 
  1065  0F52                     	;# 
  1066  0F53                     	;# 
  1067  0F54                     	;# 
  1068  0F55                     	;# 
  1069  0F56                     	;# 
  1070  0F57                     	;# 
  1071  0F65                     	;# 
  1072  0F68                     	;# 
  1073  0F69                     	;# 
  1074  0F6A                     	;# 
  1075  0F6B                     	;# 
  1076  0FE4                     	;# 
  1077  0FE5                     	;# 
  1078  0FE6                     	;# 
  1079  0FE7                     	;# 
  1080  0FE8                     	;# 
  1081  0FE9                     	;# 
  1082  0FEA                     	;# 
  1083  0FEB                     	;# 
  1084  0FED                     	;# 
  1085  0FEE                     	;# 
  1086  0FEF                     	;# 
  1087  0000                     	;# 
  1088  0001                     	;# 
  1089  0002                     	;# 
  1090  0003                     	;# 
  1091  0004                     	;# 
  1092  0005                     	;# 
  1093  0006                     	;# 
  1094  0007                     	;# 
  1095  0008                     	;# 
  1096  0009                     	;# 
  1097  000A                     	;# 
  1098  000B                     	;# 
  1099  000C                     	;# 
  1100  000D                     	;# 
  1101  000E                     	;# 
  1102  0010                     	;# 
  1103  0011                     	;# 
  1104  0012                     	;# 
  1105  0013                     	;# 
  1106  0016                     	;# 
  1107  0017                     	;# 
  1108  0018                     	;# 
  1109  001C                     	;# 
  1110  001C                     	;# 
  1111  001D                     	;# 
  1112  001D                     	;# 
  1113  001E                     	;# 
  1114  001F                     	;# 
  1115  008C                     	;# 
  1116  008C                     	;# 
  1117  008D                     	;# 
  1118  008E                     	;# 
  1119  008E                     	;# 
  1120  008F                     	;# 
  1121  0090                     	;# 
  1122  0090                     	;# 
  1123  0091                     	;# 
  1124  0093                     	;# 
  1125  0094                     	;# 
  1126  0095                     	;# 
  1127  0096                     	;# 
  1128  0097                     	;# 
  1129  0098                     	;# 
  1130  0099                     	;# 
  1131  009A                     	;# 
  1132  009B                     	;# 
  1133  009C                     	;# 
  1134  009D                     	;# 
  1135  009E                     	;# 
  1136  010C                     	;# 
  1137  010D                     	;# 
  1138  010E                     	;# 
  1139  010E                     	;# 
  1140  010F                     	;# 
  1141  0110                     	;# 
  1142  0110                     	;# 
  1143  0111                     	;# 
  1144  0112                     	;# 
  1145  0112                     	;# 
  1146  0113                     	;# 
  1147  0114                     	;# 
  1148  0114                     	;# 
  1149  0115                     	;# 
  1150  0116                     	;# 
  1151  0116                     	;# 
  1152  0117                     	;# 
  1153  0119                     	;# 
  1154  0119                     	;# 
  1155  0119                     	;# 
  1156  011A                     	;# 
  1157  011A                     	;# 
  1158  011A                     	;# 
  1159  011B                     	;# 
  1160  011B                     	;# 
  1161  011B                     	;# 
  1162  011B                     	;# 
  1163  011B                     	;# 
  1164  011C                     	;# 
  1165  011C                     	;# 
  1166  011C                     	;# 
  1167  011D                     	;# 
  1168  011D                     	;# 
  1169  011D                     	;# 
  1170  011E                     	;# 
  1171  011E                     	;# 
  1172  011E                     	;# 
  1173  011F                     	;# 
  1174  011F                     	;# 
  1175  011F                     	;# 
  1176  011F                     	;# 
  1177  011F                     	;# 
  1178  018C                     	;# 
  1179  018D                     	;# 
  1180  018E                     	;# 
  1181  018F                     	;# 
  1182  0190                     	;# 
  1183  0191                     	;# 
  1184  0192                     	;# 
  1185  0196                     	;# 
  1186  0197                     	;# 
  1187  0198                     	;# 
  1188  0199                     	;# 
  1189  019A                     	;# 
  1190  019B                     	;# 
  1191  019C                     	;# 
  1192  020C                     	;# 
  1193  020C                     	;# 
  1194  020D                     	;# 
  1195  020E                     	;# 
  1196  020F                     	;# 
  1197  020F                     	;# 
  1198  0210                     	;# 
  1199  0210                     	;# 
  1200  0211                     	;# 
  1201  0211                     	;# 
  1202  0212                     	;# 
  1203  0212                     	;# 
  1204  0213                     	;# 
  1205  0214                     	;# 
  1206  0215                     	;# 
  1207  0215                     	;# 
  1208  0216                     	;# 
  1209  0216                     	;# 
  1210  0217                     	;# 
  1211  0217                     	;# 
  1212  0218                     	;# 
  1213  0218                     	;# 
  1214  0219                     	;# 
  1215  021A                     	;# 
  1216  021B                     	;# 
  1217  021B                     	;# 
  1218  021C                     	;# 
  1219  021C                     	;# 
  1220  021D                     	;# 
  1221  021D                     	;# 
  1222  021E                     	;# 
  1223  021F                     	;# 
  1224  028C                     	;# 
  1225  028C                     	;# 
  1226  028D                     	;# 
  1227  028D                     	;# 
  1228  028E                     	;# 
  1229  028F                     	;# 
  1230  0290                     	;# 
  1231  0290                     	;# 
  1232  0291                     	;# 
  1233  0292                     	;# 
  1234  0292                     	;# 
  1235  0293                     	;# 
  1236  0293                     	;# 
  1237  0294                     	;# 
  1238  0295                     	;# 
  1239  0296                     	;# 
  1240  0296                     	;# 
  1241  0297                     	;# 
  1242  0298                     	;# 
  1243  0298                     	;# 
  1244  0299                     	;# 
  1245  0299                     	;# 
  1246  029A                     	;# 
  1247  029B                     	;# 
  1248  029C                     	;# 
  1249  029C                     	;# 
  1250  029D                     	;# 
  1251  030C                     	;# 
  1252  030C                     	;# 
  1253  030D                     	;# 
  1254  030E                     	;# 
  1255  030F                     	;# 
  1256  0310                     	;# 
  1257  0310                     	;# 
  1258  0311                     	;# 
  1259  0312                     	;# 
  1260  0313                     	;# 
  1261  0314                     	;# 
  1262  0314                     	;# 
  1263  0315                     	;# 
  1264  0316                     	;# 
  1265  0317                     	;# 
  1266  0318                     	;# 
  1267  0318                     	;# 
  1268  0319                     	;# 
  1269  031A                     	;# 
  1270  031B                     	;# 
  1271  031C                     	;# 
  1272  031C                     	;# 
  1273  031D                     	;# 
  1274  031E                     	;# 
  1275  031F                     	;# 
  1276  038C                     	;# 
  1277  038D                     	;# 
  1278  038E                     	;# 
  1279  0390                     	;# 
  1280  0391                     	;# 
  1281  0392                     	;# 
  1282  040C                     	;# 
  1283  040D                     	;# 
  1284  040E                     	;# 
  1285  040F                     	;# 
  1286  0410                     	;# 
  1287  0411                     	;# 
  1288  0416                     	;# 
  1289  0416                     	;# 
  1290  0417                     	;# 
  1291  0418                     	;# 
  1292  0418                     	;# 
  1293  0419                     	;# 
  1294  041A                     	;# 
  1295  041A                     	;# 
  1296  041B                     	;# 
  1297  041C                     	;# 
  1298  041C                     	;# 
  1299  041D                     	;# 
  1300  041E                     	;# 
  1301  041F                     	;# 
  1302  048C                     	;# 
  1303  048C                     	;# 
  1304  048D                     	;# 
  1305  048E                     	;# 
  1306  048F                     	;# 
  1307  048F                     	;# 
  1308  0490                     	;# 
  1309  0491                     	;# 
  1310  0492                     	;# 
  1311  0492                     	;# 
  1312  0493                     	;# 
  1313  0494                     	;# 
  1314  0495                     	;# 
  1315  0495                     	;# 
  1316  0496                     	;# 
  1317  0497                     	;# 
  1318  0498                     	;# 
  1319  0499                     	;# 
  1320  049A                     	;# 
  1321  049B                     	;# 
  1322  049C                     	;# 
  1323  049D                     	;# 
  1324  050C                     	;# 
  1325  050C                     	;# 
  1326  050D                     	;# 
  1327  050E                     	;# 
  1328  050F                     	;# 
  1329  050F                     	;# 
  1330  0510                     	;# 
  1331  0511                     	;# 
  1332  0512                     	;# 
  1333  0512                     	;# 
  1334  0513                     	;# 
  1335  0514                     	;# 
  1336  0515                     	;# 
  1337  0515                     	;# 
  1338  0516                     	;# 
  1339  0517                     	;# 
  1340  0518                     	;# 
  1341  0519                     	;# 
  1342  051A                     	;# 
  1343  051B                     	;# 
  1344  051C                     	;# 
  1345  051D                     	;# 
  1346  058C                     	;# 
  1347  058C                     	;# 
  1348  058D                     	;# 
  1349  058E                     	;# 
  1350  058F                     	;# 
  1351  058F                     	;# 
  1352  0590                     	;# 
  1353  0591                     	;# 
  1354  0592                     	;# 
  1355  0593                     	;# 
  1356  060C                     	;# 
  1357  060D                     	;# 
  1358  060E                     	;# 
  1359  060F                     	;# 
  1360  0610                     	;# 
  1361  0611                     	;# 
  1362  0612                     	;# 
  1363  0613                     	;# 
  1364  0614                     	;# 
  1365  0616                     	;# 
  1366  0617                     	;# 
  1367  0618                     	;# 
  1368  0619                     	;# 
  1369  061A                     	;# 
  1370  061B                     	;# 
  1371  061C                     	;# 
  1372  061D                     	;# 
  1373  061E                     	;# 
  1374  068C                     	;# 
  1375  068D                     	;# 
  1376  068E                     	;# 
  1377  068F                     	;# 
  1378  0690                     	;# 
  1379  0691                     	;# 
  1380  0692                     	;# 
  1381  0693                     	;# 
  1382  0694                     	;# 
  1383  070C                     	;# 
  1384  070D                     	;# 
  1385  070E                     	;# 
  1386  070F                     	;# 
  1387  0710                     	;# 
  1388  0711                     	;# 
  1389  0712                     	;# 
  1390  0713                     	;# 
  1391  0714                     	;# 
  1392  0716                     	;# 
  1393  0717                     	;# 
  1394  0718                     	;# 
  1395  0719                     	;# 
  1396  071A                     	;# 
  1397  071B                     	;# 
  1398  071C                     	;# 
  1399  071D                     	;# 
  1400  071E                     	;# 
  1401  0796                     	;# 
  1402  0797                     	;# 
  1403  0798                     	;# 
  1404  0799                     	;# 
  1405  079A                     	;# 
  1406  079B                     	;# 
  1407  080C                     	;# 
  1408  080D                     	;# 
  1409  080E                     	;# 
  1410  080F                     	;# 
  1411  0810                     	;# 
  1412  0811                     	;# 
  1413  0812                     	;# 
  1414  0813                     	;# 
  1415  0814                     	;# 
  1416  081A                     	;# 
  1417  081B                     	;# 
  1418  081C                     	;# 
  1419  081D                     	;# 
  1420  081E                     	;# 
  1421  081F                     	;# 
  1422  088C                     	;# 
  1423  088D                     	;# 
  1424  088E                     	;# 
  1425  088F                     	;# 
  1426  0890                     	;# 
  1427  0891                     	;# 
  1428  0892                     	;# 
  1429  0893                     	;# 
  1430  0895                     	;# 
  1431  0896                     	;# 
  1432  0897                     	;# 
  1433  0898                     	;# 
  1434  0899                     	;# 
  1435  089A                     	;# 
  1436  089B                     	;# 
  1437  090C                     	;# 
  1438  090E                     	;# 
  1439  090F                     	;# 
  1440  091F                     	;# 
  1441  091F                     	;# 
  1442  098F                     	;# 
  1443  098F                     	;# 
  1444  0990                     	;# 
  1445  0991                     	;# 
  1446  0992                     	;# 
  1447  0993                     	;# 
  1448  0994                     	;# 
  1449  0995                     	;# 
  1450  0996                     	;# 
  1451  0997                     	;# 
  1452  0E0F                     	;# 
  1453  0E10                     	;# 
  1454  0E11                     	;# 
  1455  0E12                     	;# 
  1456  0E13                     	;# 
  1457  0E14                     	;# 
  1458  0E15                     	;# 
  1459  0E16                     	;# 
  1460  0E17                     	;# 
  1461  0E18                     	;# 
  1462  0E19                     	;# 
  1463  0E1A                     	;# 
  1464  0E1B                     	;# 
  1465  0E1C                     	;# 
  1466  0E1D                     	;# 
  1467  0E1E                     	;# 
  1468  0E1F                     	;# 
  1469  0E20                     	;# 
  1470  0E21                     	;# 
  1471  0E22                     	;# 
  1472  0E23                     	;# 
  1473  0E24                     	;# 
  1474  0E25                     	;# 
  1475  0E26                     	;# 
  1476  0E27                     	;# 
  1477  0E28                     	;# 
  1478  0E29                     	;# 
  1479  0E2A                     	;# 
  1480  0E2B                     	;# 
  1481  0E2C                     	;# 
  1482  0E2D                     	;# 
  1483  0E2E                     	;# 
  1484  0E2F                     	;# 
  1485  0E30                     	;# 
  1486  0E31                     	;# 
  1487  0E32                     	;# 
  1488  0E33                     	;# 
  1489  0E34                     	;# 
  1490  0E35                     	;# 
  1491  0E36                     	;# 
  1492  0E37                     	;# 
  1493  0E8F                     	;# 
  1494  0E90                     	;# 
  1495  0E91                     	;# 
  1496  0E92                     	;# 
  1497  0E93                     	;# 
  1498  0E94                     	;# 
  1499  0E95                     	;# 
  1500  0E96                     	;# 
  1501  0E97                     	;# 
  1502  0E9C                     	;# 
  1503  0E9D                     	;# 
  1504  0E9E                     	;# 
  1505  0EA1                     	;# 
  1506  0EA2                     	;# 
  1507  0EA3                     	;# 
  1508  0EA4                     	;# 
  1509  0EA5                     	;# 
  1510  0EA9                     	;# 
  1511  0EAA                     	;# 
  1512  0EAB                     	;# 
  1513  0EAC                     	;# 
  1514  0EB1                     	;# 
  1515  0EB2                     	;# 
  1516  0EB3                     	;# 
  1517  0EB8                     	;# 
  1518  0EB9                     	;# 
  1519  0EBA                     	;# 
  1520  0EBB                     	;# 
  1521  0EBC                     	;# 
  1522  0EBD                     	;# 
  1523  0EBE                     	;# 
  1524  0EC3                     	;# 
  1525  0EC5                     	;# 
  1526  0EC6                     	;# 
  1527  0EC7                     	;# 
  1528  0EC8                     	;# 
  1529  0EC9                     	;# 
  1530  0ECA                     	;# 
  1531  0ECB                     	;# 
  1532  0ECC                     	;# 
  1533  0F10                     	;# 
  1534  0F11                     	;# 
  1535  0F12                     	;# 
  1536  0F13                     	;# 
  1537  0F14                     	;# 
  1538  0F15                     	;# 
  1539  0F16                     	;# 
  1540  0F17                     	;# 
  1541  0F18                     	;# 
  1542  0F19                     	;# 
  1543  0F1A                     	;# 
  1544  0F1B                     	;# 
  1545  0F1C                     	;# 
  1546  0F1D                     	;# 
  1547  0F1E                     	;# 
  1548  0F1F                     	;# 
  1549  0F20                     	;# 
  1550  0F21                     	;# 
  1551  0F22                     	;# 
  1552  0F23                     	;# 
  1553  0F24                     	;# 
  1554  0F25                     	;# 
  1555  0F26                     	;# 
  1556  0F27                     	;# 
  1557  0F38                     	;# 
  1558  0F39                     	;# 
  1559  0F3A                     	;# 
  1560  0F3B                     	;# 
  1561  0F3C                     	;# 
  1562  0F3D                     	;# 
  1563  0F3E                     	;# 
  1564  0F3F                     	;# 
  1565  0F40                     	;# 
  1566  0F41                     	;# 
  1567  0F43                     	;# 
  1568  0F44                     	;# 
  1569  0F45                     	;# 
  1570  0F46                     	;# 
  1571  0F47                     	;# 
  1572  0F48                     	;# 
  1573  0F49                     	;# 
  1574  0F4A                     	;# 
  1575  0F4B                     	;# 
  1576  0F4C                     	;# 
  1577  0F4E                     	;# 
  1578  0F4F                     	;# 
  1579  0F50                     	;# 
  1580  0F51                     	;# 
  1581  0F52                     	;# 
  1582  0F53                     	;# 
  1583  0F54                     	;# 
  1584  0F55                     	;# 
  1585  0F56                     	;# 
  1586  0F57                     	;# 
  1587  0F65                     	;# 
  1588  0F68                     	;# 
  1589  0F69                     	;# 
  1590  0F6A                     	;# 
  1591  0F6B                     	;# 
  1592  0FE4                     	;# 
  1593  0FE5                     	;# 
  1594  0FE6                     	;# 
  1595  0FE7                     	;# 
  1596  0FE8                     	;# 
  1597  0FE9                     	;# 
  1598  0FEA                     	;# 
  1599  0FEB                     	;# 
  1600  0FED                     	;# 
  1601  0FEE                     	;# 
  1602  0FEF                     	;# 
  1603                           
  1604                           	psect	stringtext
  1605  0800                     __pstringtext:	
  1606  0800                     _fonts:	
  1607  0800  3400               	retlw	0
  1608  0801  3400               	retlw	0
  1609  0802  3400               	retlw	0
  1610  0803  3400               	retlw	0
  1611  0804  344E               	retlw	78
  1612  0805  3400               	retlw	0
  1613  0806  3406               	retlw	6
  1614  0807  3400               	retlw	0
  1615  0808  3406               	retlw	6
  1616  0809  34FF               	retlw	255
  1617  080A  34FF               	retlw	255
  1618  080B  34FF               	retlw	255
  1619  080C  3448               	retlw	72
  1620  080D  34D6               	retlw	214
  1621  080E  3424               	retlw	36
  1622  080F  3413               	retlw	19
  1623  0810  346B               	retlw	107
  1624  0811  3464               	retlw	100
  1625  0812  34FF               	retlw	255
  1626  0813  34FF               	retlw	255
  1627  0814  34FF               	retlw	255
  1628  0815  3400               	retlw	0
  1629  0816  3406               	retlw	6
  1630  0817  3400               	retlw	0
  1631  0818  3438               	retlw	56
  1632  0819  3444               	retlw	68
  1633  081A  3482               	retlw	130
  1634  081B  3482               	retlw	130
  1635  081C  3444               	retlw	68
  1636  081D  3438               	retlw	56
  1637  081E  3414               	retlw	20
  1638  081F  3408               	retlw	8
  1639  0820  343E               	retlw	62
  1640  0821  3410               	retlw	16
  1641  0822  3438               	retlw	56
  1642  0823  3410               	retlw	16
  1643  0824  34A0               	retlw	160
  1644  0825  3460               	retlw	96
  1645  0826  3400               	retlw	0
  1646  0827  3410               	retlw	16
  1647  0828  3410               	retlw	16
  1648  0829  3410               	retlw	16
  1649  082A  3460               	retlw	96
  1650  082B  3460               	retlw	96
  1651  082C  3400               	retlw	0
  1652  082D  3460               	retlw	96
  1653  082E  3418               	retlw	24
  1654  082F  3406               	retlw	6
  1655  0830  347C               	retlw	124
  1656  0831  3442               	retlw	66
  1657  0832  347C               	retlw	124
  1658  0833  3444               	retlw	68
  1659  0834  347E               	retlw	126
  1660  0835  3440               	retlw	64
  1661  0836  3464               	retlw	100
  1662  0837  3452               	retlw	82
  1663  0838  344C               	retlw	76
  1664  0839  344A               	retlw	74
  1665  083A  344A               	retlw	74
  1666  083B  3434               	retlw	52
  1667  083C  3438               	retlw	56
  1668  083D  3424               	retlw	36
  1669  083E  347E               	retlw	126
  1670  083F  344E               	retlw	78
  1671  0840  344A               	retlw	74
  1672  0841  3432               	retlw	50
  1673  0842  343C               	retlw	60
  1674  0843  344A               	retlw	74
  1675  0844  3432               	retlw	50
  1676  0845  3462               	retlw	98
  1677  0846  341A               	retlw	26
  1678  0847  3406               	retlw	6
  1679  0848  3476               	retlw	118
  1680  0849  344A               	retlw	74
  1681  084A  3476               	retlw	118
  1682  084B  344C               	retlw	76
  1683  084C  3452               	retlw	82
  1684  084D  343C               	retlw	60
  1685  084E  346C               	retlw	108
  1686  084F  346C               	retlw	108
  1687  0850  3400               	retlw	0
  1688  0851  34AC               	retlw	172
  1689  0852  346C               	retlw	108
  1690  0853  3400               	retlw	0
  1691  0854  3410               	retlw	16
  1692  0855  3428               	retlw	40
  1693  0856  3444               	retlw	68
  1694  0857  3428               	retlw	40
  1695  0858  3428               	retlw	40
  1696  0859  3428               	retlw	40
  1697  085A  3444               	retlw	68
  1698  085B  3428               	retlw	40
  1699  085C  3410               	retlw	16
  1700  085D  3402               	retlw	2
  1701  085E  3459               	retlw	89
  1702  085F  3406               	retlw	6
  1703  0860  34FF               	retlw	255
  1704  0861  34FF               	retlw	255
  1705  0862  34FF               	retlw	255
  1706  0863  347C               	retlw	124
  1707  0864  3412               	retlw	18
  1708  0865  347C               	retlw	124
  1709  0866  347E               	retlw	126
  1710  0867  345A               	retlw	90
  1711  0868  3434               	retlw	52
  1712  0869  343C               	retlw	60
  1713  086A  3442               	retlw	66
  1714  086B  3442               	retlw	66
  1715  086C  347E               	retlw	126
  1716  086D  3442               	retlw	66
  1717  086E  343C               	retlw	60
  1718  086F  347E               	retlw	126
  1719  0870  344A               	retlw	74
  1720  0871  3442               	retlw	66
  1721  0872  347E               	retlw	126
  1722  0873  340A               	retlw	10
  1723  0874  340A               	retlw	10
  1724  0875  343C               	retlw	60
  1725  0876  3452               	retlw	82
  1726  0877  3434               	retlw	52
  1727  0878  347E               	retlw	126
  1728  0879  3408               	retlw	8
  1729  087A  347E               	retlw	126
  1730  087B  3442               	retlw	66
  1731  087C  347E               	retlw	126
  1732  087D  3442               	retlw	66
  1733  087E  3430               	retlw	48
  1734  087F  3440               	retlw	64
  1735  0880  343E               	retlw	62
  1736  0881  347E               	retlw	126
  1737  0882  3418               	retlw	24
  1738  0883  3466               	retlw	102
  1739  0884  347E               	retlw	126
  1740  0885  3440               	retlw	64
  1741  0886  3440               	retlw	64
  1742  0887  347E               	retlw	126
  1743  0888  341C               	retlw	28
  1744  0889  347E               	retlw	126
  1745  088A  347E               	retlw	126
  1746  088B  3402               	retlw	2
  1747  088C  347E               	retlw	126
  1748  088D  343C               	retlw	60
  1749  088E  3442               	retlw	66
  1750  088F  343C               	retlw	60
  1751  0890  347E               	retlw	126
  1752  0891  3412               	retlw	18
  1753  0892  340C               	retlw	12
  1754  0893  347E               	retlw	126
  1755  0894  3462               	retlw	98
  1756  0895  34FE               	retlw	254
  1757  0896  347E               	retlw	126
  1758  0897  3432               	retlw	50
  1759  0898  344E               	retlw	78
  1760  0899  3444               	retlw	68
  1761  089A  344A               	retlw	74
  1762  089B  3432               	retlw	50
  1763  089C  3402               	retlw	2
  1764  089D  347E               	retlw	126
  1765  089E  3402               	retlw	2
  1766  089F  347E               	retlw	126
  1767  08A0  3440               	retlw	64
  1768  08A1  347E               	retlw	126
  1769  08A2  343E               	retlw	62
  1770  08A3  3440               	retlw	64
  1771  08A4  343E               	retlw	62
  1772  08A5  347E               	retlw	126
  1773  08A6  3438               	retlw	56
  1774  08A7  347E               	retlw	126
  1775  08A8  3466               	retlw	102
  1776  08A9  3418               	retlw	24
  1777  08AA  3466               	retlw	102
  1778  08AB  340E               	retlw	14
  1779  08AC  3470               	retlw	112
  1780  08AD  340E               	retlw	14
  1781  08AE  3462               	retlw	98
  1782  08AF  345A               	retlw	90
  1783  08B0  3446               	retlw	70
  1784  08B1  3400               	retlw	0
  1785  08B2  347E               	retlw	126
  1786  08B3  3442               	retlw	66
  1787  08B4  3406               	retlw	6
  1788  08B5  3418               	retlw	24
  1789  08B6  3460               	retlw	96
  1790  08B7  3442               	retlw	66
  1791  08B8  347E               	retlw	126
  1792  08B9  3400               	retlw	0
  1793  08BA  3404               	retlw	4
  1794  08BB  3402               	retlw	2
  1795  08BC  3404               	retlw	4
  1796  08BD  3440               	retlw	64
  1797  08BE  3440               	retlw	64
  1798  08BF  3440               	retlw	64
  1799  08C0  3400               	retlw	0
  1800  08C1  3402               	retlw	2
  1801  08C2  3404               	retlw	4
  1802  08C3  3474               	retlw	116
  1803  08C4  3454               	retlw	84
  1804  08C5  3478               	retlw	120
  1805  08C6  347E               	retlw	126
  1806  08C7  3448               	retlw	72
  1807  08C8  3430               	retlw	48
  1808  08C9  3430               	retlw	48
  1809  08CA  3448               	retlw	72
  1810  08CB  3448               	retlw	72
  1811  08CC  3430               	retlw	48
  1812  08CD  3448               	retlw	72
  1813  08CE  347E               	retlw	126
  1814  08CF  3438               	retlw	56
  1815  08D0  3454               	retlw	84
  1816  08D1  3458               	retlw	88
  1817  08D2  347C               	retlw	124
  1818  08D3  340A               	retlw	10
  1819  08D4  3402               	retlw	2
  1820  08D5  3498               	retlw	152
  1821  08D6  34A4               	retlw	164
  1822  08D7  347C               	retlw	124
  1823  08D8  347E               	retlw	126
  1824  08D9  3408               	retlw	8
  1825  08DA  3470               	retlw	112
  1826  08DB  3448               	retlw	72
  1827  08DC  347A               	retlw	122
  1828  08DD  3440               	retlw	64
  1829  08DE  3488               	retlw	136
  1830  08DF  34FA               	retlw	250
  1831  08E0  3400               	retlw	0
  1832  08E1  347E               	retlw	126
  1833  08E2  3418               	retlw	24
  1834  08E3  3464               	retlw	100
  1835  08E4  3442               	retlw	66
  1836  08E5  347E               	retlw	126
  1837  08E6  3440               	retlw	64
  1838  08E7  347C               	retlw	124
  1839  08E8  3438               	retlw	56
  1840  08E9  347C               	retlw	124
  1841  08EA  347C               	retlw	124
  1842  08EB  3404               	retlw	4
  1843  08EC  3478               	retlw	120
  1844  08ED  3438               	retlw	56
  1845  08EE  3444               	retlw	68
  1846  08EF  3438               	retlw	56
  1847  08F0  34FC               	retlw	252
  1848  08F1  3424               	retlw	36
  1849  08F2  3418               	retlw	24
  1850  08F3  3418               	retlw	24
  1851  08F4  3424               	retlw	36
  1852  08F5  34FC               	retlw	252
  1853  08F6  3478               	retlw	120
  1854  08F7  3404               	retlw	4
  1855  08F8  3404               	retlw	4
  1856  08F9  3448               	retlw	72
  1857  08FA  3454               	retlw	84
  1858  08FB  3424               	retlw	36
  1859  08FC  3404               	retlw	4
  1860  08FD  343E               	retlw	62
  1861  08FE  3444               	retlw	68
  1862  08FF  347C               	retlw	124
  1863  0900  3440               	retlw	64
  1864  0901  347C               	retlw	124
  1865  0902  343C               	retlw	60
  1866  0903  3440               	retlw	64
  1867  0904  343C               	retlw	60
  1868  0905  347C               	retlw	124
  1869  0906  3430               	retlw	48
  1870  0907  347C               	retlw	124
  1871  0908  346C               	retlw	108
  1872  0909  3410               	retlw	16
  1873  090A  346C               	retlw	108
  1874  090B  349C               	retlw	156
  1875  090C  34A0               	retlw	160
  1876  090D  347C               	retlw	124
  1877  090E  3464               	retlw	100
  1878  090F  3454               	retlw	84
  1879  0910  344C               	retlw	76
  1880  0911  34FF               	retlw	255
  1881  0912  34FF               	retlw	255
  1882  0913  34FF               	retlw	255
  1883  0914  34FF               	retlw	255
  1884  0915  34FF               	retlw	255
  1885  0916  34FF               	retlw	255
  1886  0917  34FF               	retlw	255
  1887  0918  34FF               	retlw	255
  1888  0919  34FF               	retlw	255
  1889  091A  34FF               	retlw	255
  1890  091B  34FF               	retlw	255
  1891  091C  34FF               	retlw	255
  1892  091D  34FF               	retlw	255
  1893  091E  34FF               	retlw	255
  1894  091F  34FF               	retlw	255
  1895  0920  34FF               	retlw	255
  1896  0921  34FF               	retlw	255
  1897  0922  34FF               	retlw	255
  1898  0923  340C               	retlw	12
  1899  0924  3412               	retlw	18
  1900  0925  340C               	retlw	12
  1901  0926  34FC               	retlw	252
  1902  0927  3440               	retlw	64
  1903  0928  347C               	retlw	124
  1904  0929  34FF               	retlw	255
  1905  092A  34FF               	retlw	255
  1906  092B  34FF               	retlw	255
  1907  092C  34FF               	retlw	255
  1908  092D  34FF               	retlw	255
  1909  092E  34FF               	retlw	255
  1910  092F                     __end_of_fonts:	
  1911  092F                     _coffee:	
  1912  092F  34FF               	retlw	255
  1913  0930  3401               	retlw	1
  1914  0931  3401               	retlw	1
  1915  0932  3401               	retlw	1
  1916  0933  3401               	retlw	1
  1917  0934  3401               	retlw	1
  1918  0935  3401               	retlw	1
  1919  0936  3401               	retlw	1
  1920  0937  3401               	retlw	1
  1921  0938  3401               	retlw	1
  1922  0939  3401               	retlw	1
  1923  093A  3401               	retlw	1
  1924  093B  3401               	retlw	1
  1925  093C  3401               	retlw	1
  1926  093D  3401               	retlw	1
  1927  093E  3401               	retlw	1
  1928  093F  3401               	retlw	1
  1929  0940  3401               	retlw	1
  1930  0941  3401               	retlw	1
  1931  0942  3401               	retlw	1
  1932  0943  3401               	retlw	1
  1933  0944  3401               	retlw	1
  1934  0945  3401               	retlw	1
  1935  0946  3401               	retlw	1
  1936  0947  3401               	retlw	1
  1937  0948  3401               	retlw	1
  1938  0949  3401               	retlw	1
  1939  094A  3481               	retlw	129
  1940  094B  34C1               	retlw	193
  1941  094C  34C1               	retlw	193
  1942  094D  34C1               	retlw	193
  1943  094E  3481               	retlw	129
  1944  094F  3401               	retlw	1
  1945  0950  3401               	retlw	1
  1946  0951  3401               	retlw	1
  1947  0952  3481               	retlw	129
  1948  0953  34C1               	retlw	193
  1949  0954  34C1               	retlw	193
  1950  0955  34C1               	retlw	193
  1951  0956  34C1               	retlw	193
  1952  0957  3401               	retlw	1
  1953  0958  34C1               	retlw	193
  1954  0959  34E1               	retlw	225
  1955  095A  3461               	retlw	97
  1956  095B  34E1               	retlw	225
  1957  095C  34C1               	retlw	193
  1958  095D  3481               	retlw	129
  1959  095E  3401               	retlw	1
  1960  095F  3481               	retlw	129
  1961  0960  34C1               	retlw	193
  1962  0961  34C1               	retlw	193
  1963  0962  3481               	retlw	129
  1964  0963  3481               	retlw	129
  1965  0964  3401               	retlw	1
  1966  0965  3401               	retlw	1
  1967  0966  3401               	retlw	1
  1968  0967  3401               	retlw	1
  1969  0968  3401               	retlw	1
  1970  0969  3401               	retlw	1
  1971  096A  3401               	retlw	1
  1972  096B  3401               	retlw	1
  1973  096C  3401               	retlw	1
  1974  096D  3401               	retlw	1
  1975  096E  3401               	retlw	1
  1976  096F  3401               	retlw	1
  1977  0970  3401               	retlw	1
  1978  0971  3401               	retlw	1
  1979  0972  3401               	retlw	1
  1980  0973  3401               	retlw	1
  1981  0974  3401               	retlw	1
  1982  0975  3401               	retlw	1
  1983  0976  3401               	retlw	1
  1984  0977  3401               	retlw	1
  1985  0978  3401               	retlw	1
  1986  0979  3401               	retlw	1
  1987  097A  3401               	retlw	1
  1988  097B  3401               	retlw	1
  1989  097C  3401               	retlw	1
  1990  097D  3401               	retlw	1
  1991  097E  3401               	retlw	1
  1992  097F  3401               	retlw	1
  1993  0980  3401               	retlw	1
  1994  0981  3401               	retlw	1
  1995  0982  34FF               	retlw	255
  1996  0983  34FF               	retlw	255
  1997  0984  3400               	retlw	0
  1998  0985  3400               	retlw	0
  1999  0986  3400               	retlw	0
  2000  0987  3400               	retlw	0
  2001  0988  3400               	retlw	0
  2002  0989  3400               	retlw	0
  2003  098A  3400               	retlw	0
  2004  098B  3400               	retlw	0
  2005  098C  3400               	retlw	0
  2006  098D  3400               	retlw	0
  2007  098E  3400               	retlw	0
  2008  098F  3400               	retlw	0
  2009  0990  3400               	retlw	0
  2010  0991  3400               	retlw	0
  2011  0992  3400               	retlw	0
  2012  0993  3400               	retlw	0
  2013  0994  3400               	retlw	0
  2014  0995  34C0               	retlw	192
  2015  0996  3440               	retlw	64
  2016  0997  34E0               	retlw	224
  2017  0998  34B0               	retlw	176
  2018  0999  3410               	retlw	16
  2019  099A  3400               	retlw	0
  2020  099B  341C               	retlw	28
  2021  099C  343E               	retlw	62
  2022  099D  347E               	retlw	126
  2023  099E  347F               	retlw	127
  2024  099F  347F               	retlw	127
  2025  09A0  347F               	retlw	127
  2026  09A1  347F               	retlw	127
  2027  09A2  347F               	retlw	127
  2028  09A3  347F               	retlw	127
  2029  09A4  3400               	retlw	0
  2030  09A5  3400               	retlw	0
  2031  09A6  3407               	retlw	7
  2032  09A7  340F               	retlw	15
  2033  09A8  340C               	retlw	12
  2034  09A9  340C               	retlw	12
  2035  09AA  3404               	retlw	4
  2036  09AB  3400               	retlw	0
  2037  09AC  3407               	retlw	7
  2038  09AD  340F               	retlw	15
  2039  09AE  340C               	retlw	12
  2040  09AF  340C               	retlw	12
  2041  09B0  340F               	retlw	15
  2042  09B1  3407               	retlw	7
  2043  09B2  341C               	retlw	28
  2044  09B3  341F               	retlw	31
  2045  09B4  3407               	retlw	7
  2046  09B5  3406               	retlw	6
  2047  09B6  3406               	retlw	6
  2048  09B7  3470               	retlw	112
  2049  09B8  343C               	retlw	60
  2050  09B9  341F               	retlw	31
  2051  09BA  340B               	retlw	11
  2052  09BB  341B               	retlw	27
  2053  09BC  34E6               	retlw	230
  2054  09BD  34F2               	retlw	242
  2055  09BE  34BC               	retlw	188
  2056  09BF  346C               	retlw	108
  2057  09C0  3438               	retlw	56
  2058  09C1  3498               	retlw	152
  2059  09C2  34D0               	retlw	208
  2060  09C3  34E0               	retlw	224
  2061  09C4  34B0               	retlw	176
  2062  09C5  3460               	retlw	96
  2063  09C6  3440               	retlw	64
  2064  09C7  3440               	retlw	64
  2065  09C8  3400               	retlw	0
  2066  09C9  3400               	retlw	0
  2067  09CA  3400               	retlw	0
  2068  09CB  3400               	retlw	0
  2069  09CC  3400               	retlw	0
  2070  09CD  3400               	retlw	0
  2071  09CE  3400               	retlw	0
  2072  09CF  3400               	retlw	0
  2073  09D0  3400               	retlw	0
  2074  09D1  3400               	retlw	0
  2075  09D2  3400               	retlw	0
  2076  09D3  3400               	retlw	0
  2077  09D4  3400               	retlw	0
  2078  09D5  3400               	retlw	0
  2079  09D6  34FF               	retlw	255
  2080  09D7  34FF               	retlw	255
  2081  09D8  3400               	retlw	0
  2082  09D9  3400               	retlw	0
  2083  09DA  3400               	retlw	0
  2084  09DB  3400               	retlw	0
  2085  09DC  3400               	retlw	0
  2086  09DD  3400               	retlw	0
  2087  09DE  3400               	retlw	0
  2088  09DF  3400               	retlw	0
  2089  09E0  3400               	retlw	0
  2090  09E1  3400               	retlw	0
  2091  09E2  3400               	retlw	0
  2092  09E3  3400               	retlw	0
  2093  09E4  3400               	retlw	0
  2094  09E5  3400               	retlw	0
  2095  09E6  3400               	retlw	0
  2096  09E7  3400               	retlw	0
  2097  09E8  3400               	retlw	0
  2098  09E9  3400               	retlw	0
  2099  09EA  3400               	retlw	0
  2100  09EB  3400               	retlw	0
  2101  09EC  340D               	retlw	13
  2102  09ED  340F               	retlw	15
  2103  09EE  3406               	retlw	6
  2104  09EF  3407               	retlw	7
  2105  09F0  3403               	retlw	3
  2106  09F1  3400               	retlw	0
  2107  09F2  3400               	retlw	0
  2108  09F3  3400               	retlw	0
  2109  09F4  3400               	retlw	0
  2110  09F5  3400               	retlw	0
  2111  09F6  3400               	retlw	0
  2112  09F7  3400               	retlw	0
  2113  09F8  3400               	retlw	0
  2114  09F9  3400               	retlw	0
  2115  09FA  3400               	retlw	0
  2116  09FB  3400               	retlw	0
  2117  09FC  3400               	retlw	0
  2118  09FD  3400               	retlw	0
  2119  09FE  34C0               	retlw	192
  2120  09FF  34F0               	retlw	240
  2121  0A00  3477               	retlw	119
  2122  0A01  341F               	retlw	31
  2123  0A02  34C8               	retlw	200
  2124  0A03  34C0               	retlw	192
  2125  0A04  3400               	retlw	0
  2126  0A05  3400               	retlw	0
  2127  0A06  3400               	retlw	0
  2128  0A07  3400               	retlw	0
  2129  0A08  3400               	retlw	0
  2130  0A09  3400               	retlw	0
  2131  0A0A  3400               	retlw	0
  2132  0A0B  3400               	retlw	0
  2133  0A0C  3400               	retlw	0
  2134  0A0D  3400               	retlw	0
  2135  0A0E  3400               	retlw	0
  2136  0A0F  3400               	retlw	0
  2137  0A10  3400               	retlw	0
  2138  0A11  3401               	retlw	1
  2139  0A12  3401               	retlw	1
  2140  0A13  3400               	retlw	0
  2141  0A14  3407               	retlw	7
  2142  0A15  3407               	retlw	7
  2143  0A16  340C               	retlw	12
  2144  0A17  340C               	retlw	12
  2145  0A18  3401               	retlw	1
  2146  0A19  3401               	retlw	1
  2147  0A1A  3400               	retlw	0
  2148  0A1B  3400               	retlw	0
  2149  0A1C  3400               	retlw	0
  2150  0A1D  3400               	retlw	0
  2151  0A1E  3400               	retlw	0
  2152  0A1F  3400               	retlw	0
  2153  0A20  3400               	retlw	0
  2154  0A21  3400               	retlw	0
  2155  0A22  3400               	retlw	0
  2156  0A23  3400               	retlw	0
  2157  0A24  3400               	retlw	0
  2158  0A25  3400               	retlw	0
  2159  0A26  3400               	retlw	0
  2160  0A27  3400               	retlw	0
  2161  0A28  3400               	retlw	0
  2162  0A29  3400               	retlw	0
  2163  0A2A  34FF               	retlw	255
  2164  0A2B  34FF               	retlw	255
  2165  0A2C  3400               	retlw	0
  2166  0A2D  3400               	retlw	0
  2167  0A2E  3400               	retlw	0
  2168  0A2F  3400               	retlw	0
  2169  0A30  3400               	retlw	0
  2170  0A31  3400               	retlw	0
  2171  0A32  3400               	retlw	0
  2172  0A33  3400               	retlw	0
  2173  0A34  3400               	retlw	0
  2174  0A35  3400               	retlw	0
  2175  0A36  3400               	retlw	0
  2176  0A37  3400               	retlw	0
  2177  0A38  3400               	retlw	0
  2178  0A39  3400               	retlw	0
  2179  0A3A  3400               	retlw	0
  2180  0A3B  3400               	retlw	0
  2181  0A3C  3400               	retlw	0
  2182  0A3D  3400               	retlw	0
  2183  0A3E  3400               	retlw	0
  2184  0A3F  3400               	retlw	0
  2185  0A40  3400               	retlw	0
  2186  0A41  3400               	retlw	0
  2187  0A42  3400               	retlw	0
  2188  0A43  3400               	retlw	0
  2189  0A44  3400               	retlw	0
  2190  0A45  3400               	retlw	0
  2191  0A46  3400               	retlw	0
  2192  0A47  3400               	retlw	0
  2193  0A48  3400               	retlw	0
  2194  0A49  3480               	retlw	128
  2195  0A4A  3480               	retlw	128
  2196  0A4B  3480               	retlw	128
  2197  0A4C  3480               	retlw	128
  2198  0A4D  34C0               	retlw	192
  2199  0A4E  34C0               	retlw	192
  2200  0A4F  34C0               	retlw	192
  2201  0A50  34C0               	retlw	192
  2202  0A51  34DE               	retlw	222
  2203  0A52  34FF               	retlw	255
  2204  0A53  34F1               	retlw	241
  2205  0A54  34E0               	retlw	224
  2206  0A55  34C0               	retlw	192
  2207  0A56  34E1               	retlw	225
  2208  0A57  34FF               	retlw	255
  2209  0A58  34DF               	retlw	223
  2210  0A59  34C4               	retlw	196
  2211  0A5A  34C0               	retlw	192
  2212  0A5B  34C0               	retlw	192
  2213  0A5C  34C0               	retlw	192
  2214  0A5D  34C0               	retlw	192
  2215  0A5E  34C0               	retlw	192
  2216  0A5F  34C0               	retlw	192
  2217  0A60  34C0               	retlw	192
  2218  0A61  3400               	retlw	0
  2219  0A62  3400               	retlw	0
  2220  0A63  3400               	retlw	0
  2221  0A64  3400               	retlw	0
  2222  0A65  3400               	retlw	0
  2223  0A66  3400               	retlw	0
  2224  0A67  3400               	retlw	0
  2225  0A68  3400               	retlw	0
  2226  0A69  3400               	retlw	0
  2227  0A6A  3400               	retlw	0
  2228  0A6B  3400               	retlw	0
  2229  0A6C  3400               	retlw	0
  2230  0A6D  3400               	retlw	0
  2231  0A6E  3400               	retlw	0
  2232  0A6F  3400               	retlw	0
  2233  0A70  3400               	retlw	0
  2234  0A71  3400               	retlw	0
  2235  0A72  3400               	retlw	0
  2236  0A73  3400               	retlw	0
  2237  0A74  3400               	retlw	0
  2238  0A75  3400               	retlw	0
  2239  0A76  3400               	retlw	0
  2240  0A77  3400               	retlw	0
  2241  0A78  3400               	retlw	0
  2242  0A79  3400               	retlw	0
  2243  0A7A  3400               	retlw	0
  2244  0A7B  3400               	retlw	0
  2245  0A7C  3400               	retlw	0
  2246  0A7D  3400               	retlw	0
  2247  0A7E  34FF               	retlw	255
  2248  0A7F  34FF               	retlw	255
  2249  0A80  3400               	retlw	0
  2250  0A81  3400               	retlw	0
  2251  0A82  3400               	retlw	0
  2252  0A83  3400               	retlw	0
  2253  0A84  3400               	retlw	0
  2254  0A85  3400               	retlw	0
  2255  0A86  3400               	retlw	0
  2256  0A87  3400               	retlw	0
  2257  0A88  3400               	retlw	0
  2258  0A89  3400               	retlw	0
  2259  0A8A  3400               	retlw	0
  2260  0A8B  3400               	retlw	0
  2261  0A8C  3400               	retlw	0
  2262  0A8D  3400               	retlw	0
  2263  0A8E  3400               	retlw	0
  2264  0A8F  3400               	retlw	0
  2265  0A90  3400               	retlw	0
  2266  0A91  3400               	retlw	0
  2267  0A92  3400               	retlw	0
  2268  0A93  3400               	retlw	0
  2269  0A94  3400               	retlw	0
  2270  0A95  3400               	retlw	0
  2271  0A96  3400               	retlw	0
  2272  0A97  3400               	retlw	0
  2273  0A98  3400               	retlw	0
  2274  0A99  3400               	retlw	0
  2275  0A9A  3400               	retlw	0
  2276  0A9B  3400               	retlw	0
  2277  0A9C  3400               	retlw	0
  2278  0A9D  34C7               	retlw	199
  2279  0A9E  34CF               	retlw	207
  2280  0A9F  349D               	retlw	157
  2281  0AA0  3491               	retlw	145
  2282  0AA1  34B7               	retlw	183
  2283  0AA2  34BF               	retlw	191
  2284  0AA3  34B8               	retlw	184
  2285  0AA4  34E0               	retlw	224
  2286  0AA5  34C0               	retlw	192
  2287  0AA6  3480               	retlw	128
  2288  0AA7  3480               	retlw	128
  2289  0AA8  3480               	retlw	128
  2290  0AA9  3480               	retlw	128
  2291  0AAA  3480               	retlw	128
  2292  0AAB  3480               	retlw	128
  2293  0AAC  3480               	retlw	128
  2294  0AAD  3480               	retlw	128
  2295  0AAE  34C0               	retlw	192
  2296  0AAF  34C0               	retlw	192
  2297  0AB0  34E0               	retlw	224
  2298  0AB1  34B8               	retlw	184
  2299  0AB2  349F               	retlw	159
  2300  0AB3  3487               	retlw	135
  2301  0AB4  34C1               	retlw	193
  2302  0AB5  34C0               	retlw	192
  2303  0AB6  3460               	retlw	96
  2304  0AB7  3400               	retlw	0
  2305  0AB8  3400               	retlw	0
  2306  0AB9  3400               	retlw	0
  2307  0ABA  3400               	retlw	0
  2308  0ABB  3400               	retlw	0
  2309  0ABC  3400               	retlw	0
  2310  0ABD  3400               	retlw	0
  2311  0ABE  3400               	retlw	0
  2312  0ABF  3400               	retlw	0
  2313  0AC0  3400               	retlw	0
  2314  0AC1  3400               	retlw	0
  2315  0AC2  3400               	retlw	0
  2316  0AC3  3400               	retlw	0
  2317  0AC4  3400               	retlw	0
  2318  0AC5  3400               	retlw	0
  2319  0AC6  3400               	retlw	0
  2320  0AC7  3400               	retlw	0
  2321  0AC8  3400               	retlw	0
  2322  0AC9  3400               	retlw	0
  2323  0ACA  3400               	retlw	0
  2324  0ACB  3400               	retlw	0
  2325  0ACC  3400               	retlw	0
  2326  0ACD  3400               	retlw	0
  2327  0ACE  3400               	retlw	0
  2328  0ACF  3400               	retlw	0
  2329  0AD0  3400               	retlw	0
  2330  0AD1  3400               	retlw	0
  2331  0AD2  34FF               	retlw	255
  2332  0AD3  34FF               	retlw	255
  2333  0AD4  3480               	retlw	128
  2334  0AD5  3480               	retlw	128
  2335  0AD6  3480               	retlw	128
  2336  0AD7  3480               	retlw	128
  2337  0AD8  3480               	retlw	128
  2338  0AD9  3480               	retlw	128
  2339  0ADA  3480               	retlw	128
  2340  0ADB  3480               	retlw	128
  2341  0ADC  3480               	retlw	128
  2342  0ADD  3480               	retlw	128
  2343  0ADE  3480               	retlw	128
  2344  0ADF  3480               	retlw	128
  2345  0AE0  3480               	retlw	128
  2346  0AE1  3480               	retlw	128
  2347  0AE2  3480               	retlw	128
  2348  0AE3  3480               	retlw	128
  2349  0AE4  3480               	retlw	128
  2350  0AE5  3480               	retlw	128
  2351  0AE6  3480               	retlw	128
  2352  0AE7  3480               	retlw	128
  2353  0AE8  3480               	retlw	128
  2354  0AE9  3480               	retlw	128
  2355  0AEA  3480               	retlw	128
  2356  0AEB  3480               	retlw	128
  2357  0AEC  3480               	retlw	128
  2358  0AED  3480               	retlw	128
  2359  0AEE  3480               	retlw	128
  2360  0AEF  3480               	retlw	128
  2361  0AF0  3480               	retlw	128
  2362  0AF1  3480               	retlw	128
  2363  0AF2  3481               	retlw	129
  2364  0AF3  3483               	retlw	131
  2365  0AF4  3483               	retlw	131
  2366  0AF5  3483               	retlw	131
  2367  0AF6  3483               	retlw	131
  2368  0AF7  3483               	retlw	131
  2369  0AF8  3483               	retlw	131
  2370  0AF9  3483               	retlw	131
  2371  0AFA  3483               	retlw	131
  2372  0AFB  3483               	retlw	131
  2373  0AFC  3483               	retlw	131
  2374  0AFD  3483               	retlw	131
  2375  0AFE  3483               	retlw	131
  2376  0AFF  3483               	retlw	131
  2377  0B00  3483               	retlw	131
  2378  0B01  3483               	retlw	131
  2379  0B02  3483               	retlw	131
  2380  0B03  3483               	retlw	131
  2381  0B04  3483               	retlw	131
  2382  0B05  3483               	retlw	131
  2383  0B06  3483               	retlw	131
  2384  0B07  3483               	retlw	131
  2385  0B08  3481               	retlw	129
  2386  0B09  3481               	retlw	129
  2387  0B0A  3480               	retlw	128
  2388  0B0B  3480               	retlw	128
  2389  0B0C  3480               	retlw	128
  2390  0B0D  3480               	retlw	128
  2391  0B0E  3480               	retlw	128
  2392  0B0F  3480               	retlw	128
  2393  0B10  3480               	retlw	128
  2394  0B11  3480               	retlw	128
  2395  0B12  3480               	retlw	128
  2396  0B13  3480               	retlw	128
  2397  0B14  3480               	retlw	128
  2398  0B15  3480               	retlw	128
  2399  0B16  3480               	retlw	128
  2400  0B17  3480               	retlw	128
  2401  0B18  3480               	retlw	128
  2402  0B19  3480               	retlw	128
  2403  0B1A  3480               	retlw	128
  2404  0B1B  3480               	retlw	128
  2405  0B1C  3480               	retlw	128
  2406  0B1D  3480               	retlw	128
  2407  0B1E  3480               	retlw	128
  2408  0B1F  3480               	retlw	128
  2409  0B20  3480               	retlw	128
  2410  0B21  3480               	retlw	128
  2411  0B22  3480               	retlw	128
  2412  0B23  3480               	retlw	128
  2413  0B24  3480               	retlw	128
  2414  0B25  3480               	retlw	128
  2415  0B26  34FF               	retlw	255
  2416  0B27                     __end_of_coffee:	
  2417  0013                     _TRISC	set	19
  2418  0012                     _TRISB	set	18
  2419  0011                     _TRISA	set	17
  2420  0018                     _LATC	set	24
  2421  0017                     _LATB	set	23
  2422  0016                     _LATA	set	22
  2423  0018                     _LATCbits	set	24
  2424  0013                     _TRISCbits	set	19
  2425  0F4E                     _ANSELC	set	3918
  2426  0F43                     _ANSELB	set	3907
  2427  0F38                     _ANSELA	set	3896
  2428  0B27                     STR_1:	
  2429  0B27  3448               	retlw	72	;'H'
  2430  0B28  3465               	retlw	101	;'e'
  2431  0B29  346C               	retlw	108	;'l'
  2432  0B2A  346C               	retlw	108	;'l'
  2433  0B2B  346F               	retlw	111	;'o'
  2434  0B2C  3420               	retlw	32	;' '
  2435  0B2D  3457               	retlw	87	;'W'
  2436  0B2E  346F               	retlw	111	;'o'
  2437  0B2F  3472               	retlw	114	;'r'
  2438  0B30  346C               	retlw	108	;'l'
  2439  0B31  3464               	retlw	100	;'d'
  2440  0B32  3421               	retlw	33	;'!'
  2441  0B33  3400               	retlw	0
  2442  0B34                     STR_2:	
  2443  0B34  3448               	retlw	72	;'H'
  2444  0B35  3465               	retlw	101	;'e'
  2445  0B36  346C               	retlw	108	;'l'
  2446  0B37  346C               	retlw	108	;'l'
  2447  0B38  346F               	retlw	111	;'o'
  2448  0B39  3420               	retlw	32	;' '
  2449  0B3A  3441               	retlw	65	;'A'
  2450  0B3B  3467               	retlw	103	;'g'
  2451  0B3C  3461               	retlw	97	;'a'
  2452  0B3D  3469               	retlw	105	;'i'
  2453  0B3E  346E               	retlw	110	;'n'
  2454  0B3F  3400               	retlw	0
  2455                           
  2456                           ; #config settings
  2457  0000                     
  2458                           	psect	cinit
  2459  07FB                     start_initialization:	
  2460  07FB                     __initialization:	
  2461                           
  2462                           ; Clear objects allocated to BANK0
  2463  07FB  01A9               	clrf	__pbssBANK0& (0+127)
  2464  07FC  01AA               	clrf	(__pbssBANK0+1)& (0+127)
  2465  07FD                     end_of_initialization:	
  2466                           ;End of C runtime variable initialization code
  2467                           
  2468  07FD                     __end_of__initialization:	
  2469  07FD  0020               	movlb	0
  2470  07FE  3186  2EC3         	ljmp	_main	;jump to C main() function
  2471                           
  2472                           	psect	bssBANK0
  2473  0029                     __pbssBANK0:	
  2474  0029                     _y:	
  2475  0029                     	ds	1
  2476  002A                     _x:	
  2477  002A                     	ds	1
  2478                           
  2479                           	psect	cstackCOMMON
  2480  0070                     __pcstackCOMMON:	
  2481  0070                     ?_LCDCharacter:	
  2482  0070                     ?_LCDClear:	
  2483                           ; 1 bytes @ 0x0
  2484                           
  2485  0070                     ?_LCDInit:	
  2486                           ; 1 bytes @ 0x0
  2487                           
  2488  0070                     ?_drawBox:	
  2489                           ; 1 bytes @ 0x0
  2490                           
  2491  0070                     ?_main:	
  2492                           ; 1 bytes @ 0x0
  2493                           
  2494  0070                     ?___wmul:	
  2495                           ; 2 bytes @ 0x0
  2496                           
  2497  0070                     ___wmul@multiplier:	
  2498                           ; 2 bytes @ 0x0
  2499                           
  2500                           
  2501                           ; 2 bytes @ 0x0
  2502  0070                     	ds	2
  2503  0072                     ___wmul@multiplicand:	
  2504                           
  2505                           ; 2 bytes @ 0x2
  2506  0072                     	ds	2
  2507  0074                     ??___wmul:	
  2508  0074                     ___wmul@product:	
  2509                           ; 1 bytes @ 0x4
  2510                           
  2511                           
  2512                           ; 2 bytes @ 0x4
  2513  0074                     	ds	2
  2514  0076                     ?_LCDWrite:	
  2515  0076                     LCDWrite@data:	
  2516                           ; 1 bytes @ 0x6
  2517                           
  2518                           
  2519                           ; 1 bytes @ 0x6
  2520  0076                     	ds	1
  2521  0077                     ??_LCDWrite:	
  2522                           
  2523                           ; 1 bytes @ 0x7
  2524  0077                     	ds	1
  2525  0078                     LCDWrite@data_or_command:	
  2526                           
  2527                           ; 1 bytes @ 0x8
  2528  0078                     	ds	1
  2529  0079                     LCDWrite@d:	
  2530                           
  2531                           ; 1 bytes @ 0x9
  2532  0079                     	ds	1
  2533  007A                     LCDWrite@i:	
  2534                           
  2535                           ; 1 bytes @ 0xA
  2536  007A                     	ds	1
  2537  007B                     ?_gotoXY:	
  2538  007B                     ?_LCDBitmap:	
  2539                           ; 1 bytes @ 0xB
  2540                           
  2541  007B                     ??_LCDInit:	
  2542                           ; 1 bytes @ 0xB
  2543                           
  2544  007B                     gotoXY@y:	
  2545                           ; 1 bytes @ 0xB
  2546                           
  2547  007B                     LCDCharacter@character:	
  2548                           ; 1 bytes @ 0xB
  2549                           
  2550  007B                     LCDBitmap@my_array:	
  2551                           ; 1 bytes @ 0xB
  2552                           
  2553                           
  2554                           ; 2 bytes @ 0xB
  2555  007B                     	ds	1
  2556  007C                     ??_gotoXY:	
  2557  007C                     LCDCharacter@index:	
  2558                           ; 1 bytes @ 0xC
  2559                           
  2560                           
  2561                           ; 2 bytes @ 0xC
  2562  007C                     	ds	1
  2563  007D                     ??_LCDBitmap:	
  2564  007D                     gotoXY@x:	
  2565                           ; 1 bytes @ 0xD
  2566                           
  2567                           
  2568                           ; 1 bytes @ 0xD
  2569  007D                     	ds	1
  2570                           
  2571                           	psect	cstackBANK0
  2572  0020                     __pcstackBANK0:	
  2573  0020                     ??_LCDCharacter:	
  2574  0020                     ??_LCDClear:	
  2575                           ; 1 bytes @ 0x0
  2576                           
  2577  0020                     ??_drawBox:	
  2578                           ; 1 bytes @ 0x0
  2579                           
  2580  0020                     LCDBitmap@index:	
  2581                           ; 1 bytes @ 0x0
  2582                           
  2583                           
  2584                           ; 2 bytes @ 0x0
  2585  0020                     	ds	1
  2586  0021                     LCDClear@index:	
  2587  0021                     drawBox@j:	
  2588                           ; 2 bytes @ 0x1
  2589                           
  2590                           
  2591                           ; 2 bytes @ 0x1
  2592  0021                     	ds	4
  2593  0025                     ?_LCDString:	
  2594  0025                     LCDString@characters:	
  2595                           ; 1 bytes @ 0x5
  2596                           
  2597                           
  2598                           ; 2 bytes @ 0x5
  2599  0025                     	ds	2
  2600  0027                     ??_LCDString:	
  2601                           
  2602                           ; 1 bytes @ 0x7
  2603  0027                     	ds	1
  2604  0028                     ??_main:	
  2605                           
  2606                           ; 1 bytes @ 0x8
  2607  0028                     	ds	1
  2608                           
  2609                           	psect	maintext
  2610  06C3                     __pmaintext:	
  2611 ;;
  2612 ;;Main: autosize = 0, tempsize = 1, incstack = 0, save=0
  2613 ;;
  2614 ;; *************** function _main *****************
  2615 ;; Defined at:
  2616 ;;		line 10 in file "main.c"
  2617 ;; Parameters:    Size  Location     Type
  2618 ;;		None
  2619 ;; Auto vars:     Size  Location     Type
  2620 ;;		None
  2621 ;; Return value:  Size  Location     Type
  2622 ;;                  2   92[None  ] int 
  2623 ;; Registers used:
  2624 ;;		wreg, fsr0l, fsr0h, status,2, status,0, pclath, cstack
  2625 ;; Tracked objects:
  2626 ;;		On entry : B1F/0
  2627 ;;		On exit  : 0/0
  2628 ;;		Unchanged: 0/0
  2629 ;; Data sizes:     COMMON   BANK0   BANK1   BANK2   BANK3   BANK4   BANK5   BANK6   BANK7   BANK8   BANK9  BANK10  BANK1
      +1  BANK12
  2630 ;;      Params:         0       0       0       0       0       0       0       0       0       0       0       0       
      +0       0
  2631 ;;      Locals:         0       0       0       0       0       0       0       0       0       0       0       0       
      +0       0
  2632 ;;      Temps:          0       1       0       0       0       0       0       0       0       0       0       0       
      +0       0
  2633 ;;      Totals:         0       1       0       0       0       0       0       0       0       0       0       0       
      +0       0
  2634 ;;Total ram usage:        1 bytes
  2635 ;; Hardware stack levels required when called:    3
  2636 ;; This function calls:
  2637 ;;		_LCDBitmap
  2638 ;;		_LCDClear
  2639 ;;		_LCDInit
  2640 ;;		_LCDString
  2641 ;;		_drawBox
  2642 ;;		_gotoXY
  2643 ;; This function is called by:
  2644 ;;		Startup code after reset
  2645 ;; This function uses a non-reentrant model
  2646 ;;
  2647                           
  2648                           
  2649                           ;psect for function _main
  2650  06C3                     _main:	
  2651                           
  2652                           ;main.c: 12: LATA = 0x00;
  2653                           
  2654                           ;incstack = 0
  2655                           ; Regs used in _main: [wreg-fsr0h+status,2+status,0+pclath+cstack]
  2656  06C3  0020               	movlb	0	; select bank0
  2657  06C4  0196               	clrf	22	;volatile
  2658                           
  2659                           ;main.c: 13: LATB = 0x00;
  2660  06C5  0197               	clrf	23	;volatile
  2661                           
  2662                           ;main.c: 14: LATC = 0x00;
  2663  06C6  0198               	clrf	24	;volatile
  2664                           
  2665                           ;main.c: 16: TRISA = 0x00;
  2666  06C7  0191               	clrf	17	;volatile
  2667                           
  2668                           ;main.c: 17: TRISB = 0x00;
  2669  06C8  0192               	clrf	18	;volatile
  2670                           
  2671                           ;main.c: 18: TRISC = 0x00;
  2672  06C9  0193               	clrf	19	;volatile
  2673                           
  2674                           ;main.c: 20: ANSELA = 0x00;
  2675  06CA  003E               	movlb	30	; select bank30
  2676  06CB  01B8               	clrf	56	;volatile
  2677                           
  2678                           ;main.c: 21: ANSELB = 0x00;
  2679  06CC  01C3               	clrf	67	;volatile
  2680                           
  2681                           ;main.c: 22: ANSELC = 0x00;
  2682  06CD  01CE               	clrf	78	;volatile
  2683                           
  2684                           ;main.c: 25: LCDInit();
  2685  06CE  3186  2688  3186   	fcall	_LCDInit
  2686                           
  2687                           ;main.c: 27: LCDClear();
  2688  06D1  3186  2660  3186   	fcall	_LCDClear
  2689                           
  2690                           ;main.c: 29: drawBox();
  2691  06D4  3187  274B  3186   	fcall	_drawBox
  2692                           
  2693                           ;main.c: 31: gotoXY(65,4);
  2694  06D7  3004               	movlw	4
  2695  06D8  0020               	movlb	0	; select bank0
  2696  06D9  00A8               	movwf	??_main
  2697  06DA  0828               	movf	??_main,w
  2698  06DB  00FB               	movwf	gotoXY@y
  2699  06DC  3041               	movlw	65
  2700  06DD  3185  25D3  3186   	fcall	_gotoXY
  2701                           
  2702                           ;main.c: 33: LCDString("Hello World!");
  2703  06E0  3027               	movlw	low (STR_1| (0+32768))
  2704  06E1  0020               	movlb	0	; select bank0
  2705  06E2  00A5               	movwf	LCDString@characters
  2706  06E3  308B               	movlw	high (STR_1| (0+32768))
  2707  06E4  00A6               	movwf	LCDString@characters+1
  2708  06E5  3185  25E6  3186   	fcall	_LCDString
  2709                           
  2710                           ;main.c: 35: gotoXY(0,0);
  2711  06E8  01FB               	clrf	gotoXY@y
  2712  06E9  3000               	movlw	0
  2713  06EA  3185  25D3  3186   	fcall	_gotoXY
  2714                           
  2715                           ;main.c: 37: LCDString("Hello Again");
  2716  06ED  3034               	movlw	low (STR_2| (0+32768))
  2717  06EE  0020               	movlb	0	; select bank0
  2718  06EF  00A5               	movwf	LCDString@characters
  2719  06F0  308B               	movlw	high (STR_2| (0+32768))
  2720  06F1  00A6               	movwf	LCDString@characters+1
  2721  06F2  3185  25E6  3186   	fcall	_LCDString
  2722                           
  2723                           ;main.c: 39: LCDClear();
  2724  06F5  3186  2660  3186   	fcall	_LCDClear
  2725                           
  2726                           ;main.c: 41: LCDBitmap(coffee);
  2727  06F8  302F               	movlw	low (_coffee| (0+32768))
  2728  06F9  00FB               	movwf	LCDBitmap@my_array
  2729  06FA  3089               	movlw	high (_coffee| (0+32768))
  2730  06FB  00FC               	movwf	LCDBitmap@my_array+1
  2731  06FC  3186  2618  3186   	fcall	_LCDBitmap
  2732  06FF                     l93:	
  2733                           ;main.c: 45: while(1)
  2734                           
  2735                           
  2736                           ;main.c: 46: {
  2737                           ;main.c: 47: ;
  2738  06FF  2EFF               	goto	l93
  2739  0700                     __end_of_main:	
  2740                           ;main.c: 48: }
  2741                           ;main.c: 49: return (0);
  2742                           ;	Return value of _main is never used
  2743                           
  2744                           
  2745                           	psect	text1
  2746  074B                     __ptext1:	
  2747 ;; *************** function _drawBox *****************
  2748 ;; Defined at:
  2749 ;;		line 336 in file "5110lcd.c"
  2750 ;; Parameters:    Size  Location     Type
  2751 ;;		None
  2752 ;; Auto vars:     Size  Location     Type
  2753 ;;  j               2    1[BANK0 ] int 
  2754 ;; Return value:  Size  Location     Type
  2755 ;;                  1    wreg      void 
  2756 ;; Registers used:
  2757 ;;		wreg, status,2, status,0, pclath, cstack
  2758 ;; Tracked objects:
  2759 ;;		On entry : 0/0
  2760 ;;		On exit  : 0/0
  2761 ;;		Unchanged: 0/0
  2762 ;; Data sizes:     COMMON   BANK0   BANK1   BANK2   BANK3   BANK4   BANK5   BANK6   BANK7   BANK8   BANK9  BANK10  BANK1
      +1  BANK12
  2763 ;;      Params:         0       0       0       0       0       0       0       0       0       0       0       0       
      +0       0
  2764 ;;      Locals:         0       2       0       0       0       0       0       0       0       0       0       0       
      +0       0
  2765 ;;      Temps:          0       1       0       0       0       0       0       0       0       0       0       0       
      +0       0
  2766 ;;      Totals:         0       3       0       0       0       0       0       0       0       0       0       0       
      +0       0
  2767 ;;Total ram usage:        3 bytes
  2768 ;; Hardware stack levels used:    1
  2769 ;; Hardware stack levels required when called:    2
  2770 ;; This function calls:
  2771 ;;		_LCDWrite
  2772 ;;		_gotoXY
  2773 ;; This function is called by:
  2774 ;;		_main
  2775 ;; This function uses a non-reentrant model
  2776 ;;
  2777                           
  2778                           
  2779                           ;psect for function _drawBox
  2780  074B                     _drawBox:	
  2781                           
  2782                           ;5110lcd.c: 338: int j;
  2783                           ;5110lcd.c: 340: for(j = 0; j < 84; j++)
  2784                           
  2785                           ;incstack = 0
  2786                           ; Regs used in _drawBox: [wreg+status,2+status,0+pclath+cstack]
  2787  074B  0020               	movlb	0	; select bank0
  2788  074C  01A1               	clrf	drawBox@j
  2789  074D  01A2               	clrf	drawBox@j+1
  2790  074E  0822               	movf	drawBox@j+1,w
  2791  074F  3A80               	xorlw	128
  2792  0750  00A0               	movwf	??_drawBox
  2793  0751  3080               	movlw	128
  2794  0752  0220               	subwf	??_drawBox,w
  2795  0753  1D03               	skipz
  2796  0754  2F57               	goto	u395
  2797  0755  3054               	movlw	84
  2798  0756  0221               	subwf	drawBox@j,w
  2799  0757                     u395:	
  2800  0757  1803               	btfsc	3,0
  2801  0758  2F75               	goto	l814
  2802  0759                     l808:	
  2803                           
  2804                           ;5110lcd.c: 341: {
  2805                           ;5110lcd.c: 342: gotoXY(j, 0);
  2806  0759  01FB               	clrf	gotoXY@y
  2807  075A  0020               	movlb	0	; select bank0
  2808  075B  0821               	movf	drawBox@j,w
  2809  075C  3185  25D3  3187   	fcall	_gotoXY
  2810                           
  2811                           ;5110lcd.c: 343: LCDWrite(1,0x01);
  2812  075F  01F6               	clrf	LCDWrite@data
  2813  0760  0AF6               	incf	LCDWrite@data,f
  2814  0761  3001               	movlw	1
  2815  0762  3186  263B  3187   	fcall	_LCDWrite
  2816  0765  3001               	movlw	1
  2817  0766  0020               	movlb	0	; select bank0
  2818  0767  07A1               	addwf	drawBox@j,f
  2819  0768  3000               	movlw	0
  2820  0769  3DA2               	addwfc	drawBox@j+1,f
  2821  076A  0822               	movf	drawBox@j+1,w
  2822  076B  3A80               	xorlw	128
  2823  076C  00A0               	movwf	??_drawBox
  2824  076D  3080               	movlw	128
  2825  076E  0220               	subwf	??_drawBox,w
  2826  076F  1D03               	skipz
  2827  0770  2F73               	goto	u405
  2828  0771  3054               	movlw	84
  2829  0772  0221               	subwf	drawBox@j,w
  2830  0773                     u405:	
  2831  0773  1C03               	skipc
  2832  0774  2F59               	goto	l808
  2833  0775                     l814:	
  2834                           
  2835                           ;5110lcd.c: 344: }
  2836                           ;5110lcd.c: 346: for(j = 0; j < 84; j++)
  2837  0775  0020               	movlb	0	; select bank0
  2838  0776  01A1               	clrf	drawBox@j
  2839  0777  01A2               	clrf	drawBox@j+1
  2840  0778  0822               	movf	drawBox@j+1,w
  2841  0779  3A80               	xorlw	128
  2842  077A  00A0               	movwf	??_drawBox
  2843  077B  3080               	movlw	128
  2844  077C  0220               	subwf	??_drawBox,w
  2845  077D  1D03               	skipz
  2846  077E  2F81               	goto	u415
  2847  077F  3054               	movlw	84
  2848  0780  0221               	subwf	drawBox@j,w
  2849  0781                     u415:	
  2850  0781  1803               	btfsc	3,0
  2851  0782  2FA5               	goto	l826
  2852  0783                     l820:	
  2853                           
  2854                           ;5110lcd.c: 347: {
  2855                           ;5110lcd.c: 348: gotoXY(j, 5);
  2856  0783  3005               	movlw	5
  2857  0784  0020               	movlb	0	; select bank0
  2858  0785  00A0               	movwf	??_drawBox
  2859  0786  0820               	movf	??_drawBox,w
  2860  0787  00FB               	movwf	gotoXY@y
  2861  0788  0821               	movf	drawBox@j,w
  2862  0789  3185  25D3  3187   	fcall	_gotoXY
  2863                           
  2864                           ;5110lcd.c: 349: LCDWrite(1,0x80);
  2865  078C  3080               	movlw	128
  2866  078D  0020               	movlb	0	; select bank0
  2867  078E  00A0               	movwf	??_drawBox
  2868  078F  0820               	movf	??_drawBox,w
  2869  0790  00F6               	movwf	LCDWrite@data
  2870  0791  3001               	movlw	1
  2871  0792  3186  263B  3187   	fcall	_LCDWrite
  2872  0795  3001               	movlw	1
  2873  0796  0020               	movlb	0	; select bank0
  2874  0797  07A1               	addwf	drawBox@j,f
  2875  0798  3000               	movlw	0
  2876  0799  3DA2               	addwfc	drawBox@j+1,f
  2877  079A  0822               	movf	drawBox@j+1,w
  2878  079B  3A80               	xorlw	128
  2879  079C  00A0               	movwf	??_drawBox
  2880  079D  3080               	movlw	128
  2881  079E  0220               	subwf	??_drawBox,w
  2882  079F  1D03               	skipz
  2883  07A0  2FA3               	goto	u425
  2884  07A1  3054               	movlw	84
  2885  07A2  0221               	subwf	drawBox@j,w
  2886  07A3                     u425:	
  2887  07A3  1C03               	skipc
  2888  07A4  2F83               	goto	l820
  2889  07A5                     l826:	
  2890                           
  2891                           ;5110lcd.c: 350: }
  2892                           ;5110lcd.c: 352: for(j = 0; j < 6; j++)
  2893  07A5  0020               	movlb	0	; select bank0
  2894  07A6  01A1               	clrf	drawBox@j
  2895  07A7  01A2               	clrf	drawBox@j+1
  2896  07A8  0822               	movf	drawBox@j+1,w
  2897  07A9  3A80               	xorlw	128
  2898  07AA  00A0               	movwf	??_drawBox
  2899  07AB  3080               	movlw	128
  2900  07AC  0220               	subwf	??_drawBox,w
  2901  07AD  1D03               	skipz
  2902  07AE  2FB1               	goto	u435
  2903  07AF  3006               	movlw	6
  2904  07B0  0221               	subwf	drawBox@j,w
  2905  07B1                     u435:	
  2906  07B1  1803               	btfsc	3,0
  2907  07B2  2FD5               	goto	l838
  2908  07B3                     l832:	
  2909                           
  2910                           ;5110lcd.c: 353: {
  2911                           ;5110lcd.c: 354: gotoXY(83, j);
  2912  07B3  0020               	movlb	0	; select bank0
  2913  07B4  0821               	movf	drawBox@j,w
  2914  07B5  00A0               	movwf	??_drawBox
  2915  07B6  0820               	movf	??_drawBox,w
  2916  07B7  00FB               	movwf	gotoXY@y
  2917  07B8  3053               	movlw	83
  2918  07B9  3185  25D3  3187   	fcall	_gotoXY
  2919                           
  2920                           ;5110lcd.c: 355: LCDWrite(1,0xff);
  2921  07BC  30FF               	movlw	255
  2922  07BD  0020               	movlb	0	; select bank0
  2923  07BE  00A0               	movwf	??_drawBox
  2924  07BF  0820               	movf	??_drawBox,w
  2925  07C0  00F6               	movwf	LCDWrite@data
  2926  07C1  3001               	movlw	1
  2927  07C2  3186  263B  3187   	fcall	_LCDWrite
  2928  07C5  3001               	movlw	1
  2929  07C6  0020               	movlb	0	; select bank0
  2930  07C7  07A1               	addwf	drawBox@j,f
  2931  07C8  3000               	movlw	0
  2932  07C9  3DA2               	addwfc	drawBox@j+1,f
  2933  07CA  0822               	movf	drawBox@j+1,w
  2934  07CB  3A80               	xorlw	128
  2935  07CC  00A0               	movwf	??_drawBox
  2936  07CD  3080               	movlw	128
  2937  07CE  0220               	subwf	??_drawBox,w
  2938  07CF  1D03               	skipz
  2939  07D0  2FD3               	goto	u445
  2940  07D1  3006               	movlw	6
  2941  07D2  0221               	subwf	drawBox@j,w
  2942  07D3                     u445:	
  2943  07D3  1C03               	skipc
  2944  07D4  2FB3               	goto	l832
  2945  07D5                     l838:	
  2946                           
  2947                           ;5110lcd.c: 356: }
  2948                           ;5110lcd.c: 358: for(j = 0; j < 6; j++)
  2949  07D5  0020               	movlb	0	; select bank0
  2950  07D6  01A1               	clrf	drawBox@j
  2951  07D7  01A2               	clrf	drawBox@j+1
  2952  07D8                     L1:	
  2953  07D8  0822               	movf	drawBox@j+1,w
  2954  07D9  3A80               	xorlw	128
  2955  07DA  00A0               	movwf	??_drawBox
  2956  07DB  3080               	movlw	128
  2957  07DC  0220               	subwf	??_drawBox,w
  2958  07DD  1D03               	skipz
  2959  07DE  2FE1               	goto	u455
  2960  07DF  3006               	movlw	6
  2961  07E0  0221               	subwf	drawBox@j,w
  2962  07E1                     u455:	
  2963  07E1  1803               	btfsc	3,0
  2964  07E2  0008               	return
  2965                           
  2966                           ;5110lcd.c: 359: {
  2967                           ;5110lcd.c: 360: gotoXY(0, j);
  2968  07E3  0020               	movlb	0	; select bank0
  2969  07E4  0821               	movf	drawBox@j,w
  2970  07E5  00A0               	movwf	??_drawBox
  2971  07E6  0820               	movf	??_drawBox,w
  2972  07E7  00FB               	movwf	gotoXY@y
  2973  07E8  3000               	movlw	0
  2974  07E9  3185  25D3  3187   	fcall	_gotoXY
  2975                           
  2976                           ;5110lcd.c: 361: LCDWrite(1,0xff);
  2977  07EC  30FF               	movlw	255
  2978  07ED  0020               	movlb	0	; select bank0
  2979  07EE  00A0               	movwf	??_drawBox
  2980  07EF  0820               	movf	??_drawBox,w
  2981  07F0  00F6               	movwf	LCDWrite@data
  2982  07F1  3001               	movlw	1
  2983  07F2  3186  263B  3187   	fcall	_LCDWrite
  2984  07F5  3001               	movlw	1
  2985  07F6  0020               	movlb	0	; select bank0
  2986  07F7  07A1               	addwf	drawBox@j,f
  2987  07F8  3000               	movlw	0
  2988  07F9  3DA2               	addwfc	drawBox@j+1,f
  2989  07FA  2FD8               	goto	L1
  2990  07FB                     __end_of_drawBox:	
  2991                           
  2992                           	psect	text2
  2993  05E6                     __ptext2:	
  2994 ;; *************** function _LCDString *****************
  2995 ;; Defined at:
  2996 ;;		line 257 in file "5110lcd.c"
  2997 ;; Parameters:    Size  Location     Type
  2998 ;;  characters      2    5[BANK0 ] PTR const unsigned char 
  2999 ;;		 -> STR_2(12), STR_1(13), 
  3000 ;; Auto vars:     Size  Location     Type
  3001 ;;		None
  3002 ;; Return value:  Size  Location     Type
  3003 ;;                  1    wreg      void 
  3004 ;; Registers used:
  3005 ;;		wreg, fsr0l, fsr0h, status,2, status,0, pclath, cstack
  3006 ;; Tracked objects:
  3007 ;;		On entry : 0/0
  3008 ;;		On exit  : 0/0
  3009 ;;		Unchanged: 0/0
  3010 ;; Data sizes:     COMMON   BANK0   BANK1   BANK2   BANK3   BANK4   BANK5   BANK6   BANK7   BANK8   BANK9  BANK10  BANK1
      +1  BANK12
  3011 ;;      Params:         0       2       0       0       0       0       0       0       0       0       0       0       
      +0       0
  3012 ;;      Locals:         0       0       0       0       0       0       0       0       0       0       0       0       
      +0       0
  3013 ;;      Temps:          0       1       0       0       0       0       0       0       0       0       0       0       
      +0       0
  3014 ;;      Totals:         0       3       0       0       0       0       0       0       0       0       0       0       
      +0       0
  3015 ;;Total ram usage:        3 bytes
  3016 ;; Hardware stack levels used:    1
  3017 ;; Hardware stack levels required when called:    2
  3018 ;; This function calls:
  3019 ;;		_LCDCharacter
  3020 ;; This function is called by:
  3021 ;;		_main
  3022 ;; This function uses a non-reentrant model
  3023 ;;
  3024                           
  3025                           
  3026                           ;psect for function _LCDString
  3027  05E6                     _LCDString:	
  3028  05E6                     l782:	
  3029                           ;5110lcd.c: 259: while (*characters)
  3030                           
  3031                           ;incstack = 0
  3032                           ; Regs used in _LCDString: [wreg-fsr0h+status,2+status,0+pclath+cstack]
  3033                           
  3034  05E6  0020               	movlb	0	; select bank0
  3035  05E7  0825               	movf	LCDString@characters,w
  3036  05E8  0084               	movwf	4
  3037  05E9  0826               	movf	LCDString@characters+1,w
  3038  05EA  0085               	movwf	5
  3039  05EB  0012               	moviw fsr0++
  3040  05EC  1903               	btfsc	3,2
  3041  05ED  0008               	return
  3042                           
  3043                           ;5110lcd.c: 260: LCDCharacter(*characters++);
  3044  05EE  0020               	movlb	0	; select bank0
  3045  05EF  0825               	movf	LCDString@characters,w
  3046  05F0  0084               	movwf	4
  3047  05F1  0826               	movf	LCDString@characters+1,w
  3048  05F2  0085               	movwf	5
  3049  05F3  0800               	movf	0,w	;code access
  3050  05F4  3187  2700  3185   	fcall	_LCDCharacter
  3051  05F7  3001               	movlw	1
  3052  05F8  0020               	movlb	0	; select bank0
  3053  05F9  07A5               	addwf	LCDString@characters,f
  3054  05FA  3000               	movlw	0
  3055  05FB  3DA6               	addwfc	LCDString@characters+1,f
  3056  05FC  2DE6               	goto	l782
  3057  05FD                     __end_of_LCDString:	
  3058                           
  3059                           	psect	text3
  3060  0700                     __ptext3:	
  3061 ;; *************** function _LCDCharacter *****************
  3062 ;; Defined at:
  3063 ;;		line 243 in file "5110lcd.c"
  3064 ;; Parameters:    Size  Location     Type
  3065 ;;  character       1    wreg     const unsigned char 
  3066 ;; Auto vars:     Size  Location     Type
  3067 ;;  character       1   11[COMMON] const unsigned char 
  3068 ;;  index           2   12[COMMON] int 
  3069 ;; Return value:  Size  Location     Type
  3070 ;;                  1    wreg      void 
  3071 ;; Registers used:
  3072 ;;		wreg, fsr0l, fsr0h, status,2, status,0, pclath, cstack
  3073 ;; Tracked objects:
  3074 ;;		On entry : 0/0
  3075 ;;		On exit  : 0/0
  3076 ;;		Unchanged: 0/0
  3077 ;; Data sizes:     COMMON   BANK0   BANK1   BANK2   BANK3   BANK4   BANK5   BANK6   BANK7   BANK8   BANK9  BANK10  BANK1
      +1  BANK12
  3078 ;;      Params:         0       0       0       0       0       0       0       0       0       0       0       0       
      +0       0
  3079 ;;      Locals:         3       0       0       0       0       0       0       0       0       0       0       0       
      +0       0
  3080 ;;      Temps:          0       5       0       0       0       0       0       0       0       0       0       0       
      +0       0
  3081 ;;      Totals:         3       5       0       0       0       0       0       0       0       0       0       0       
      +0       0
  3082 ;;Total ram usage:        8 bytes
  3083 ;; Hardware stack levels used:    1
  3084 ;; Hardware stack levels required when called:    1
  3085 ;; This function calls:
  3086 ;;		_LCDWrite
  3087 ;;		___wmul
  3088 ;; This function is called by:
  3089 ;;		_LCDString
  3090 ;; This function uses a non-reentrant model
  3091 ;;
  3092                           
  3093                           
  3094                           ;psect for function _LCDCharacter
  3095  0700                     _LCDCharacter:	
  3096                           
  3097                           ;incstack = 0
  3098                           ; Regs used in _LCDCharacter: [wreg-fsr0h+status,2+status,0+pclath+cstack]
  3099                           ;LCDCharacter@character stored from wreg
  3100  0700  00FB               	movwf	LCDCharacter@character
  3101                           
  3102                           ;5110lcd.c: 247: for (int index = 0 ; index < 3 ; index++)
  3103  0701  01FC               	clrf	LCDCharacter@index
  3104  0702  01FD               	clrf	LCDCharacter@index+1
  3105  0703  087D               	movf	LCDCharacter@index+1,w
  3106  0704  3A80               	xorlw	128
  3107  0705  0020               	movlb	0	; select bank0
  3108  0706  00A0               	movwf	??_LCDCharacter
  3109  0707  3080               	movlw	128
  3110  0708  0220               	subwf	??_LCDCharacter,w
  3111  0709  1D03               	skipz
  3112  070A  2F0D               	goto	u325
  3113  070B  3003               	movlw	3
  3114  070C  027C               	subwf	LCDCharacter@index,w
  3115  070D                     u325:	
  3116  070D  1803               	btfsc	3,0
  3117  070E  2F46               	goto	l762
  3118  070F                     l756:	
  3119                           
  3120                           ;5110lcd.c: 248: {
  3121                           ;5110lcd.c: 249: LCDWrite(1, fonts[character - 0x20][index]);
  3122  070F  087B               	movf	LCDCharacter@character,w
  3123  0710  3EE0               	addlw	224
  3124  0711  00F0               	movwf	___wmul@multiplier
  3125  0712  30FF               	movlw	255
  3126  0713  1803               	skipnc
  3127  0714  3000               	movlw	0
  3128  0715  00F1               	movwf	___wmul@multiplier+1
  3129  0716  3003               	movlw	3
  3130  0717  00F2               	movwf	___wmul@multiplicand
  3131  0718  3000               	movlw	0
  3132  0719  00F3               	movwf	___wmul@multiplicand+1
  3133  071A  3185  25FD  3187   	fcall	___wmul
  3134  071D  3000               	movlw	low (_fonts| (0+32768))
  3135  071E  0020               	movlb	0	; select bank0
  3136  071F  00A0               	movwf	??_LCDCharacter
  3137  0720  3088               	movlw	high (_fonts| (0+32768))
  3138  0721  00A1               	movwf	??_LCDCharacter+1
  3139  0722  0870               	movf	?___wmul,w
  3140  0723  0720               	addwf	??_LCDCharacter,w
  3141  0724  00A2               	movwf	??_LCDCharacter+2
  3142  0725  0871               	movf	?___wmul+1,w
  3143  0726  3D21               	addwfc	??_LCDCharacter+1,w
  3144  0727  00A3               	movwf	??_LCDCharacter+3
  3145  0728  0822               	movf	??_LCDCharacter+2,w
  3146  0729  077C               	addwf	LCDCharacter@index,w
  3147  072A  0084               	movwf	4
  3148  072B  0823               	movf	??_LCDCharacter+3,w
  3149  072C  3D7D               	addwfc	LCDCharacter@index+1,w
  3150  072D  0085               	movwf	5
  3151  072E  0800               	movf	0,w	;code access
  3152  072F  00A4               	movwf	??_LCDCharacter+4
  3153  0730  0824               	movf	??_LCDCharacter+4,w
  3154  0731  00F6               	movwf	LCDWrite@data
  3155  0732  3001               	movlw	1
  3156  0733  3186  263B  3187   	fcall	_LCDWrite
  3157  0736  3001               	movlw	1
  3158  0737  07FC               	addwf	LCDCharacter@index,f
  3159  0738  3000               	movlw	0
  3160  0739  3DFD               	addwfc	LCDCharacter@index+1,f
  3161  073A  087D               	movf	LCDCharacter@index+1,w
  3162  073B  3A80               	xorlw	128
  3163  073C  0020               	movlb	0	; select bank0
  3164  073D  00A0               	movwf	??_LCDCharacter
  3165  073E  3080               	movlw	128
  3166  073F  0220               	subwf	??_LCDCharacter,w
  3167  0740  1D03               	skipz
  3168  0741  2F44               	goto	u335
  3169  0742  3003               	movlw	3
  3170  0743  027C               	subwf	LCDCharacter@index,w
  3171  0744                     u335:	
  3172  0744  1C03               	skipc
  3173  0745  2F0F               	goto	l756
  3174  0746                     l762:	
  3175                           
  3176                           ;5110lcd.c: 250: }
  3177                           ;5110lcd.c: 252: LCDWrite(1, 0x00);
  3178  0746  01F6               	clrf	LCDWrite@data
  3179  0747  3001               	movlw	1
  3180  0748  3186  263B         	fcall	_LCDWrite
  3181  074A  0008               	return
  3182  074B                     __end_of_LCDCharacter:	
  3183                           
  3184                           	psect	text4
  3185  05FD                     __ptext4:	
  3186 ;; *************** function ___wmul *****************
  3187 ;; Defined at:
  3188 ;;		line 15 in file "C:\Program Files (x86)\Microchip\xc8\v1.41\sources\common\Umul16.c"
  3189 ;; Parameters:    Size  Location     Type
  3190 ;;  multiplier      2    0[COMMON] unsigned int 
  3191 ;;  multiplicand    2    2[COMMON] unsigned int 
  3192 ;; Auto vars:     Size  Location     Type
  3193 ;;  product         2    4[COMMON] unsigned int 
  3194 ;; Return value:  Size  Location     Type
  3195 ;;                  2    0[COMMON] unsigned int 
  3196 ;; Registers used:
  3197 ;;		wreg, status,2, status,0
  3198 ;; Tracked objects:
  3199 ;;		On entry : 0/0
  3200 ;;		On exit  : 0/0
  3201 ;;		Unchanged: 0/0
  3202 ;; Data sizes:     COMMON   BANK0   BANK1   BANK2   BANK3   BANK4   BANK5   BANK6   BANK7   BANK8   BANK9  BANK10  BANK1
      +1  BANK12
  3203 ;;      Params:         4       0       0       0       0       0       0       0       0       0       0       0       
      +0       0
  3204 ;;      Locals:         2       0       0       0       0       0       0       0       0       0       0       0       
      +0       0
  3205 ;;      Temps:          0       0       0       0       0       0       0       0       0       0       0       0       
      +0       0
  3206 ;;      Totals:         6       0       0       0       0       0       0       0       0       0       0       0       
      +0       0
  3207 ;;Total ram usage:        6 bytes
  3208 ;; Hardware stack levels used:    1
  3209 ;; This function calls:
  3210 ;;		Nothing
  3211 ;; This function is called by:
  3212 ;;		_LCDCharacter
  3213 ;; This function uses a non-reentrant model
  3214 ;;
  3215                           
  3216                           
  3217                           ;psect for function ___wmul
  3218  05FD                     ___wmul:	
  3219                           
  3220                           ;incstack = 0
  3221                           ; Regs used in ___wmul: [wreg+status,2+status,0]
  3222  05FD  01F4               	clrf	___wmul@product
  3223  05FE  01F5               	clrf	___wmul@product+1
  3224  05FF                     l736:	
  3225  05FF  1C70               	btfss	___wmul@multiplier,0
  3226  0600  2E05               	goto	l178
  3227  0601  0872               	movf	___wmul@multiplicand,w
  3228  0602  07F4               	addwf	___wmul@product,f
  3229  0603  0873               	movf	___wmul@multiplicand+1,w
  3230  0604  3DF5               	addwfc	___wmul@product+1,f
  3231  0605                     l178:	
  3232  0605  3001               	movlw	1
  3233  0606                     u295:	
  3234  0606  35F2               	lslf	___wmul@multiplicand,f
  3235  0607  0DF3               	rlf	___wmul@multiplicand+1,f
  3236  0608  0B89               	decfsz	9,f
  3237  0609  2E06               	goto	u295
  3238  060A  3001               	movlw	1
  3239  060B                     u305:	
  3240  060B  36F1               	lsrf	___wmul@multiplier+1,f
  3241  060C  0CF0               	rrf	___wmul@multiplier,f
  3242  060D  0B89               	decfsz	9,f
  3243  060E  2E0B               	goto	u305
  3244  060F  0870               	movf	___wmul@multiplier,w
  3245  0610  0471               	iorwf	___wmul@multiplier+1,w
  3246  0611  1D03               	btfss	3,2
  3247  0612  2DFF               	goto	l736
  3248  0613  0875               	movf	___wmul@product+1,w
  3249  0614  00F1               	movwf	?___wmul+1
  3250  0615  0874               	movf	___wmul@product,w
  3251  0616  00F0               	movwf	?___wmul
  3252  0617  0008               	return
  3253  0618                     __end_of___wmul:	
  3254                           
  3255                           	psect	text5
  3256  0688                     __ptext5:	
  3257 ;; *************** function _LCDInit *****************
  3258 ;; Defined at:
  3259 ;;		line 272 in file "5110lcd.c"
  3260 ;; Parameters:    Size  Location     Type
  3261 ;;		None
  3262 ;; Auto vars:     Size  Location     Type
  3263 ;;		None
  3264 ;; Return value:  Size  Location     Type
  3265 ;;                  1    wreg      void 
  3266 ;; Registers used:
  3267 ;;		wreg, status,2, status,0, pclath, cstack
  3268 ;; Tracked objects:
  3269 ;;		On entry : 0/0
  3270 ;;		On exit  : 0/0
  3271 ;;		Unchanged: 0/0
  3272 ;; Data sizes:     COMMON   BANK0   BANK1   BANK2   BANK3   BANK4   BANK5   BANK6   BANK7   BANK8   BANK9  BANK10  BANK1
      +1  BANK12
  3273 ;;      Params:         0       0       0       0       0       0       0       0       0       0       0       0       
      +0       0
  3274 ;;      Locals:         0       0       0       0       0       0       0       0       0       0       0       0       
      +0       0
  3275 ;;      Temps:          1       0       0       0       0       0       0       0       0       0       0       0       
      +0       0
  3276 ;;      Totals:         1       0       0       0       0       0       0       0       0       0       0       0       
      +0       0
  3277 ;;Total ram usage:        1 bytes
  3278 ;; Hardware stack levels used:    1
  3279 ;; Hardware stack levels required when called:    1
  3280 ;; This function calls:
  3281 ;;		_LCDWrite
  3282 ;; This function is called by:
  3283 ;;		_main
  3284 ;; This function uses a non-reentrant model
  3285 ;;
  3286                           
  3287                           
  3288                           ;psect for function _LCDInit
  3289  0688                     _LCDInit:	
  3290                           
  3291                           ;5110lcd.c: 275: TRISCbits.TRISC3 = 0;
  3292                           
  3293                           ;incstack = 0
  3294                           ; Regs used in _LCDInit: [wreg+status,2+status,0+pclath+cstack]
  3295  0688  0020               	movlb	0	; select bank0
  3296  0689  1193               	bcf	19,3	;volatile
  3297                           
  3298                           ;5110lcd.c: 276: TRISCbits.TRISC4 = 0;
  3299  068A  1213               	bcf	19,4	;volatile
  3300                           
  3301                           ;5110lcd.c: 277: TRISCbits.TRISC5 = 0;
  3302  068B  1293               	bcf	19,5	;volatile
  3303                           
  3304                           ;5110lcd.c: 278: TRISCbits.TRISC6 = 0;
  3305  068C  1313               	bcf	19,6	;volatile
  3306                           
  3307                           ;5110lcd.c: 279: TRISCbits.TRISC7 = 0;
  3308  068D  1393               	bcf	19,7	;volatile
  3309                           
  3310                           ;5110lcd.c: 280: LATCbits.LATC4 = 0;
  3311  068E  1218               	bcf	24,4	;volatile
  3312                           
  3313                           ;5110lcd.c: 281: LATCbits.LATC5 = 0;
  3314  068F  1298               	bcf	24,5	;volatile
  3315                           
  3316                           ;5110lcd.c: 282: LATCbits.LATC3 = 0;
  3317  0690  1198               	bcf	24,3	;volatile
  3318                           
  3319                           ;5110lcd.c: 283: LATCbits.LATC7 = 0;
  3320  0691  1398               	bcf	24,7	;volatile
  3321                           
  3322                           ;5110lcd.c: 284: LATCbits.LATC7 = 1;
  3323  0692  1798               	bsf	24,7	;volatile
  3324                           
  3325                           ;5110lcd.c: 285: LCDWrite(0, 0x21);
  3326  0693  3021               	movlw	33
  3327  0694  00FB               	movwf	??_LCDInit
  3328  0695  087B               	movf	??_LCDInit,w
  3329  0696  00F6               	movwf	LCDWrite@data
  3330  0697  3000               	movlw	0
  3331  0698  3186  263B  3186   	fcall	_LCDWrite
  3332                           
  3333                           ;5110lcd.c: 291: LCDWrite(0, 0xBB);
  3334  069B  30BB               	movlw	187
  3335  069C  00FB               	movwf	??_LCDInit
  3336  069D  087B               	movf	??_LCDInit,w
  3337  069E  00F6               	movwf	LCDWrite@data
  3338  069F  3000               	movlw	0
  3339  06A0  3186  263B  3186   	fcall	_LCDWrite
  3340                           
  3341                           ;5110lcd.c: 293: LCDWrite(0, 0x04);
  3342  06A3  3004               	movlw	4
  3343  06A4  00FB               	movwf	??_LCDInit
  3344  06A5  087B               	movf	??_LCDInit,w
  3345  06A6  00F6               	movwf	LCDWrite@data
  3346  06A7  3000               	movlw	0
  3347  06A8  3186  263B  3186   	fcall	_LCDWrite
  3348                           
  3349                           ;5110lcd.c: 295: LCDWrite(0, 0x14);
  3350  06AB  3014               	movlw	20
  3351  06AC  00FB               	movwf	??_LCDInit
  3352  06AD  087B               	movf	??_LCDInit,w
  3353  06AE  00F6               	movwf	LCDWrite@data
  3354  06AF  3000               	movlw	0
  3355  06B0  3186  263B  3186   	fcall	_LCDWrite
  3356                           
  3357                           ;5110lcd.c: 297: LCDWrite(0, 0x20);
  3358  06B3  3020               	movlw	32
  3359  06B4  00FB               	movwf	??_LCDInit
  3360  06B5  087B               	movf	??_LCDInit,w
  3361  06B6  00F6               	movwf	LCDWrite@data
  3362  06B7  3000               	movlw	0
  3363  06B8  3186  263B  3186   	fcall	_LCDWrite
  3364                           
  3365                           ;5110lcd.c: 299: LCDWrite(0, 0x0C);
  3366  06BB  300C               	movlw	12
  3367  06BC  00FB               	movwf	??_LCDInit
  3368  06BD  087B               	movf	??_LCDInit,w
  3369  06BE  00F6               	movwf	LCDWrite@data
  3370  06BF  3000               	movlw	0
  3371  06C0  3186  263B         	fcall	_LCDWrite
  3372  06C2  0008               	return
  3373  06C3                     __end_of_LCDInit:	
  3374                           
  3375                           	psect	text6
  3376  0660                     __ptext6:	
  3377 ;; *************** function _LCDClear *****************
  3378 ;; Defined at:
  3379 ;;		line 264 in file "5110lcd.c"
  3380 ;; Parameters:    Size  Location     Type
  3381 ;;		None
  3382 ;; Auto vars:     Size  Location     Type
  3383 ;;  index           2    1[BANK0 ] int 
  3384 ;; Return value:  Size  Location     Type
  3385 ;;                  1    wreg      void 
  3386 ;; Registers used:
  3387 ;;		wreg, status,2, status,0, pclath, cstack
  3388 ;; Tracked objects:
  3389 ;;		On entry : 0/0
  3390 ;;		On exit  : 0/0
  3391 ;;		Unchanged: 0/0
  3392 ;; Data sizes:     COMMON   BANK0   BANK1   BANK2   BANK3   BANK4   BANK5   BANK6   BANK7   BANK8   BANK9  BANK10  BANK1
      +1  BANK12
  3393 ;;      Params:         0       0       0       0       0       0       0       0       0       0       0       0       
      +0       0
  3394 ;;      Locals:         0       2       0       0       0       0       0       0       0       0       0       0       
      +0       0
  3395 ;;      Temps:          0       1       0       0       0       0       0       0       0       0       0       0       
      +0       0
  3396 ;;      Totals:         0       3       0       0       0       0       0       0       0       0       0       0       
      +0       0
  3397 ;;Total ram usage:        3 bytes
  3398 ;; Hardware stack levels used:    1
  3399 ;; Hardware stack levels required when called:    2
  3400 ;; This function calls:
  3401 ;;		_LCDWrite
  3402 ;;		_gotoXY
  3403 ;; This function is called by:
  3404 ;;		_main
  3405 ;; This function uses a non-reentrant model
  3406 ;;
  3407                           
  3408                           
  3409                           ;psect for function _LCDClear
  3410  0660                     _LCDClear:	
  3411                           
  3412                           ;5110lcd.c: 266: for (int index = 0 ; index < (84 * 48 / 8) ; index++)
  3413                           
  3414                           ;incstack = 0
  3415                           ; Regs used in _LCDClear: [wreg+status,2+status,0+pclath+cstack]
  3416  0660  0020               	movlb	0	; select bank0
  3417  0661  01A1               	clrf	LCDClear@index
  3418  0662  01A2               	clrf	LCDClear@index+1
  3419  0663  0822               	movf	LCDClear@index+1,w
  3420  0664  3A80               	xorlw	128
  3421  0665  00A0               	movwf	??_LCDClear
  3422  0666  3081               	movlw	129
  3423  0667  0220               	subwf	??_LCDClear,w
  3424  0668  1D03               	skipz
  3425  0669  2E6C               	goto	u375
  3426  066A  30F8               	movlw	248
  3427  066B  0221               	subwf	LCDClear@index,w
  3428  066C                     u375:	
  3429  066C  1803               	btfsc	3,0
  3430  066D  2E83               	goto	l796
  3431  066E                     l790:	
  3432                           
  3433                           ;5110lcd.c: 267: LCDWrite(1, 0x00);
  3434  066E  01F6               	clrf	LCDWrite@data
  3435  066F  3001               	movlw	1
  3436  0670  3186  263B  3186   	fcall	_LCDWrite
  3437  0673  3001               	movlw	1
  3438  0674  0020               	movlb	0	; select bank0
  3439  0675  07A1               	addwf	LCDClear@index,f
  3440  0676  3000               	movlw	0
  3441  0677  3DA2               	addwfc	LCDClear@index+1,f
  3442  0678  0822               	movf	LCDClear@index+1,w
  3443  0679  3A80               	xorlw	128
  3444  067A  00A0               	movwf	??_LCDClear
  3445  067B  3081               	movlw	129
  3446  067C  0220               	subwf	??_LCDClear,w
  3447  067D  1D03               	skipz
  3448  067E  2E81               	goto	u385
  3449  067F  30F8               	movlw	248
  3450  0680  0221               	subwf	LCDClear@index,w
  3451  0681                     u385:	
  3452  0681  1C03               	skipc
  3453  0682  2E6E               	goto	l790
  3454  0683                     l796:	
  3455                           
  3456                           ;5110lcd.c: 268: gotoXY(0, 0);
  3457  0683  01FB               	clrf	gotoXY@y
  3458  0684  3000               	movlw	0
  3459  0685  3185  25D3         	fcall	_gotoXY
  3460  0687  0008               	return
  3461  0688                     __end_of_LCDClear:	
  3462                           
  3463                           	psect	text7
  3464  05D3                     __ptext7:	
  3465 ;; *************** function _gotoXY *****************
  3466 ;; Defined at:
  3467 ;;		line 224 in file "5110lcd.c"
  3468 ;; Parameters:    Size  Location     Type
  3469 ;;  x               1    wreg     char 
  3470 ;;  y               1   11[COMMON] char 
  3471 ;; Auto vars:     Size  Location     Type
  3472 ;;  x               1   13[COMMON] char 
  3473 ;; Return value:  Size  Location     Type
  3474 ;;                  1    wreg      void 
  3475 ;; Registers used:
  3476 ;;		wreg, status,2, status,0, pclath, cstack
  3477 ;; Tracked objects:
  3478 ;;		On entry : 0/0
  3479 ;;		On exit  : 0/0
  3480 ;;		Unchanged: 0/0
  3481 ;; Data sizes:     COMMON   BANK0   BANK1   BANK2   BANK3   BANK4   BANK5   BANK6   BANK7   BANK8   BANK9  BANK10  BANK1
      +1  BANK12
  3482 ;;      Params:         1       0       0       0       0       0       0       0       0       0       0       0       
      +0       0
  3483 ;;      Locals:         1       0       0       0       0       0       0       0       0       0       0       0       
      +0       0
  3484 ;;      Temps:          1       0       0       0       0       0       0       0       0       0       0       0       
      +0       0
  3485 ;;      Totals:         3       0       0       0       0       0       0       0       0       0       0       0       
      +0       0
  3486 ;;Total ram usage:        3 bytes
  3487 ;; Hardware stack levels used:    1
  3488 ;; Hardware stack levels required when called:    1
  3489 ;; This function calls:
  3490 ;;		_LCDWrite
  3491 ;; This function is called by:
  3492 ;;		_LCDClear
  3493 ;;		_drawBox
  3494 ;;		_main
  3495 ;; This function uses a non-reentrant model
  3496 ;;
  3497                           
  3498                           
  3499                           ;psect for function _gotoXY
  3500  05D3                     _gotoXY:	
  3501                           
  3502                           ;incstack = 0
  3503                           ; Regs used in _gotoXY: [wreg+status,2+status,0+pclath+cstack]
  3504                           ;gotoXY@x stored from wreg
  3505  05D3  00FD               	movwf	gotoXY@x
  3506                           
  3507                           ;5110lcd.c: 226: LCDWrite(0, 0x80 | x);
  3508  05D4  087D               	movf	gotoXY@x,w
  3509  05D5  3880               	iorlw	128
  3510  05D6  00FC               	movwf	??_gotoXY
  3511  05D7  087C               	movf	??_gotoXY,w
  3512  05D8  00F6               	movwf	LCDWrite@data
  3513  05D9  3000               	movlw	0
  3514  05DA  3186  263B  3185   	fcall	_LCDWrite
  3515                           
  3516                           ;5110lcd.c: 227: LCDWrite(0, 0x40 | y);
  3517  05DD  087B               	movf	gotoXY@y,w
  3518  05DE  3840               	iorlw	64
  3519  05DF  00FC               	movwf	??_gotoXY
  3520  05E0  087C               	movf	??_gotoXY,w
  3521  05E1  00F6               	movwf	LCDWrite@data
  3522  05E2  3000               	movlw	0
  3523  05E3  3186  263B         	fcall	_LCDWrite
  3524  05E5  0008               	return
  3525  05E6                     __end_of_gotoXY:	
  3526                           
  3527                           	psect	text8
  3528  0618                     __ptext8:	
  3529 ;; *************** function _LCDBitmap *****************
  3530 ;; Defined at:
  3531 ;;		line 231 in file "5110lcd.c"
  3532 ;; Parameters:    Size  Location     Type
  3533 ;;  my_array        2   11[COMMON] PTR char 
  3534 ;;		 -> coffee(504), 
  3535 ;; Auto vars:     Size  Location     Type
  3536 ;;  index           2    0[BANK0 ] int 
  3537 ;; Return value:  Size  Location     Type
  3538 ;;                  1    wreg      void 
  3539 ;; Registers used:
  3540 ;;		wreg, fsr0l, fsr0h, status,2, status,0, pclath, cstack
  3541 ;; Tracked objects:
  3542 ;;		On entry : 0/0
  3543 ;;		On exit  : 0/0
  3544 ;;		Unchanged: 0/0
  3545 ;; Data sizes:     COMMON   BANK0   BANK1   BANK2   BANK3   BANK4   BANK5   BANK6   BANK7   BANK8   BANK9  BANK10  BANK1
      +1  BANK12
  3546 ;;      Params:         2       0       0       0       0       0       0       0       0       0       0       0       
      +0       0
  3547 ;;      Locals:         0       2       0       0       0       0       0       0       0       0       0       0       
      +0       0
  3548 ;;      Temps:          1       0       0       0       0       0       0       0       0       0       0       0       
      +0       0
  3549 ;;      Totals:         3       2       0       0       0       0       0       0       0       0       0       0       
      +0       0
  3550 ;;Total ram usage:        5 bytes
  3551 ;; Hardware stack levels used:    1
  3552 ;; Hardware stack levels required when called:    1
  3553 ;; This function calls:
  3554 ;;		_LCDWrite
  3555 ;; This function is called by:
  3556 ;;		_main
  3557 ;; This function uses a non-reentrant model
  3558 ;;
  3559                           
  3560                           
  3561                           ;psect for function _LCDBitmap
  3562  0618                     _LCDBitmap:	
  3563                           
  3564                           ;5110lcd.c: 233: for (int index = 0 ; index < (84 * 48 / 8) ; index++)
  3565                           
  3566                           ;incstack = 0
  3567                           ; Regs used in _LCDBitmap: [wreg-fsr0h+status,2+status,0+pclath+cstack]
  3568  0618  0020               	movlb	0	; select bank0
  3569  0619  01A0               	clrf	LCDBitmap@index
  3570  061A  01A1               	clrf	LCDBitmap@index+1
  3571  061B                     L2:	
  3572  061B  0821               	movf	LCDBitmap@index+1,w
  3573  061C  3A80               	xorlw	128
  3574  061D  00FD               	movwf	??_LCDBitmap
  3575  061E  3081               	movlw	129
  3576  061F  027D               	subwf	??_LCDBitmap,w
  3577  0620  1D03               	skipz
  3578  0621  2E24               	goto	u345
  3579  0622  30F8               	movlw	248
  3580  0623  0220               	subwf	LCDBitmap@index,w
  3581  0624                     u345:	
  3582  0624  1803               	btfsc	3,0
  3583  0625  0008               	return
  3584                           
  3585                           ;5110lcd.c: 234: LCDWrite(1, my_array[index]);
  3586  0626  087B               	movf	LCDBitmap@my_array,w
  3587  0627  0020               	movlb	0	; select bank0
  3588  0628  0720               	addwf	LCDBitmap@index,w
  3589  0629  0084               	movwf	4
  3590  062A  087C               	movf	LCDBitmap@my_array+1,w
  3591  062B  3D21               	addwfc	LCDBitmap@index+1,w
  3592  062C  0085               	movwf	5
  3593  062D  0800               	movf	0,w	;code access
  3594  062E  00FD               	movwf	??_LCDBitmap
  3595  062F  087D               	movf	??_LCDBitmap,w
  3596  0630  00F6               	movwf	LCDWrite@data
  3597  0631  3001               	movlw	1
  3598  0632  3186  263B  3186   	fcall	_LCDWrite
  3599  0635  3001               	movlw	1
  3600  0636  0020               	movlb	0	; select bank0
  3601  0637  07A0               	addwf	LCDBitmap@index,f
  3602  0638  3000               	movlw	0
  3603  0639  3DA1               	addwfc	LCDBitmap@index+1,f
  3604  063A  2E1B               	goto	L2
  3605  063B                     __end_of_LCDBitmap:	
  3606                           
  3607                           	psect	text9
  3608  063B                     __ptext9:	
  3609 ;; *************** function _LCDWrite *****************
  3610 ;; Defined at:
  3611 ;;		line 306 in file "5110lcd.c"
  3612 ;; Parameters:    Size  Location     Type
  3613 ;;  data_or_comm    1    wreg     unsigned char 
  3614 ;;  data            1    6[COMMON] unsigned char 
  3615 ;; Auto vars:     Size  Location     Type
  3616 ;;  data_or_comm    1    8[COMMON] unsigned char 
  3617 ;;  i               1   10[COMMON] unsigned char 
  3618 ;;  d               1    9[COMMON] unsigned char 
  3619 ;; Return value:  Size  Location     Type
  3620 ;;                  1    wreg      void 
  3621 ;; Registers used:
  3622 ;;		wreg, status,2, status,0
  3623 ;; Tracked objects:
  3624 ;;		On entry : 0/0
  3625 ;;		On exit  : 0/0
  3626 ;;		Unchanged: 0/0
  3627 ;; Data sizes:     COMMON   BANK0   BANK1   BANK2   BANK3   BANK4   BANK5   BANK6   BANK7   BANK8   BANK9  BANK10  BANK1
      +1  BANK12
  3628 ;;      Params:         1       0       0       0       0       0       0       0       0       0       0       0       
      +0       0
  3629 ;;      Locals:         3       0       0       0       0       0       0       0       0       0       0       0       
      +0       0
  3630 ;;      Temps:          1       0       0       0       0       0       0       0       0       0       0       0       
      +0       0
  3631 ;;      Totals:         5       0       0       0       0       0       0       0       0       0       0       0       
      +0       0
  3632 ;;Total ram usage:        5 bytes
  3633 ;; Hardware stack levels used:    1
  3634 ;; This function calls:
  3635 ;;		Nothing
  3636 ;; This function is called by:
  3637 ;;		_gotoXY
  3638 ;;		_LCDBitmap
  3639 ;;		_LCDCharacter
  3640 ;;		_LCDClear
  3641 ;;		_LCDInit
  3642 ;;		_drawBox
  3643 ;; This function uses a non-reentrant model
  3644 ;;
  3645                           
  3646                           
  3647                           ;psect for function _LCDWrite
  3648  063B                     _LCDWrite:	
  3649                           
  3650                           ;incstack = 0
  3651                           ; Regs used in _LCDWrite: [wreg+status,2+status,0]
  3652                           ;LCDWrite@data_or_command stored from wreg
  3653  063B  00F8               	movwf	LCDWrite@data_or_command
  3654                           
  3655                           ;5110lcd.c: 307: uint8_t i,d;
  3656                           ;5110lcd.c: 308: d=data;
  3657  063C  0876               	movf	LCDWrite@data,w
  3658  063D  00F7               	movwf	??_LCDWrite
  3659  063E  0877               	movf	??_LCDWrite,w
  3660  063F  00F9               	movwf	LCDWrite@d
  3661                           
  3662                           ;5110lcd.c: 309: if(data_or_command == 0)
  3663  0640  0878               	movf	LCDWrite@data_or_command,w
  3664  0641  1D03               	btfss	3,2
  3665  0642  2E46               	goto	l42
  3666                           
  3667                           ;5110lcd.c: 310: {
  3668                           ;5110lcd.c: 311: LATCbits.LATC3=0;
  3669  0643  0020               	movlb	0	; select bank0
  3670  0644  1198               	bcf	24,3	;volatile
  3671                           
  3672                           ;5110lcd.c: 312: }
  3673  0645  2E48               	goto	l43
  3674  0646                     l42:	
  3675                           
  3676                           ;5110lcd.c: 313: else
  3677                           ;5110lcd.c: 314: {
  3678                           ;5110lcd.c: 315: LATCbits.LATC3=1;
  3679  0646  0020               	movlb	0	; select bank0
  3680  0647  1598               	bsf	24,3	;volatile
  3681  0648                     l43:	
  3682                           
  3683                           ;5110lcd.c: 316: }
  3684                           ;5110lcd.c: 320: LATCbits.LATC6 = 0;
  3685  0648  1318               	bcf	24,6	;volatile
  3686                           
  3687                           ;5110lcd.c: 322: for(i=0;i<8;i++)
  3688  0649  01FA               	clrf	LCDWrite@i
  3689  064A  3008               	movlw	8
  3690  064B  027A               	subwf	LCDWrite@i,w
  3691  064C  1803               	btfsc	3,0
  3692  064D  2E5E               	goto	l45
  3693  064E                     l44:	
  3694                           
  3695                           ;5110lcd.c: 323: {
  3696                           ;5110lcd.c: 324: LATCbits.LATC4 = 0;
  3697  064E  1218               	bcf	24,4	;volatile
  3698                           
  3699                           ;5110lcd.c: 325: if(d&0x80)LATCbits.LATC4=1;
  3700  064F  1FF9               	btfss	LCDWrite@d,7
  3701  0650  2E52               	goto	l46
  3702  0651  1618               	bsf	24,4	;volatile
  3703  0652                     l46:	
  3704                           
  3705                           ;5110lcd.c: 326: LATCbits.LATC5=1;
  3706  0652  1698               	bsf	24,5	;volatile
  3707                           
  3708                           ;5110lcd.c: 327: d<<=1;
  3709  0653  1003               	clrc
  3710  0654  0DF9               	rlf	LCDWrite@d,f
  3711                           
  3712                           ;5110lcd.c: 328: LATCbits.LATC5=0;
  3713  0655  1298               	bcf	24,5	;volatile
  3714  0656  3001               	movlw	1
  3715  0657  00F7               	movwf	??_LCDWrite
  3716  0658  0877               	movf	??_LCDWrite,w
  3717  0659  07FA               	addwf	LCDWrite@i,f
  3718  065A  3008               	movlw	8
  3719  065B  027A               	subwf	LCDWrite@i,w
  3720  065C  1C03               	skipc
  3721  065D  2E4E               	goto	l44
  3722  065E                     l45:	
  3723                           
  3724                           ;5110lcd.c: 329: }
  3725                           ;5110lcd.c: 331: LATCbits.LATC6=1;
  3726  065E  1718               	bsf	24,6	;volatile
  3727  065F  0008               	return
  3728  0660                     __end_of_LCDWrite:	
  3729  007E                     btemp	set	126	;btemp
  3730  007E                     wtemp0	set	126


Data Sizes:
    Strings     25
    Constant    807
    Data        0
    BSS         2
    Persistent  0
    Stack       0

Auto Spaces:
    Space          Size  Autos    Used
    COMMON           14     14      14
    BANK0            80      9      11
    BANK1            80      0       0
    BANK2            80      0       0
    BANK3            80      0       0
    BANK4            80      0       0
    BANK5            80      0       0
    BANK6            80      0       0
    BANK7            80      0       0
    BANK8            80      0       0
    BANK9            80      0       0
    BANK10           80      0       0
    BANK11           80      0       0
    BANK12           48      0       0

Pointer List with Targets:

    LCDString@characters	PTR const unsigned char  size(2) Largest target is 13
		 -> STR_2(CODE[12]), STR_1(CODE[13]), 

    LCDBitmap@my_array	PTR char  size(2) Largest target is 504
		 -> coffee(CODE[504]), 


Critical Paths under _main in COMMON

    _main->_LCDBitmap
    _main->_gotoXY
    _drawBox->_gotoXY
    _LCDString->_LCDCharacter
    _LCDCharacter->_LCDWrite
    _LCDInit->_LCDWrite
    _LCDClear->_gotoXY
    _gotoXY->_LCDWrite
    _LCDBitmap->_LCDWrite
    _LCDWrite->___wmul

Critical Paths under _main in BANK0

    _main->_LCDString
    _LCDString->_LCDCharacter

Critical Paths under _main in BANK1

    None.

Critical Paths under _main in BANK2

    None.

Critical Paths under _main in BANK3

    None.

Critical Paths under _main in BANK4

    None.

Critical Paths under _main in BANK5

    None.

Critical Paths under _main in BANK6

    None.

Critical Paths under _main in BANK7

    None.

Critical Paths under _main in BANK8

    None.

Critical Paths under _main in BANK9

    None.

Critical Paths under _main in BANK10

    None.

Critical Paths under _main in BANK11

    None.

Critical Paths under _main in BANK12

    None.

Call Graph Tables:

 ---------------------------------------------------------------------------------
 (Depth) Function   	        Calls       Base Space   Used Autos Params    Refs
 ---------------------------------------------------------------------------------
 (0) _main                                                 1     1      0    9841
                                              8 BANK0      1     1      0
                          _LCDBitmap
                           _LCDClear
                            _LCDInit
                          _LCDString
                            _drawBox
                             _gotoXY
 ---------------------------------------------------------------------------------
 (1) _drawBox                                              3     3      0    2611
                                              0 BANK0      3     3      0
                           _LCDWrite
                             _gotoXY
 ---------------------------------------------------------------------------------
 (1) _LCDString                                            3     1      2    1401
                                              5 BANK0      3     1      2
                       _LCDCharacter
 ---------------------------------------------------------------------------------
 (2) _LCDCharacter                                         8     8      0    1250
                                             11 COMMON     3     3      0
                                              0 BANK0      5     5      0
                           _LCDWrite
                             ___wmul
 ---------------------------------------------------------------------------------
 (3) ___wmul                                               6     2      4     198
                                              0 COMMON     6     2      4
 ---------------------------------------------------------------------------------
 (1) _LCDInit                                              1     1      0     962
                                             11 COMMON     1     1      0
                           _LCDWrite
 ---------------------------------------------------------------------------------
 (1) _LCDClear                                             3     3      0    2385
                                              0 BANK0      3     3      0
                           _LCDWrite
                             _gotoXY
 ---------------------------------------------------------------------------------
 (1) _gotoXY                                               3     2      1    1377
                                             11 COMMON     3     2      1
                           _LCDWrite
 ---------------------------------------------------------------------------------
 (1) _LCDBitmap                                            5     3      2    1105
                                             11 COMMON     3     1      2
                                              0 BANK0      2     2      0
                           _LCDWrite
 ---------------------------------------------------------------------------------
 (2) _LCDWrite                                             5     4      1     962
                                              6 COMMON     5     4      1
                             ___wmul (ARG)
 ---------------------------------------------------------------------------------
 Estimated maximum stack depth 3
 ---------------------------------------------------------------------------------

 Call Graph Graphs:

 _main (ROOT)
   _LCDBitmap
     _LCDWrite
       ___wmul (ARG)
   _LCDClear
     _LCDWrite
       ___wmul (ARG)
     _gotoXY
       _LCDWrite
         ___wmul (ARG)
   _LCDInit
     _LCDWrite
       ___wmul (ARG)
   _LCDString
     _LCDCharacter
       _LCDWrite
         ___wmul (ARG)
       ___wmul
   _drawBox
     _LCDWrite
       ___wmul (ARG)
     _gotoXY
       _LCDWrite
         ___wmul (ARG)
   _gotoXY
     _LCDWrite
       ___wmul (ARG)

 Address spaces:
Name               Size   Autos  Total    Cost      Usage
BIGRAM             3F0      0       0       0        0.0%
EEDATA             100      0       0       0        0.0%
NULL                 0      0       0       0        0.0%
CODE                 0      0       0       0        0.0%
BITCOMMON            E      0       0       1        0.0%
BITSFR0              0      0       0       1        0.0%
SFR0                 0      0       0       1        0.0%
COMMON               E      E       E       2      100.0%
BITSFR1              0      0       0       2        0.0%
SFR1                 0      0       0       2        0.0%
BITSFR2              0      0       0       3        0.0%
SFR2                 0      0       0       3        0.0%
STACK                0      0       0       3        0.0%
BITBANK0            50      0       0       4        0.0%
BITSFR3              0      0       0       4        0.0%
SFR3                 0      0       0       4        0.0%
BANK0               50      9       B       5       13.8%
BITSFR4              0      0       0       5        0.0%
SFR4                 0      0       0       5        0.0%
BITBANK1            50      0       0       6        0.0%
BITSFR5              0      0       0       6        0.0%
SFR5                 0      0       0       6        0.0%
BANK1               50      0       0       7        0.0%
BITSFR6              0      0       0       7        0.0%
SFR6                 0      0       0       7        0.0%
BITBANK2            50      0       0       8        0.0%
BITSFR7              0      0       0       8        0.0%
SFR7                 0      0       0       8        0.0%
BANK2               50      0       0       9        0.0%
BITSFR8              0      0       0       9        0.0%
SFR8                 0      0       0       9        0.0%
BITBANK3            50      0       0      10        0.0%
BITSFR9              0      0       0      10        0.0%
SFR9                 0      0       0      10        0.0%
BANK3               50      0       0      11        0.0%
BITSFR10             0      0       0      11        0.0%
SFR10                0      0       0      11        0.0%
BITBANK4            50      0       0      12        0.0%
BITSFR11             0      0       0      12        0.0%
SFR11                0      0       0      12        0.0%
BANK4               50      0       0      13        0.0%
BITSFR12             0      0       0      13        0.0%
SFR12                0      0       0      13        0.0%
BITBANK5            50      0       0      14        0.0%
BITSFR13             0      0       0      14        0.0%
SFR13                0      0       0      14        0.0%
BANK5               50      0       0      15        0.0%
BITSFR14             0      0       0      15        0.0%
SFR14                0      0       0      15        0.0%
BITBANK6            50      0       0      16        0.0%
BITSFR15             0      0       0      16        0.0%
SFR15                0      0       0      16        0.0%
BANK6               50      0       0      17        0.0%
BITSFR16             0      0       0      17        0.0%
SFR16                0      0       0      17        0.0%
BITBANK7            50      0       0      18        0.0%
BITSFR17             0      0       0      18        0.0%
SFR17                0      0       0      18        0.0%
BANK7               50      0       0      19        0.0%
BITSFR18             0      0       0      19        0.0%
SFR18                0      0       0      19        0.0%
BITSFR19             0      0       0      20        0.0%
SFR19                0      0       0      20        0.0%
ABS                  0      0      19      20        0.0%
BITBANK8            50      0       0      21        0.0%
BITSFR20             0      0       0      21        0.0%
SFR20                0      0       0      21        0.0%
BANK8               50      0       0      22        0.0%
BITSFR21             0      0       0      22        0.0%
SFR21                0      0       0      22        0.0%
BITBANK9            50      0       0      23        0.0%
BITSFR22             0      0       0      23        0.0%
SFR22                0      0       0      23        0.0%
BANK9               50      0       0      24        0.0%
BITSFR23             0      0       0      24        0.0%
SFR23                0      0       0      24        0.0%
BITBANK10           50      0       0      25        0.0%
BITSFR24             0      0       0      25        0.0%
SFR24                0      0       0      25        0.0%
BANK10              50      0       0      26        0.0%
BITSFR25             0      0       0      26        0.0%
SFR25                0      0       0      26        0.0%
BITBANK11           50      0       0      27        0.0%
BITSFR26             0      0       0      27        0.0%
SFR26                0      0       0      27        0.0%
BANK11              50      0       0      28        0.0%
BITSFR27             0      0       0      28        0.0%
SFR27                0      0       0      28        0.0%
BITBANK12           30      0       0      29        0.0%
BITSFR28             0      0       0      29        0.0%
SFR28                0      0       0      29        0.0%
BANK12              30      0       0      30        0.0%
BITSFR29             0      0       0      30        0.0%
SFR29                0      0       0      30        0.0%
BITSFR30             0      0       0      31        0.0%
SFR30                0      0       0      31        0.0%
DATA                 0      0      19      31        0.0%
BITSFR31             0      0       0      32        0.0%
SFR31                0      0       0      32        0.0%


Microchip Technology PIC Macro Assembler V1.41 build -162212810 
Symbol Table                                                                                   Tue Sep 26 23:10:50 2017

                      _x 002A                        _y 0029              __CFG_CP$OFF 0000  
                     l42 0646                       l43 0648                       l44 064E  
                     l45 065E                       l46 0652                       l93 06FF  
    ___wmul@multiplicand 0072              __CFG_LVP$ON 0000                      l178 0605  
          LCDClear@index 0021                      l820 0783                      l814 0775  
                    l736 05FF                      l832 07B3                      l808 0759  
                    l762 0746                      l826 07A5                      l756 070F  
                    l790 066E                      l782 05E6                      l838 07D5  
                    l796 0683                      u305 060B                      u325 070D  
                    u405 0773                      u335 0744                      u415 0781  
                    u345 0624                      u425 07A3             __CFG_CPD$OFF 0000  
                    u435 07B1                      u445 07D3                      u375 066C  
                    u295 0606                      u455 07E1                      u385 0681  
                    u395 0757             __CFG_BORV$LO 0000           ??_LCDCharacter 0020  
                    wreg 0009          __end_of_LCDInit 06C3             __CFG_ZCD$OFF 0000  
                   STR_1 0B27                     STR_2 0B34                     _LATA 0016  
                   _LATB 0017                     _LATC 0018             __CFG_WRT$OFF 0000  
          __CFG_FCMEN$ON 0000       __size_of_LCDBitmap 0023                     _main 06C3  
                   fsr0h 0005                     indf0 0000                     fsr0l 0004  
                   btemp 007E        LCDBitmap@my_array 007B            __CFG_BOREN$ON 0000  
                   start 0002       __size_of_LCDString 0017            __CFG_MCLRE$ON 0000  
       __end_of_LCDClear 0688         __end_of_LCDWrite 0660                    ?_main 0070  
          __CFG_WDTE$OFF 0000                    _TRISA 0011                    _TRISB 0012  
                  _TRISC 0013          __end_of_drawBox 07FB                    _fonts 0800  
                  status 0003                    wtemp0 007E           LCDBitmap@index 0020  
         __CFG_CSWEN$OFF 0000          __initialization 07FB             __end_of_main 0700  
      LCDCharacter@index 007C        __end_of_LCDBitmap 063B                   ??_main 0028  
              ??_LCDInit 007B        __end_of_LCDString 05FD  LCDWrite@data_or_command 0078  
                 _ANSELA 0F38                   _ANSELB 0F43                   _ANSELC 0F4E  
     __CFG_RSTOSC$HFINT1 0000           __CFG_WDTCCS$SC 0000           __CFG_PWRTE$OFF 0000  
   __end_of_LCDCharacter 074B                   ___wmul 05FD           __CFG_STVREN$ON 0000  
                 _coffee 092F                   _gotoXY 05D3                ??_drawBox 0020  
           LCDWrite@data 0076                ?_LCDClear 0070  __end_of__initialization 07FD  
              ?_LCDWrite 0076    LCDCharacter@character 007B           __pcstackCOMMON 0070  
          __end_of_fonts 092F                LCDWrite@d 0079                LCDWrite@i 007A  
             __pbssBANK0 0029               ??_LCDClear 0020               ??_LCDWrite 0077  
             __pmaintext 06C3                  ?___wmul 0070          __CFG_PPS1WAY$ON 0000  
                ?_gotoXY 007B                  _LCDInit 0688    __size_of_LCDCharacter 004B  
   __CFG_SCANE$available 0000          __size_of___wmul 001B          __size_of_gotoXY 0013  
                __ptext1 074B                  __ptext2 05E6                  __ptext3 0700  
                __ptext4 05FD                  __ptext5 0688                  __ptext6 0660  
                __ptext7 05D3                  __ptext8 0618                  __ptext9 063B  
                _drawBox 074B                _LCDBitmap 0618             _LCDCharacter 0700  
              _LCDString 05E6     end_of_initialization 07FD                  gotoXY@x 007D  
                gotoXY@y 007B             __pstringtext 0800    __CFG_WDTCPS$WDTCPS_31 0000  
             ?_LCDBitmap 007B                _TRISCbits 0013         __CFG_FEXTOSC$OFF 0000  
             ?_LCDString 0025        __size_of_LCDClear 0028        __size_of_LCDWrite 0025  
         __end_of___wmul 0618           __end_of_coffee 0B27           __end_of_gotoXY 05E6  
    start_initialization 07FB         __CFG_LPBOREN$OFF 0000                 ??___wmul 0074  
               ??_gotoXY 007C                 ?_LCDInit 0070                ___latbits 0002  
            ??_LCDBitmap 007D            __pcstackBANK0 0020              ??_LCDString 0027  
               ?_drawBox 0070                 _LCDClear 0660           ___wmul@product 0074  
               _LATCbits 0018                 _LCDWrite 063B        ___wmul@multiplier 0070  
       __size_of_LCDInit 003B         __size_of_drawBox 00B0            __size_of_main 003D  
   __CFG_WDTCWS$WDTCWS_7 0000                 drawBox@j 0021        __CFG_CLKOUTEN$OFF 0000  
    LCDString@characters 0025            ?_LCDCharacter 0070  
